ARM GAS  /tmp/ccGus0PV.s 			page 1


   1              		.syntax unified
   2              		.cpu cortex-m4
   3              		.fpu softvfp
   4              		.eabi_attribute 20, 1
   5              		.eabi_attribute 21, 1
   6              		.eabi_attribute 23, 3
   7              		.eabi_attribute 24, 1
   8              		.eabi_attribute 25, 1
   9              		.eabi_attribute 26, 1
  10              		.eabi_attribute 30, 2
  11              		.eabi_attribute 34, 1
  12              		.eabi_attribute 18, 4
  13              		.thumb
  14              		.file	"bluetooth.c"
  15              		.text
  16              	.Ltext0:
  17              		.cfi_sections	.debug_frame
  18              		.section	.text.btReset,"ax",%progbits
  19              		.align	2
  20              		.p2align 4,,15
  21              		.global	btReset
  22              		.thumb
  23              		.thumb_func
  24              		.type	btReset, %function
  25              	btReset:
  26              	.LFB118:
  27              		.file 1 "bluetooth.c"
  28              		.loc 1 23 0
  29              		.cfi_startproc
  30              		@ args = 0, pretend = 0, frame = 0
  31              		@ frame_needed = 0, uses_anonymous_args = 0
  32 0000 38B5     		push	{r3, r4, r5, lr}
  33              	.LCFI0:
  34              		.cfi_def_cfa_offset 16
  35              		.cfi_offset 3, -16
  36              		.cfi_offset 4, -12
  37              		.cfi_offset 5, -8
  38              		.cfi_offset 14, -4
  39              		.loc 1 26 0
  40 0002 044C     		ldr	r4, .L2
  41 0004 0425     		movs	r5, #4
  42              		.loc 1 27 0
  43 0006 0A20     		movs	r0, #10
  44              		.loc 1 26 0
  45 0008 6583     		strh	r5, [r4, #26]	@ movhi
  46              		.loc 1 27 0
  47 000a FFF7FEFF 		bl	chThdSleep
  48              	.LVL0:
  49              		.loc 1 28 0
  50 000e 2583     		strh	r5, [r4, #24]	@ movhi
  51 0010 38BD     		pop	{r3, r4, r5, pc}
  52              	.L3:
  53 0012 00BF     		.align	2
  54              	.L2:
  55 0014 000C0240 		.word	1073875968
  56              		.cfi_endproc
  57              	.LFE118:
ARM GAS  /tmp/ccGus0PV.s 			page 2


  58              		.size	btReset, .-btReset
  59 0018 AFF30080 		.section	.text.btStart,"ax",%progbits
  59      AFF30080 
  60              		.align	2
  61              		.p2align 4,,15
  62              		.global	btStart
  63              		.thumb
  64              		.thumb_func
  65              		.type	btStart, %function
  66              	btStart:
  67              	.LFB120:
  68              		.loc 1 71 0
  69              		.cfi_startproc
  70              		@ args = 0, pretend = 0, frame = 0
  71              		@ frame_needed = 0, uses_anonymous_args = 0
  72              		@ link register save eliminated.
  73              		.loc 1 72 0
  74 0000 0148     		ldr	r0, .L5
  75 0002 0249     		ldr	r1, .L5+4
  76              		.loc 1 73 0
  77              		.loc 1 72 0
  78 0004 FFF7FEBF 		b	sdStart
  79              	.LVL1:
  80              	.L6:
  81              		.align	2
  82              	.L5:
  83 0008 00000000 		.word	SD2
  84 000c 00000000 		.word	.LANCHOR0
  85              		.cfi_endproc
  86              	.LFE120:
  87              		.size	btStart, .-btStart
  88              		.section	.text.btStartInAt,"ax",%progbits
  89              		.align	2
  90              		.p2align 4,,15
  91              		.global	btStartInAt
  92              		.thumb
  93              		.thumb_func
  94              		.type	btStartInAt, %function
  95              	btStartInAt:
  96              	.LFB121:
  97              		.loc 1 75 0
  98              		.cfi_startproc
  99              		@ args = 0, pretend = 0, frame = 0
 100              		@ frame_needed = 0, uses_anonymous_args = 0
 101              		@ link register save eliminated.
 102              		.loc 1 77 0
 103 0000 0148     		ldr	r0, .L8
 104 0002 0249     		ldr	r1, .L8+4
 105              		.loc 1 79 0
 106              		.loc 1 77 0
 107 0004 FFF7FEBF 		b	sdStart
 108              	.LVL2:
 109              	.L9:
 110              		.align	2
 111              	.L8:
 112 0008 00000000 		.word	SD2
 113 000c 00000000 		.word	.LANCHOR1
ARM GAS  /tmp/ccGus0PV.s 			page 3


 114              		.cfi_endproc
 115              	.LFE121:
 116              		.size	btStartInAt, .-btStartInAt
 117              		.section	.text.btStop,"ax",%progbits
 118              		.align	2
 119              		.p2align 4,,15
 120              		.global	btStop
 121              		.thumb
 122              		.thumb_func
 123              		.type	btStop, %function
 124              	btStop:
 125              	.LFB122:
 126              		.loc 1 83 0
 127              		.cfi_startproc
 128              		@ args = 0, pretend = 0, frame = 0
 129              		@ frame_needed = 0, uses_anonymous_args = 0
 130              		@ link register save eliminated.
 131              		.loc 1 84 0
 132 0000 0148     		ldr	r0, .L11
 133              		.loc 1 85 0
 134              		.loc 1 84 0
 135 0002 FFF7FEBF 		b	sdStop
 136              	.LVL3:
 137              	.L12:
 138 0006 00BF     		.align	2
 139              	.L11:
 140 0008 00000000 		.word	SD2
 141              		.cfi_endproc
 142              	.LFE122:
 143              		.size	btStop, .-btStop
 144 000c AFF30080 		.section	.text.btSetCommandMode,"ax",%progbits
 145              		.align	2
 146              		.p2align 4,,15
 147              		.global	btSetCommandMode
 148              		.thumb
 149              		.thumb_func
 150              		.type	btSetCommandMode, %function
 151              	btSetCommandMode:
 152              	.LFB119:
 153              		.loc 1 31 0
 154              		.cfi_startproc
 155              		@ args = 0, pretend = 0, frame = 0
 156              		@ frame_needed = 0, uses_anonymous_args = 0
 157              	.LVL4:
 158 0000 10B5     		push	{r4, lr}
 159              	.LCFI1:
 160              		.cfi_def_cfa_offset 8
 161              		.cfi_offset 4, -8
 162              		.cfi_offset 14, -4
 163              		.loc 1 34 0
 164 0002 0446     		mov	r4, r0
 165 0004 80B9     		cbnz	r0, .L19
 166              		.loc 1 37 0
 167 0006 FFF7FEFF 		bl	btStop
 168              	.LVL5:
 169              		.loc 1 39 0
 170 000a 114B     		ldr	r3, .L21
ARM GAS  /tmp/ccGus0PV.s 			page 4


 171 000c 0222     		movs	r2, #2
 172              		.loc 1 40 0
 173 000e 0A20     		movs	r0, #10
 174              		.loc 1 39 0
 175 0010 1A83     		strh	r2, [r3, #24]	@ movhi
 176              		.loc 1 40 0
 177 0012 FFF7FEFF 		bl	chThdSleep
 178              	.LVL6:
 179              		.loc 1 41 0
 180 0016 FFF7FEFF 		bl	btReset
 181              	.LVL7:
 182              		.loc 1 42 0
 183 001a 0A20     		movs	r0, #10
 184 001c FFF7FEFF 		bl	chThdSleep
 185              	.LVL8:
 186              		.loc 1 68 0
 187 0020 BDE81040 		pop	{r4, lr}
 188              		.loc 1 45 0
 189 0024 FFF7FEBF 		b	btStartInAt
 190              	.LVL9:
 191              	.L19:
 192              		.loc 1 34 0
 193 0028 0128     		cmp	r0, #1
 194 002a 00D0     		beq	.L20
 195 002c 10BD     		pop	{r4, pc}
 196              	.L20:
 197              		.loc 1 52 0
 198 002e FFF7FEFF 		bl	btStop
 199              	.LVL10:
 200              		.loc 1 54 0
 201 0032 074B     		ldr	r3, .L21
 202              		.loc 1 55 0
 203 0034 0A20     		movs	r0, #10
 204              		.loc 1 54 0
 205 0036 1C83     		strh	r4, [r3, #24]	@ movhi
 206              		.loc 1 55 0
 207 0038 FFF7FEFF 		bl	chThdSleep
 208              	.LVL11:
 209              		.loc 1 56 0
 210 003c FFF7FEFF 		bl	btReset
 211              	.LVL12:
 212              		.loc 1 57 0
 213 0040 0A20     		movs	r0, #10
 214 0042 FFF7FEFF 		bl	chThdSleep
 215              	.LVL13:
 216              		.loc 1 68 0
 217 0046 BDE81040 		pop	{r4, lr}
 218              		.loc 1 60 0
 219 004a FFF7FEBF 		b	btStart
 220              	.LVL14:
 221              	.L22:
 222 004e 00BF     		.align	2
 223              	.L21:
 224 0050 000C0240 		.word	1073875968
 225              		.cfi_endproc
 226              	.LFE119:
 227              		.size	btSetCommandMode, .-btSetCommandMode
ARM GAS  /tmp/ccGus0PV.s 			page 5


 228 0054 AFF30080 		.section	.text.btAtResetDefaults,"ax",%progbits
 228      AFF30080 
 228      AFF30080 
 229              		.align	2
 230              		.p2align 4,,15
 231              		.global	btAtResetDefaults
 232              		.thumb
 233              		.thumb_func
 234              		.type	btAtResetDefaults, %function
 235              	btAtResetDefaults:
 236              	.LFB123:
 237              		.loc 1 104 0
 238              		.cfi_startproc
 239              		@ args = 0, pretend = 0, frame = 0
 240              		@ frame_needed = 0, uses_anonymous_args = 0
 241              		@ link register save eliminated.
 242              		.loc 1 105 0
 243 0000 0348     		ldr	r0, .L24
 244 0002 0449     		ldr	r1, .L24+4
 245 0004 0922     		movs	r2, #9
 246 0006 4FF0FF33 		mov	r3, #-1
 247              		.loc 1 106 0
 248              		.loc 1 105 0
 249 000a FFF7FEBF 		b	chOQWriteTimeout
 250              	.LVL15:
 251              	.L25:
 252 000e 00BF     		.align	2
 253              	.L24:
 254 0010 30000000 		.word	SD2+48
 255 0014 00000000 		.word	.LC0
 256              		.cfi_endproc
 257              	.LFE123:
 258              		.size	btAtResetDefaults, .-btAtResetDefaults
 259 0018 AFF30080 		.section	.data.btCommSerialDriverConfig,"aw",%progbits
 259      AFF30080 
 260              		.align	2
 261              		.set	.LANCHOR0,. + 0
 262              		.type	btCommSerialDriverConfig, %object
 263              		.size	btCommSerialDriverConfig, 12
 264              	btCommSerialDriverConfig:
 265 0000 00960000 		.word	38400
 266 0004 00000000 		.space	8
 266      00000000 
 267              		.section	.data.btAtSerialDriverConfig,"aw",%progbits
 268              		.align	2
 269              		.set	.LANCHOR1,. + 0
 270              		.type	btAtSerialDriverConfig, %object
 271              		.size	btAtSerialDriverConfig, 12
 272              	btAtSerialDriverConfig:
 273 0000 00960000 		.word	38400
 274 0004 00000000 		.space	8
 274      00000000 
 275              		.section	.rodata.str1.4,"aMS",%progbits,1
 276              		.align	2
 277              	.LC0:
 278 0000 41542B4F 		.ascii	"AT+ORGL\015\012\000"
 278      52474C0D 
ARM GAS  /tmp/ccGus0PV.s 			page 6


 278      0A00
 279 000a 0000     		.text
 280              	.Letext0:
 281              		.file 2 "/home/dpeter/CodeSourcery/Sourcery_CodeBench_Lite_for_ARM_EABI/bin/../lib/gcc/arm-none-ea
 282              		.file 3 "/home/dpeter/CodeSourcery/Sourcery_CodeBench_Lite_for_ARM_EABI/bin/../lib/gcc/arm-none-ea
 283              		.file 4 "/home/dpeter/devel/sources/ChibiOS-RT/os/ports/GCC/ARMCMx/chtypes.h"
 284              		.file 5 "/home/dpeter/devel/sources/ChibiOS-RT/os/kernel/include/chlists.h"
 285              		.file 6 "/home/dpeter/devel/sources/ChibiOS-RT/os/kernel/include/chthreads.h"
 286              		.file 7 "/home/dpeter/devel/sources/ChibiOS-RT/os/ports/GCC/ARMCMx/chcore_v7m.h"
 287              		.file 8 "/home/dpeter/devel/sources/ChibiOS-RT/os/kernel/include/chmtx.h"
 288              		.file 9 "/home/dpeter/devel/sources/ChibiOS-RT/os/kernel/include/chevents.h"
 289              		.file 10 "/home/dpeter/devel/sources/ChibiOS-RT/os/kernel/include/chqueues.h"
 290              		.file 11 "/home/dpeter/devel/sources/ChibiOS-RT/os/hal/platforms/STM32F4xx/stm32f4xx.h"
 291              		.file 12 "/home/dpeter/devel/sources/ChibiOS-RT/os/hal/platforms/STM32/GPIOv2/pal_lld.h"
 292              		.file 13 "/home/dpeter/devel/sources/ChibiOS-RT/os/hal/include/serial.h"
 293              		.file 14 "/home/dpeter/devel/sources/ChibiOS-RT/os/hal/platforms/STM32/USARTv1/serial_lld.h"
 294              		.file 15 "bluetooth.h"
 295              		.file 16 "/home/dpeter/devel/sources/ChibiOS-RT/os/ports/common/ARMCMx/CMSIS/include/core_cm4.h"