ARM GAS  /tmp/ccGus0PV.s 			page 1


   1              		.syntax unified
   2              		.cpu cortex-m4
   3              		.fpu softvfp
   4              		.eabi_attribute 20, 1
   5              		.eabi_attribute 21, 1
   6              		.eabi_attribute 23, 3
   7              		.eabi_attribute 24, 1
   8              		.eabi_attribute 25, 1
   9              		.eabi_attribute 26, 1
  10              		.eabi_attribute 30, 2
  11              		.eabi_attribute 34, 1
  12              		.eabi_attribute 18, 4
  13              		.thumb
  14              		.file	"bluetooth.c"
  15              		.text
  16              	.Ltext0:
  17              		.cfi_sections	.debug_frame
  18              		.section	.text.btReset,"ax",%progbits
  19              		.align	2
  20              		.p2align 4,,15
  21              		.global	btReset
  22              		.thumb
  23              		.thumb_func
  24              		.type	btReset, %function
  25              	btReset:
  26              	.LFB118:
  27              		.file 1 "bluetooth.c"
  28              		.loc 1 23 0
  29              		.cfi_startproc
  30              		@ args = 0, pretend = 0, frame = 0
  31              		@ frame_needed = 0, uses_anonymous_args = 0
  32 0000 38B5     		push	{r3, r4, r5, lr}
  33              	.LCFI0:
  34              		.cfi_def_cfa_offset 16
  35              		.cfi_offset 3, -16
  36              		.cfi_offset 4, -12
  37              		.cfi_offset 5, -8
  38              		.cfi_offset 14, -4
  39              		.loc 1 26 0
  40 0002 044C     		ldr	r4, .L2
  41 0004 0425     		movs	r5, #4
  42              		.loc 1 27 0
  43 0006 0A20     		movs	r0, #10
  44              		.loc 1 26 0
  45 0008 6583     		strh	r5, [r4, #26]	@ movhi
  46              		.loc 1 27 0
  47 000a FFF7FEFF 		bl	chThdSleep
  48              	.LVL0:
  49              		.loc 1 28 0
  50 000e 2583     		strh	r5, [r4, #24]	@ movhi
  51 0010 38BD     		pop	{r3, r4, r5, pc}
  52              	.L3:
  53 0012 00BF     		.align	2
  54              	.L2:
  55 0014 000C0240 		.word	1073875968
  56              		.cfi_endproc
  57              	.LFE118:
ARM GAS  /tmp/ccGus0PV.s 			page 2


  58              		.size	btReset, .-btReset
  59 0018 AFF30080 		.section	.text.btStart,"ax",%progbits
  59      AFF30080 
  60              		.align	2
  61              		.p2align 4,,15
  62              		.global	btStart
  63              		.thumb
  64              		.thumb_func
  65              		.type	btStart, %function
  66              	btStart:
  67              	.LFB120:
  68              		.loc 1 71 0
  69              		.cfi_startproc
  70              		@ args = 0, pretend = 0, frame = 0
  71              		@ frame_needed = 0, uses_anonymous_args = 0
  72              		@ link register save eliminated.
  73              		.loc 1 72 0
  74 0000 0148     		ldr	r0, .L5
  75 0002 0249     		ldr	r1, .L5+4
  76              		.loc 1 73 0
  77              		.loc 1 72 0
  78 0004 FFF7FEBF 		b	sdStart
  79              	.LVL1:
  80              	.L6:
  81              		.align	2
  82              	.L5:
  83 0008 00000000 		.word	SD2
  84 000c 00000000 		.word	.LANCHOR0
  85              		.cfi_endproc
  86              	.LFE120:
  87              		.size	btStart, .-btStart
  88              		.section	.text.btStartInAt,"ax",%progbits
  89              		.align	2
  90              		.p2align 4,,15
  91              		.global	btStartInAt
  92              		.thumb
  93              		.thumb_func
  94              		.type	btStartInAt, %function
  95              	btStartInAt:
  96              	.LFB121:
  97              		.loc 1 75 0
  98              		.cfi_startproc
  99              		@ args = 0, pretend = 0, frame = 0
 100              		@ frame_needed = 0, uses_anonymous_args = 0
 101              		@ link register save eliminated.
 102              		.loc 1 77 0
 103 0000 0148     		ldr	r0, .L8
 104 0002 0249     		ldr	r1, .L8+4
 105              		.loc 1 79 0
 106              		.loc 1 77 0
 107 0004 FFF7FEBF 		b	sdStart
 108              	.LVL2:
 109              	.L9:
 110              		.align	2
 111              	.L8:
 112 0008 00000000 		.word	SD2
 113 000c 00000000 		.word	.LANCHOR1
ARM GAS  /tmp/ccGus0PV.s 			page 3


 114              		.cfi_endproc
 115              	.LFE121:
 116              		.size	btStartInAt, .-btStartInAt
 117              		.section	.text.btStop,"ax",%progbits
 118              		.align	2
 119              		.p2align 4,,15
 120              		.global	btStop
 121              		.thumb
 122              		.thumb_func
 123              		.type	btStop, %function
 124              	btStop:
 125              	.LFB122:
 126              		.loc 1 83 0
 127              		.cfi_startproc
 128              		@ args = 0, pretend = 0, frame = 0
 129              		@ frame_needed = 0, uses_anonymous_args = 0
 130              		@ link register save eliminated.
 131              		.loc 1 84 0
 132 0000 0148     		ldr	r0, .L11
 133              		.loc 1 85 0
 134              		.loc 1 84 0
 135 0002 FFF7FEBF 		b	sdStop
 136              	.LVL3:
 137              	.L12:
 138 0006 00BF     		.align	2
 139              	.L11:
 140 0008 00000000 		.word	SD2
 141              		.cfi_endproc
 142              	.LFE122:
 143              		.size	btStop, .-btStop
 144 000c AFF30080 		.section	.text.btSetCommandMode,"ax",%progbits
 145              		.align	2
 146              		.p2align 4,,15
 147              		.global	btSetCommandMode
 148              		.thumb
 149              		.thumb_func
 150              		.type	btSetCommandMode, %function
 151              	btSetCommandMode:
 152              	.LFB119:
 153              		.loc 1 31 0
 154              		.cfi_startproc
 155              		@ args = 0, pretend = 0, frame = 0
 156              		@ frame_needed = 0, uses_anonymous_args = 0
 157              	.LVL4:
 158 0000 10B5     		push	{r4, lr}
 159              	.LCFI1:
 160              		.cfi_def_cfa_offset 8
 161              		.cfi_offset 4, -8
 162              		.cfi_offset 14, -4
 163              		.loc 1 34 0
 164 0002 0446     		mov	r4, r0
 165 0004 80B9     		cbnz	r0, .L19
 166              		.loc 1 37 0
 167 0006 FFF7FEFF 		bl	btStop
 168              	.LVL5:
 169              		.loc 1 39 0
 170 000a 114B     		ldr	r3, .L21
ARM GAS  /tmp/ccGus0PV.s 			page 4


 171 000c 0222     		movs	r2, #2
 172              		.loc 1 40 0
 173 000e 0A20     		movs	r0, #10
 174              		.loc 1 39 0
 175 0010 1A83     		strh	r2, [r3, #24]	@ movhi
 176              		.loc 1 40 0
 177 0012 FFF7FEFF 		bl	chThdSleep
 178              	.LVL6:
 179              		.loc 1 41 0
 180 0016 FFF7FEFF 		bl	btReset
 181              	.LVL7:
 182              		.loc 1 42 0
 183 001a 0A20     		movs	r0, #10
 184 001c FFF7FEFF 		bl	chThdSleep
 185              	.LVL8:
 186              		.loc 1 68 0
 187 0020 BDE81040 		pop	{r4, lr}
 188              		.loc 1 45 0
 189 0024 FFF7FEBF 		b	btStartInAt
 190              	.LVL9:
 191              	.L19:
 192              		.loc 1 34 0
 193 0028 0128     		cmp	r0, #1
 194 002a 00D0     		beq	.L20
 195 002c 10BD     		pop	{r4, pc}
 196              	.L20:
 197              		.loc 1 52 0
 198 002e FFF7FEFF 		bl	btStop
 199              	.LVL10:
 200              		.loc 1 54 0
 201 0032 074B     		ldr	r3, .L21
 202              		.loc 1 55 0
 203 0034 0A20     		movs	r0, #10
 204              		.loc 1 54 0
 205 0036 1C83     		strh	r4, [r3, #24]	@ movhi
 206              		.loc 1 55 0
 207 0038 FFF7FEFF 		bl	chThdSleep
 208              	.LVL11:
 209              		.loc 1 56 0
 210 003c FFF7FEFF 		bl	btReset
 211              	.LVL12:
 212              		.loc 1 57 0
 213 0040 0A20     		movs	r0, #10
 214 0042 FFF7FEFF 		bl	chThdSleep
 215              	.LVL13:
 216              		.loc 1 68 0
 217 0046 BDE81040 		pop	{r4, lr}
 218              		.loc 1 60 0
 219 004a FFF7FEBF 		b	btStart
 220              	.LVL14:
 221              	.L22:
 222 004e 00BF     		.align	2
 223              	.L21:
 224 0050 000C0240 		.word	1073875968
 225              		.cfi_endproc
 226              	.LFE119:
 227              		.size	btSetCommandMode, .-btSetCommandMode
ARM GAS  /tmp/ccGus0PV.s 			page 5


 228 0054 AFF30080 		.section	.text.btAtResetDefaults,"ax",%progbits
 228      AFF30080 
 228      AFF30080 
 229              		.align	2
 230              		.p2align 4,,15
 231              		.global	btAtResetDefaults
 232              		.thumb
 233              		.thumb_func
 234              		.type	btAtResetDefaults, %function
 235              	btAtResetDefaults:
 236              	.LFB123:
 237              		.loc 1 104 0
 238              		.cfi_startproc
 239              		@ args = 0, pretend = 0, frame = 0
 240              		@ frame_needed = 0, uses_anonymous_args = 0
 241              		@ link register save eliminated.
 242              		.loc 1 105 0
 243 0000 0348     		ldr	r0, .L24
 244 0002 0449     		ldr	r1, .L24+4
 245 0004 0922     		movs	r2, #9
 246 0006 4FF0FF33 		mov	r3, #-1
 247              		.loc 1 106 0
 248              		.loc 1 105 0
 249 000a FFF7FEBF 		b	chOQWriteTimeout
 250              	.LVL15:
 251              	.L25:
 252 000e 00BF     		.align	2
 253              	.L24:
 254 0010 30000000 		.word	SD2+48
 255 0014 00000000 		.word	.LC0
 256              		.cfi_endproc
 257              	.LFE123:
 258              		.size	btAtResetDefaults, .-btAtResetDefaults
 259 0018 AFF30080 		.section	.data.btCommSerialDriverConfig,"aw",%progbits
 259      AFF30080 
 260              		.align	2
 261              		.set	.LANCHOR0,. + 0
 262              		.type	btCommSerialDriverConfig, %object
 263              		.size	btCommSerialDriverConfig, 12
 264              	btCommSerialDriverConfig:
 265 0000 00960000 		.word	38400
 266 0004 00000000 		.space	8
 266      00000000 
 267              		.section	.data.btAtSerialDriverConfig,"aw",%progbits
 268              		.align	2
 269              		.set	.LANCHOR1,. + 0
 270              		.type	btAtSerialDriverConfig, %object
 271              		.size	btAtSerialDriverConfig, 12
 272              	btAtSerialDriverConfig:
 273 0000 00960000 		.word	38400
 274 0004 00000000 		.space	8
 274      00000000 
 275              		.section	.rodata.str1.4,"aMS",%progbits,1
 276              		.align	2
 277              	.LC0:
 278 0000 41542B4F 		.ascii	"AT+ORGL\015\012\000"
 278      52474C0D 
ARM GAS  /tmp/ccGus0PV.s 			page 6


 278      0A00
 279 000a 0000     		.text
 280              	.Letext0:
 281              		.file 2 "/home/dpeter/CodeSourcery/Sourcery_CodeBench_Lite_for_ARM_EABI/bin/../lib/gcc/arm-none-ea
 282              		.file 3 "/home/dpeter/CodeSourcery/Sourcery_CodeBench_Lite_for_ARM_EABI/bin/../lib/gcc/arm-none-ea
 283              		.file 4 "/home/dpeter/devel/sources/ChibiOS-RT/os/ports/GCC/ARMCMx/chtypes.h"
 284              		.file 5 "/home/dpeter/devel/sources/ChibiOS-RT/os/kernel/include/chlists.h"
 285              		.file 6 "/home/dpeter/devel/sources/ChibiOS-RT/os/kernel/include/chthreads.h"
 286              		.file 7 "/home/dpeter/devel/sources/ChibiOS-RT/os/ports/GCC/ARMCMx/chcore_v7m.h"
 287              		.file 8 "/home/dpeter/devel/sources/ChibiOS-RT/os/kernel/include/chmtx.h"
 288              		.file 9 "/home/dpeter/devel/sources/ChibiOS-RT/os/kernel/include/chevents.h"
 289              		.file 10 "/home/dpeter/devel/sources/ChibiOS-RT/os/kernel/include/chqueues.h"
 290              		.file 11 "/home/dpeter/devel/sources/ChibiOS-RT/os/hal/platforms/STM32F4xx/stm32f4xx.h"
 291              		.file 12 "/home/dpeter/devel/sources/ChibiOS-RT/os/hal/platforms/STM32/GPIOv2/pal_lld.h"
 292              		.file 13 "/home/dpeter/devel/sources/ChibiOS-RT/os/hal/include/serial.h"
 293              		.file 14 "/home/dpeter/devel/sources/ChibiOS-RT/os/hal/platforms/STM32/USARTv1/serial_lld.h"
 294              		.file 15 "bluetooth.h"
 295              		.file 16 "/home/dpeter/devel/sources/ChibiOS-RT/os/ports/common/ARMCMx/CMSIS/include/core_cm4.h"
 296              		.section	.debug_info,"",%progbits
 297              	.Ldebug_info0:
 298 0000 0C0D0000 		.4byte	0xd0c
 299 0004 0200     		.2byte	0x2
 300 0006 00000000 		.4byte	.Ldebug_abbrev0
 301 000a 04       		.byte	0x4
 302 000b 01       		.uleb128 0x1
 303 000c F6020000 		.4byte	.LASF147
 304 0010 01       		.byte	0x1
 305 0011 04050000 		.4byte	.LASF148
 306 0015 E9010000 		.4byte	.LASF149
 307 0019 00000000 		.4byte	.Ldebug_ranges0+0
 308 001d 00000000 		.4byte	0
 309 0021 00000000 		.4byte	0
 310 0025 00000000 		.4byte	.Ldebug_line0
 311 0029 02       		.uleb128 0x2
 312 002a 04       		.byte	0x4
 313 002b 05       		.byte	0x5
 314 002c 696E7400 		.ascii	"int\000"
 315 0030 03       		.uleb128 0x3
 316 0031 00000000 		.4byte	.LASF2
 317 0035 02       		.byte	0x2
 318 0036 D5       		.byte	0xd5
 319 0037 3B000000 		.4byte	0x3b
 320 003b 04       		.uleb128 0x4
 321 003c 04       		.byte	0x4
 322 003d 07       		.byte	0x7
 323 003e 74010000 		.4byte	.LASF0
 324 0042 04       		.uleb128 0x4
 325 0043 01       		.byte	0x1
 326 0044 06       		.byte	0x6
 327 0045 A1000000 		.4byte	.LASF1
 328 0049 03       		.uleb128 0x3
 329 004a 4A050000 		.4byte	.LASF3
 330 004e 03       		.byte	0x3
 331 004f 2A       		.byte	0x2a
 332 0050 54000000 		.4byte	0x54
 333 0054 04       		.uleb128 0x4
 334 0055 01       		.byte	0x1
ARM GAS  /tmp/ccGus0PV.s 			page 7


 335 0056 08       		.byte	0x8
 336 0057 B0030000 		.4byte	.LASF4
 337 005b 04       		.uleb128 0x4
 338 005c 02       		.byte	0x2
 339 005d 05       		.byte	0x5
 340 005e DD030000 		.4byte	.LASF5
 341 0062 03       		.uleb128 0x3
 342 0063 81010000 		.4byte	.LASF6
 343 0067 03       		.byte	0x3
 344 0068 36       		.byte	0x36
 345 0069 6D000000 		.4byte	0x6d
 346 006d 04       		.uleb128 0x4
 347 006e 02       		.byte	0x2
 348 006f 07       		.byte	0x7
 349 0070 D0010000 		.4byte	.LASF7
 350 0074 03       		.uleb128 0x3
 351 0075 A8030000 		.4byte	.LASF8
 352 0079 03       		.byte	0x3
 353 007a 4F       		.byte	0x4f
 354 007b 7F000000 		.4byte	0x7f
 355 007f 04       		.uleb128 0x4
 356 0080 04       		.byte	0x4
 357 0081 05       		.byte	0x5
 358 0082 E5000000 		.4byte	.LASF9
 359 0086 03       		.uleb128 0x3
 360 0087 F1040000 		.4byte	.LASF10
 361 008b 03       		.byte	0x3
 362 008c 50       		.byte	0x50
 363 008d 91000000 		.4byte	0x91
 364 0091 04       		.uleb128 0x4
 365 0092 04       		.byte	0x4
 366 0093 07       		.byte	0x7
 367 0094 82040000 		.4byte	.LASF11
 368 0098 04       		.uleb128 0x4
 369 0099 08       		.byte	0x8
 370 009a 05       		.byte	0x5
 371 009b 93000000 		.4byte	.LASF12
 372 009f 04       		.uleb128 0x4
 373 00a0 08       		.byte	0x8
 374 00a1 07       		.byte	0x7
 375 00a2 49000000 		.4byte	.LASF13
 376 00a6 04       		.uleb128 0x4
 377 00a7 01       		.byte	0x1
 378 00a8 02       		.byte	0x2
 379 00a9 A2030000 		.4byte	.LASF14
 380 00ad 03       		.uleb128 0x3
 381 00ae 39020000 		.4byte	.LASF15
 382 00b2 04       		.byte	0x4
 383 00b3 25       		.byte	0x25
 384 00b4 49000000 		.4byte	0x49
 385 00b8 03       		.uleb128 0x3
 386 00b9 EE000000 		.4byte	.LASF16
 387 00bd 04       		.byte	0x4
 388 00be 26       		.byte	0x26
 389 00bf 49000000 		.4byte	0x49
 390 00c3 03       		.uleb128 0x3
 391 00c4 47030000 		.4byte	.LASF17
ARM GAS  /tmp/ccGus0PV.s 			page 8


 392 00c8 04       		.byte	0x4
 393 00c9 27       		.byte	0x27
 394 00ca 49000000 		.4byte	0x49
 395 00ce 03       		.uleb128 0x3
 396 00cf C7000000 		.4byte	.LASF18
 397 00d3 04       		.byte	0x4
 398 00d4 28       		.byte	0x28
 399 00d5 49000000 		.4byte	0x49
 400 00d9 03       		.uleb128 0x3
 401 00da 92030000 		.4byte	.LASF19
 402 00de 04       		.byte	0x4
 403 00df 29       		.byte	0x29
 404 00e0 86000000 		.4byte	0x86
 405 00e4 03       		.uleb128 0x3
 406 00e5 17020000 		.4byte	.LASF20
 407 00e9 04       		.byte	0x4
 408 00ea 2A       		.byte	0x2a
 409 00eb 74000000 		.4byte	0x74
 410 00ef 03       		.uleb128 0x3
 411 00f0 4D020000 		.4byte	.LASF21
 412 00f4 04       		.byte	0x4
 413 00f5 2C       		.byte	0x2c
 414 00f6 86000000 		.4byte	0x86
 415 00fa 03       		.uleb128 0x3
 416 00fb 32040000 		.4byte	.LASF22
 417 00ff 04       		.byte	0x4
 418 0100 2D       		.byte	0x2d
 419 0101 86000000 		.4byte	0x86
 420 0105 03       		.uleb128 0x3
 421 0106 B2040000 		.4byte	.LASF23
 422 010a 04       		.byte	0x4
 423 010b 2E       		.byte	0x2e
 424 010c 86000000 		.4byte	0x86
 425 0110 03       		.uleb128 0x3
 426 0111 26040000 		.4byte	.LASF24
 427 0115 05       		.byte	0x5
 428 0116 23       		.byte	0x23
 429 0117 1B010000 		.4byte	0x11b
 430 011b 05       		.uleb128 0x5
 431 011c 26040000 		.4byte	.LASF24
 432 0120 48       		.byte	0x48
 433 0121 06       		.byte	0x6
 434 0122 57       		.byte	0x57
 435 0123 40020000 		.4byte	0x240
 436 0127 06       		.uleb128 0x6
 437 0128 00040000 		.4byte	.LASF25
 438 012c 06       		.byte	0x6
 439 012d 58       		.byte	0x58
 440 012e 65020000 		.4byte	0x265
 441 0132 02       		.byte	0x2
 442 0133 23       		.byte	0x23
 443 0134 00       		.uleb128 0
 444 0135 06       		.uleb128 0x6
 445 0136 81030000 		.4byte	.LASF26
 446 013a 06       		.byte	0x6
 447 013b 5A       		.byte	0x5a
 448 013c 65020000 		.4byte	0x265
ARM GAS  /tmp/ccGus0PV.s 			page 9


 449 0140 02       		.byte	0x2
 450 0141 23       		.byte	0x23
 451 0142 04       		.uleb128 0x4
 452 0143 06       		.uleb128 0x6
 453 0144 7C000000 		.4byte	.LASF27
 454 0148 06       		.byte	0x6
 455 0149 5C       		.byte	0x5c
 456 014a D9000000 		.4byte	0xd9
 457 014e 02       		.byte	0x2
 458 014f 23       		.byte	0x23
 459 0150 08       		.uleb128 0x8
 460 0151 06       		.uleb128 0x6
 461 0152 A3050000 		.4byte	.LASF28
 462 0156 06       		.byte	0x6
 463 0157 5D       		.byte	0x5d
 464 0158 33030000 		.4byte	0x333
 465 015c 02       		.byte	0x2
 466 015d 23       		.byte	0x23
 467 015e 0C       		.uleb128 0xc
 468 015f 06       		.uleb128 0x6
 469 0160 32010000 		.4byte	.LASF29
 470 0164 06       		.byte	0x6
 471 0165 5F       		.byte	0x5f
 472 0166 65020000 		.4byte	0x265
 473 016a 02       		.byte	0x2
 474 016b 23       		.byte	0x23
 475 016c 10       		.uleb128 0x10
 476 016d 06       		.uleb128 0x6
 477 016e D7020000 		.4byte	.LASF30
 478 0172 06       		.byte	0x6
 479 0173 60       		.byte	0x60
 480 0174 65020000 		.4byte	0x265
 481 0178 02       		.byte	0x2
 482 0179 23       		.byte	0x23
 483 017a 14       		.uleb128 0x14
 484 017b 06       		.uleb128 0x6
 485 017c 16050000 		.4byte	.LASF31
 486 0180 06       		.byte	0x6
 487 0181 67       		.byte	0x67
 488 0182 60040000 		.4byte	0x460
 489 0186 02       		.byte	0x2
 490 0187 23       		.byte	0x23
 491 0188 18       		.uleb128 0x18
 492 0189 06       		.uleb128 0x6
 493 018a E7030000 		.4byte	.LASF32
 494 018e 06       		.byte	0x6
 495 018f 72       		.byte	0x72
 496 0190 B8000000 		.4byte	0xb8
 497 0194 02       		.byte	0x2
 498 0195 23       		.byte	0x23
 499 0196 1C       		.uleb128 0x1c
 500 0197 06       		.uleb128 0x6
 501 0198 07040000 		.4byte	.LASF33
 502 019c 06       		.byte	0x6
 503 019d 76       		.byte	0x76
 504 019e AD000000 		.4byte	0xad
 505 01a2 02       		.byte	0x2
ARM GAS  /tmp/ccGus0PV.s 			page 10


 506 01a3 23       		.byte	0x23
 507 01a4 1D       		.uleb128 0x1d
 508 01a5 06       		.uleb128 0x6
 509 01a6 03010000 		.4byte	.LASF34
 510 01aa 06       		.byte	0x6
 511 01ab 7B       		.byte	0x7b
 512 01ac C3000000 		.4byte	0xc3
 513 01b0 02       		.byte	0x2
 514 01b1 23       		.byte	0x23
 515 01b2 1E       		.uleb128 0x1e
 516 01b3 06       		.uleb128 0x6
 517 01b4 EF030000 		.4byte	.LASF35
 518 01b8 06       		.byte	0x6
 519 01b9 81       		.byte	0x81
 520 01ba CE000000 		.4byte	0xce
 521 01be 02       		.byte	0x2
 522 01bf 23       		.byte	0x23
 523 01c0 1F       		.uleb128 0x1f
 524 01c1 06       		.uleb128 0x6
 525 01c2 23010000 		.4byte	.LASF36
 526 01c6 06       		.byte	0x6
 527 01c7 88       		.byte	0x88
 528 01c8 62030000 		.4byte	0x362
 529 01cc 02       		.byte	0x2
 530 01cd 23       		.byte	0x23
 531 01ce 20       		.uleb128 0x20
 532 01cf 07       		.uleb128 0x7
 533 01d0 705F7500 		.ascii	"p_u\000"
 534 01d4 06       		.byte	0x6
 535 01d5 AD       		.byte	0xad
 536 01d6 2B040000 		.4byte	0x42b
 537 01da 02       		.byte	0x2
 538 01db 23       		.byte	0x23
 539 01dc 24       		.uleb128 0x24
 540 01dd 06       		.uleb128 0x6
 541 01de A9050000 		.4byte	.LASF37
 542 01e2 06       		.byte	0x6
 543 01e3 B2       		.byte	0xb2
 544 01e4 8D020000 		.4byte	0x28d
 545 01e8 02       		.byte	0x2
 546 01e9 23       		.byte	0x23
 547 01ea 28       		.uleb128 0x28
 548 01eb 06       		.uleb128 0x6
 549 01ec A8010000 		.4byte	.LASF38
 550 01f0 06       		.byte	0x6
 551 01f1 B8       		.byte	0xb8
 552 01f2 6B020000 		.4byte	0x26b
 553 01f6 02       		.byte	0x2
 554 01f7 23       		.byte	0x23
 555 01f8 2C       		.uleb128 0x2c
 556 01f9 06       		.uleb128 0x6
 557 01fa 89050000 		.4byte	.LASF39
 558 01fe 06       		.byte	0x6
 559 01ff BC       		.byte	0xbc
 560 0200 E4000000 		.4byte	0xe4
 561 0204 02       		.byte	0x2
 562 0205 23       		.byte	0x23
ARM GAS  /tmp/ccGus0PV.s 			page 11


 563 0206 34       		.uleb128 0x34
 564 0207 06       		.uleb128 0x6
 565 0208 3E040000 		.4byte	.LASF40
 566 020c 06       		.byte	0x6
 567 020d C2       		.byte	0xc2
 568 020e EF000000 		.4byte	0xef
 569 0212 02       		.byte	0x2
 570 0213 23       		.byte	0x23
 571 0214 38       		.uleb128 0x38
 572 0215 06       		.uleb128 0x6
 573 0216 D3030000 		.4byte	.LASF41
 574 021a 06       		.byte	0x6
 575 021b C9       		.byte	0xc9
 576 021c 72040000 		.4byte	0x472
 577 0220 02       		.byte	0x2
 578 0221 23       		.byte	0x23
 579 0222 3C       		.uleb128 0x3c
 580 0223 06       		.uleb128 0x6
 581 0224 BC040000 		.4byte	.LASF42
 582 0228 06       		.byte	0x6
 583 0229 CD       		.byte	0xcd
 584 022a D9000000 		.4byte	0xd9
 585 022e 02       		.byte	0x2
 586 022f 23       		.byte	0x23
 587 0230 40       		.uleb128 0x40
 588 0231 06       		.uleb128 0x6
 589 0232 B7000000 		.4byte	.LASF43
 590 0236 06       		.byte	0x6
 591 0237 D3       		.byte	0xd3
 592 0238 A3020000 		.4byte	0x2a3
 593 023c 02       		.byte	0x2
 594 023d 23       		.byte	0x23
 595 023e 44       		.uleb128 0x44
 596 023f 00       		.byte	0
 597 0240 08       		.uleb128 0x8
 598 0241 08       		.byte	0x8
 599 0242 05       		.byte	0x5
 600 0243 5A       		.byte	0x5a
 601 0244 65020000 		.4byte	0x265
 602 0248 06       		.uleb128 0x6
 603 0249 00040000 		.4byte	.LASF25
 604 024d 05       		.byte	0x5
 605 024e 5B       		.byte	0x5b
 606 024f 65020000 		.4byte	0x265
 607 0253 02       		.byte	0x2
 608 0254 23       		.byte	0x23
 609 0255 00       		.uleb128 0
 610 0256 06       		.uleb128 0x6
 611 0257 81030000 		.4byte	.LASF26
 612 025b 05       		.byte	0x5
 613 025c 5D       		.byte	0x5d
 614 025d 65020000 		.4byte	0x265
 615 0261 02       		.byte	0x2
 616 0262 23       		.byte	0x23
 617 0263 04       		.uleb128 0x4
 618 0264 00       		.byte	0
 619 0265 09       		.uleb128 0x9
ARM GAS  /tmp/ccGus0PV.s 			page 12


 620 0266 04       		.byte	0x4
 621 0267 10010000 		.4byte	0x110
 622 026b 03       		.uleb128 0x3
 623 026c 92020000 		.4byte	.LASF44
 624 0270 05       		.byte	0x5
 625 0271 5F       		.byte	0x5f
 626 0272 40020000 		.4byte	0x240
 627 0276 08       		.uleb128 0x8
 628 0277 04       		.byte	0x4
 629 0278 05       		.byte	0x5
 630 0279 64       		.byte	0x64
 631 027a 8D020000 		.4byte	0x28d
 632 027e 06       		.uleb128 0x6
 633 027f 00040000 		.4byte	.LASF25
 634 0283 05       		.byte	0x5
 635 0284 66       		.byte	0x66
 636 0285 65020000 		.4byte	0x265
 637 0289 02       		.byte	0x2
 638 028a 23       		.byte	0x23
 639 028b 00       		.uleb128 0
 640 028c 00       		.byte	0
 641 028d 03       		.uleb128 0x3
 642 028e 41020000 		.4byte	.LASF45
 643 0292 05       		.byte	0x5
 644 0293 69       		.byte	0x69
 645 0294 76020000 		.4byte	0x276
 646 0298 03       		.uleb128 0x3
 647 0299 59010000 		.4byte	.LASF46
 648 029d 07       		.byte	0x7
 649 029e DE       		.byte	0xde
 650 029f A3020000 		.4byte	0x2a3
 651 02a3 0A       		.uleb128 0xa
 652 02a4 04       		.byte	0x4
 653 02a5 0B       		.uleb128 0xb
 654 02a6 E1040000 		.4byte	.LASF47
 655 02aa 24       		.byte	0x24
 656 02ab 07       		.byte	0x7
 657 02ac 0501     		.2byte	0x105
 658 02ae 33030000 		.4byte	0x333
 659 02b2 0C       		.uleb128 0xc
 660 02b3 723400   		.ascii	"r4\000"
 661 02b6 07       		.byte	0x7
 662 02b7 1801     		.2byte	0x118
 663 02b9 98020000 		.4byte	0x298
 664 02bd 02       		.byte	0x2
 665 02be 23       		.byte	0x23
 666 02bf 00       		.uleb128 0
 667 02c0 0C       		.uleb128 0xc
 668 02c1 723500   		.ascii	"r5\000"
 669 02c4 07       		.byte	0x7
 670 02c5 1901     		.2byte	0x119
 671 02c7 98020000 		.4byte	0x298
 672 02cb 02       		.byte	0x2
 673 02cc 23       		.byte	0x23
 674 02cd 04       		.uleb128 0x4
 675 02ce 0C       		.uleb128 0xc
 676 02cf 723600   		.ascii	"r6\000"
ARM GAS  /tmp/ccGus0PV.s 			page 13


 677 02d2 07       		.byte	0x7
 678 02d3 1A01     		.2byte	0x11a
 679 02d5 98020000 		.4byte	0x298
 680 02d9 02       		.byte	0x2
 681 02da 23       		.byte	0x23
 682 02db 08       		.uleb128 0x8
 683 02dc 0C       		.uleb128 0xc
 684 02dd 723700   		.ascii	"r7\000"
 685 02e0 07       		.byte	0x7
 686 02e1 1B01     		.2byte	0x11b
 687 02e3 98020000 		.4byte	0x298
 688 02e7 02       		.byte	0x2
 689 02e8 23       		.byte	0x23
 690 02e9 0C       		.uleb128 0xc
 691 02ea 0C       		.uleb128 0xc
 692 02eb 723800   		.ascii	"r8\000"
 693 02ee 07       		.byte	0x7
 694 02ef 1C01     		.2byte	0x11c
 695 02f1 98020000 		.4byte	0x298
 696 02f5 02       		.byte	0x2
 697 02f6 23       		.byte	0x23
 698 02f7 10       		.uleb128 0x10
 699 02f8 0C       		.uleb128 0xc
 700 02f9 723900   		.ascii	"r9\000"
 701 02fc 07       		.byte	0x7
 702 02fd 1D01     		.2byte	0x11d
 703 02ff 98020000 		.4byte	0x298
 704 0303 02       		.byte	0x2
 705 0304 23       		.byte	0x23
 706 0305 14       		.uleb128 0x14
 707 0306 0C       		.uleb128 0xc
 708 0307 72313000 		.ascii	"r10\000"
 709 030b 07       		.byte	0x7
 710 030c 1E01     		.2byte	0x11e
 711 030e 98020000 		.4byte	0x298
 712 0312 02       		.byte	0x2
 713 0313 23       		.byte	0x23
 714 0314 18       		.uleb128 0x18
 715 0315 0C       		.uleb128 0xc
 716 0316 72313100 		.ascii	"r11\000"
 717 031a 07       		.byte	0x7
 718 031b 1F01     		.2byte	0x11f
 719 031d 98020000 		.4byte	0x298
 720 0321 02       		.byte	0x2
 721 0322 23       		.byte	0x23
 722 0323 1C       		.uleb128 0x1c
 723 0324 0C       		.uleb128 0xc
 724 0325 6C7200   		.ascii	"lr\000"
 725 0328 07       		.byte	0x7
 726 0329 2001     		.2byte	0x120
 727 032b 98020000 		.4byte	0x298
 728 032f 02       		.byte	0x2
 729 0330 23       		.byte	0x23
 730 0331 20       		.uleb128 0x20
 731 0332 00       		.byte	0
 732 0333 0B       		.uleb128 0xb
 733 0334 D9040000 		.4byte	.LASF48
ARM GAS  /tmp/ccGus0PV.s 			page 14


 734 0338 04       		.byte	0x4
 735 0339 07       		.byte	0x7
 736 033a 2A01     		.2byte	0x12a
 737 033c 50030000 		.4byte	0x350
 738 0340 0C       		.uleb128 0xc
 739 0341 72313300 		.ascii	"r13\000"
 740 0345 07       		.byte	0x7
 741 0346 2B01     		.2byte	0x12b
 742 0348 50030000 		.4byte	0x350
 743 034c 02       		.byte	0x2
 744 034d 23       		.byte	0x23
 745 034e 00       		.uleb128 0
 746 034f 00       		.byte	0
 747 0350 09       		.uleb128 0x9
 748 0351 04       		.byte	0x4
 749 0352 A5020000 		.4byte	0x2a5
 750 0356 0D       		.uleb128 0xd
 751 0357 86000000 		.4byte	0x86
 752 035b 04       		.uleb128 0x4
 753 035c 04       		.byte	0x4
 754 035d 07       		.byte	0x7
 755 035e B6020000 		.4byte	.LASF49
 756 0362 0D       		.uleb128 0xd
 757 0363 05010000 		.4byte	0x105
 758 0367 05       		.uleb128 0x5
 759 0368 CC020000 		.4byte	.LASF50
 760 036c 10       		.byte	0x10
 761 036d 08       		.byte	0x8
 762 036e 25       		.byte	0x25
 763 036f 9E030000 		.4byte	0x39e
 764 0373 06       		.uleb128 0x6
 765 0374 BF000000 		.4byte	.LASF51
 766 0378 08       		.byte	0x8
 767 0379 26       		.byte	0x26
 768 037a 6B020000 		.4byte	0x26b
 769 037e 02       		.byte	0x2
 770 037f 23       		.byte	0x23
 771 0380 00       		.uleb128 0
 772 0381 06       		.uleb128 0x6
 773 0382 9B050000 		.4byte	.LASF52
 774 0386 08       		.byte	0x8
 775 0387 28       		.byte	0x28
 776 0388 65020000 		.4byte	0x265
 777 038c 02       		.byte	0x2
 778 038d 23       		.byte	0x23
 779 038e 08       		.uleb128 0x8
 780 038f 06       		.uleb128 0x6
 781 0390 AB040000 		.4byte	.LASF53
 782 0394 08       		.byte	0x8
 783 0395 2A       		.byte	0x2a
 784 0396 9E030000 		.4byte	0x39e
 785 039a 02       		.byte	0x2
 786 039b 23       		.byte	0x23
 787 039c 0C       		.uleb128 0xc
 788 039d 00       		.byte	0
 789 039e 09       		.uleb128 0x9
 790 039f 04       		.byte	0x4
ARM GAS  /tmp/ccGus0PV.s 			page 15


 791 03a0 67030000 		.4byte	0x367
 792 03a4 03       		.uleb128 0x3
 793 03a5 CC020000 		.4byte	.LASF50
 794 03a9 08       		.byte	0x8
 795 03aa 2C       		.byte	0x2c
 796 03ab 67030000 		.4byte	0x367
 797 03af 03       		.uleb128 0x3
 798 03b0 6B050000 		.4byte	.LASF54
 799 03b4 09       		.byte	0x9
 800 03b5 25       		.byte	0x25
 801 03b6 BA030000 		.4byte	0x3ba
 802 03ba 05       		.uleb128 0x5
 803 03bb 6B050000 		.4byte	.LASF54
 804 03bf 10       		.byte	0x10
 805 03c0 09       		.byte	0x9
 806 03c1 2A       		.byte	0x2a
 807 03c2 FF030000 		.4byte	0x3ff
 808 03c6 06       		.uleb128 0x6
 809 03c7 0F040000 		.4byte	.LASF55
 810 03cb 09       		.byte	0x9
 811 03cc 2B       		.byte	0x2b
 812 03cd FF030000 		.4byte	0x3ff
 813 03d1 02       		.byte	0x2
 814 03d2 23       		.byte	0x23
 815 03d3 00       		.uleb128 0
 816 03d4 06       		.uleb128 0x6
 817 03d5 BE030000 		.4byte	.LASF56
 818 03d9 09       		.byte	0x9
 819 03da 2E       		.byte	0x2e
 820 03db 65020000 		.4byte	0x265
 821 03df 02       		.byte	0x2
 822 03e0 23       		.byte	0x23
 823 03e1 04       		.uleb128 0x4
 824 03e2 06       		.uleb128 0x6
 825 03e3 02030000 		.4byte	.LASF57
 826 03e7 09       		.byte	0x9
 827 03e8 30       		.byte	0x30
 828 03e9 EF000000 		.4byte	0xef
 829 03ed 02       		.byte	0x2
 830 03ee 23       		.byte	0x23
 831 03ef 08       		.uleb128 0x8
 832 03f0 06       		.uleb128 0x6
 833 03f1 CA030000 		.4byte	.LASF58
 834 03f5 09       		.byte	0x9
 835 03f6 33       		.byte	0x33
 836 03f7 FA000000 		.4byte	0xfa
 837 03fb 02       		.byte	0x2
 838 03fc 23       		.byte	0x23
 839 03fd 0C       		.uleb128 0xc
 840 03fe 00       		.byte	0
 841 03ff 09       		.uleb128 0x9
 842 0400 04       		.byte	0x4
 843 0401 AF030000 		.4byte	0x3af
 844 0405 05       		.uleb128 0x5
 845 0406 62010000 		.4byte	.LASF59
 846 040a 04       		.byte	0x4
 847 040b 09       		.byte	0x9
ARM GAS  /tmp/ccGus0PV.s 			page 16


 848 040c 3A       		.byte	0x3a
 849 040d 20040000 		.4byte	0x420
 850 0411 06       		.uleb128 0x6
 851 0412 1D050000 		.4byte	.LASF60
 852 0416 09       		.byte	0x9
 853 0417 3B       		.byte	0x3b
 854 0418 FF030000 		.4byte	0x3ff
 855 041c 02       		.byte	0x2
 856 041d 23       		.byte	0x23
 857 041e 00       		.uleb128 0
 858 041f 00       		.byte	0
 859 0420 03       		.uleb128 0x3
 860 0421 62010000 		.4byte	.LASF59
 861 0425 09       		.byte	0x9
 862 0426 3E       		.byte	0x3e
 863 0427 05040000 		.4byte	0x405
 864 042b 0E       		.uleb128 0xe
 865 042c 04       		.byte	0x4
 866 042d 06       		.byte	0x6
 867 042e 8F       		.byte	0x8f
 868 042f 60040000 		.4byte	0x460
 869 0433 0F       		.uleb128 0xf
 870 0434 07000000 		.4byte	.LASF61
 871 0438 06       		.byte	0x6
 872 0439 96       		.byte	0x96
 873 043a E4000000 		.4byte	0xe4
 874 043e 0F       		.uleb128 0xf
 875 043f 66000000 		.4byte	.LASF62
 876 0443 06       		.byte	0x6
 877 0444 9D       		.byte	0x9d
 878 0445 E4000000 		.4byte	0xe4
 879 0449 0F       		.uleb128 0xf
 880 044a 79050000 		.4byte	.LASF63
 881 044e 06       		.byte	0x6
 882 044f A4       		.byte	0xa4
 883 0450 A3020000 		.4byte	0x2a3
 884 0454 0F       		.uleb128 0xf
 885 0455 F9030000 		.4byte	.LASF64
 886 0459 06       		.byte	0x6
 887 045a AB       		.byte	0xab
 888 045b EF000000 		.4byte	0xef
 889 045f 00       		.byte	0
 890 0460 09       		.uleb128 0x9
 891 0461 04       		.byte	0x4
 892 0462 66040000 		.4byte	0x466
 893 0466 10       		.uleb128 0x10
 894 0467 6B040000 		.4byte	0x46b
 895 046b 04       		.uleb128 0x4
 896 046c 01       		.byte	0x1
 897 046d 08       		.byte	0x8
 898 046e 99040000 		.4byte	.LASF65
 899 0472 09       		.uleb128 0x9
 900 0473 04       		.byte	0x4
 901 0474 A4030000 		.4byte	0x3a4
 902 0478 09       		.uleb128 0x9
 903 0479 04       		.byte	0x4
 904 047a 7E040000 		.4byte	0x47e
ARM GAS  /tmp/ccGus0PV.s 			page 17


 905 047e 11       		.uleb128 0x11
 906 047f 01       		.byte	0x1
 907 0480 E4000000 		.4byte	0xe4
 908 0484 8E040000 		.4byte	0x48e
 909 0488 12       		.uleb128 0x12
 910 0489 A3020000 		.4byte	0x2a3
 911 048d 00       		.byte	0
 912 048e 03       		.uleb128 0x3
 913 048f 74020000 		.4byte	.LASF66
 914 0493 0A       		.byte	0xa
 915 0494 30       		.byte	0x30
 916 0495 99040000 		.4byte	0x499
 917 0499 05       		.uleb128 0x5
 918 049a 74020000 		.4byte	.LASF66
 919 049e 24       		.byte	0x24
 920 049f 0A       		.byte	0xa
 921 04a0 3E       		.byte	0x3e
 922 04a1 16050000 		.4byte	0x516
 923 04a5 06       		.uleb128 0x6
 924 04a6 89000000 		.4byte	.LASF67
 925 04aa 0A       		.byte	0xa
 926 04ab 3F       		.byte	0x3f
 927 04ac 6B020000 		.4byte	0x26b
 928 04b0 02       		.byte	0x2
 929 04b1 23       		.byte	0x23
 930 04b2 00       		.uleb128 0
 931 04b3 06       		.uleb128 0x6
 932 04b4 66040000 		.4byte	.LASF68
 933 04b8 0A       		.byte	0xa
 934 04b9 40       		.byte	0x40
 935 04ba 30000000 		.4byte	0x30
 936 04be 02       		.byte	0x2
 937 04bf 23       		.byte	0x23
 938 04c0 08       		.uleb128 0x8
 939 04c1 06       		.uleb128 0x6
 940 04c2 12010000 		.4byte	.LASF69
 941 04c6 0A       		.byte	0xa
 942 04c7 41       		.byte	0x41
 943 04c8 39050000 		.4byte	0x539
 944 04cc 02       		.byte	0x2
 945 04cd 23       		.byte	0x23
 946 04ce 0C       		.uleb128 0xc
 947 04cf 06       		.uleb128 0x6
 948 04d0 10050000 		.4byte	.LASF70
 949 04d4 0A       		.byte	0xa
 950 04d5 42       		.byte	0x42
 951 04d6 39050000 		.4byte	0x539
 952 04da 02       		.byte	0x2
 953 04db 23       		.byte	0x23
 954 04dc 10       		.uleb128 0x10
 955 04dd 06       		.uleb128 0x6
 956 04de 1B010000 		.4byte	.LASF71
 957 04e2 0A       		.byte	0xa
 958 04e3 44       		.byte	0x44
 959 04e4 39050000 		.4byte	0x539
 960 04e8 02       		.byte	0x2
 961 04e9 23       		.byte	0x23
ARM GAS  /tmp/ccGus0PV.s 			page 18


 962 04ea 14       		.uleb128 0x14
 963 04eb 06       		.uleb128 0x6
 964 04ec 9A030000 		.4byte	.LASF72
 965 04f0 0A       		.byte	0xa
 966 04f1 45       		.byte	0x45
 967 04f2 39050000 		.4byte	0x539
 968 04f6 02       		.byte	0x2
 969 04f7 23       		.byte	0x23
 970 04f8 18       		.uleb128 0x18
 971 04f9 06       		.uleb128 0x6
 972 04fa 41050000 		.4byte	.LASF73
 973 04fe 0A       		.byte	0xa
 974 04ff 46       		.byte	0x46
 975 0500 16050000 		.4byte	0x516
 976 0504 02       		.byte	0x2
 977 0505 23       		.byte	0x23
 978 0506 1C       		.uleb128 0x1c
 979 0507 06       		.uleb128 0x6
 980 0508 8F050000 		.4byte	.LASF74
 981 050c 0A       		.byte	0xa
 982 050d 47       		.byte	0x47
 983 050e A3020000 		.4byte	0x2a3
 984 0512 02       		.byte	0x2
 985 0513 23       		.byte	0x23
 986 0514 20       		.uleb128 0x20
 987 0515 00       		.byte	0
 988 0516 03       		.uleb128 0x3
 989 0517 6A020000 		.4byte	.LASF75
 990 051b 0A       		.byte	0xa
 991 051c 33       		.byte	0x33
 992 051d 21050000 		.4byte	0x521
 993 0521 09       		.uleb128 0x9
 994 0522 04       		.byte	0x4
 995 0523 27050000 		.4byte	0x527
 996 0527 13       		.uleb128 0x13
 997 0528 01       		.byte	0x1
 998 0529 33050000 		.4byte	0x533
 999 052d 12       		.uleb128 0x12
 1000 052e 33050000 		.4byte	0x533
 1001 0532 00       		.byte	0
 1002 0533 09       		.uleb128 0x9
 1003 0534 04       		.byte	0x4
 1004 0535 8E040000 		.4byte	0x48e
 1005 0539 09       		.uleb128 0x9
 1006 053a 04       		.byte	0x4
 1007 053b 49000000 		.4byte	0x49
 1008 053f 03       		.uleb128 0x3
 1009 0540 59020000 		.4byte	.LASF76
 1010 0544 0A       		.byte	0xa
 1011 0545 7B       		.byte	0x7b
 1012 0546 8E040000 		.4byte	0x48e
 1013 054a 03       		.uleb128 0x3
 1014 054b 1E000000 		.4byte	.LASF77
 1015 054f 0A       		.byte	0xa
 1016 0550 EE       		.byte	0xee
 1017 0551 8E040000 		.4byte	0x48e
 1018 0555 11       		.uleb128 0x11
ARM GAS  /tmp/ccGus0PV.s 			page 19


 1019 0556 01       		.byte	0x1
 1020 0557 30000000 		.4byte	0x30
 1021 055b 6F050000 		.4byte	0x56f
 1022 055f 12       		.uleb128 0x12
 1023 0560 A3020000 		.4byte	0x2a3
 1024 0564 12       		.uleb128 0x12
 1025 0565 6F050000 		.4byte	0x56f
 1026 0569 12       		.uleb128 0x12
 1027 056a 30000000 		.4byte	0x30
 1028 056e 00       		.byte	0
 1029 056f 09       		.uleb128 0x9
 1030 0570 04       		.byte	0x4
 1031 0571 75050000 		.4byte	0x575
 1032 0575 10       		.uleb128 0x10
 1033 0576 49000000 		.4byte	0x49
 1034 057a 09       		.uleb128 0x9
 1035 057b 04       		.byte	0x4
 1036 057c 55050000 		.4byte	0x555
 1037 0580 11       		.uleb128 0x11
 1038 0581 01       		.byte	0x1
 1039 0582 30000000 		.4byte	0x30
 1040 0586 9A050000 		.4byte	0x59a
 1041 058a 12       		.uleb128 0x12
 1042 058b A3020000 		.4byte	0x2a3
 1043 058f 12       		.uleb128 0x12
 1044 0590 39050000 		.4byte	0x539
 1045 0594 12       		.uleb128 0x12
 1046 0595 30000000 		.4byte	0x30
 1047 0599 00       		.byte	0
 1048 059a 09       		.uleb128 0x9
 1049 059b 04       		.byte	0x4
 1050 059c 80050000 		.4byte	0x580
 1051 05a0 11       		.uleb128 0x11
 1052 05a1 01       		.byte	0x1
 1053 05a2 E4000000 		.4byte	0xe4
 1054 05a6 B5050000 		.4byte	0x5b5
 1055 05aa 12       		.uleb128 0x12
 1056 05ab A3020000 		.4byte	0x2a3
 1057 05af 12       		.uleb128 0x12
 1058 05b0 49000000 		.4byte	0x49
 1059 05b4 00       		.byte	0
 1060 05b5 09       		.uleb128 0x9
 1061 05b6 04       		.byte	0x4
 1062 05b7 A0050000 		.4byte	0x5a0
 1063 05bb 0D       		.uleb128 0xd
 1064 05bc 62000000 		.4byte	0x62
 1065 05c0 0D       		.uleb128 0xd
 1066 05c1 74000000 		.4byte	0x74
 1067 05c5 14       		.uleb128 0x14
 1068 05c6 1C       		.byte	0x1c
 1069 05c7 0B       		.byte	0xb
 1070 05c8 2905     		.2byte	0x529
 1071 05ca 9F060000 		.4byte	0x69f
 1072 05ce 0C       		.uleb128 0xc
 1073 05cf 535200   		.ascii	"SR\000"
 1074 05d2 0B       		.byte	0xb
 1075 05d3 2B05     		.2byte	0x52b
ARM GAS  /tmp/ccGus0PV.s 			page 20


 1076 05d5 BB050000 		.4byte	0x5bb
 1077 05d9 02       		.byte	0x2
 1078 05da 23       		.byte	0x23
 1079 05db 00       		.uleb128 0
 1080 05dc 15       		.uleb128 0x15
 1081 05dd 4F030000 		.4byte	.LASF78
 1082 05e1 0B       		.byte	0xb
 1083 05e2 2C05     		.2byte	0x52c
 1084 05e4 62000000 		.4byte	0x62
 1085 05e8 02       		.byte	0x2
 1086 05e9 23       		.byte	0x23
 1087 05ea 02       		.uleb128 0x2
 1088 05eb 0C       		.uleb128 0xc
 1089 05ec 445200   		.ascii	"DR\000"
 1090 05ef 0B       		.byte	0xb
 1091 05f0 2D05     		.2byte	0x52d
 1092 05f2 BB050000 		.4byte	0x5bb
 1093 05f6 02       		.byte	0x2
 1094 05f7 23       		.byte	0x23
 1095 05f8 04       		.uleb128 0x4
 1096 05f9 15       		.uleb128 0x15
 1097 05fa 59030000 		.4byte	.LASF79
 1098 05fe 0B       		.byte	0xb
 1099 05ff 2E05     		.2byte	0x52e
 1100 0601 62000000 		.4byte	0x62
 1101 0605 02       		.byte	0x2
 1102 0606 23       		.byte	0x23
 1103 0607 06       		.uleb128 0x6
 1104 0608 0C       		.uleb128 0xc
 1105 0609 42525200 		.ascii	"BRR\000"
 1106 060d 0B       		.byte	0xb
 1107 060e 2F05     		.2byte	0x52f
 1108 0610 BB050000 		.4byte	0x5bb
 1109 0614 02       		.byte	0x2
 1110 0615 23       		.byte	0x23
 1111 0616 08       		.uleb128 0x8
 1112 0617 15       		.uleb128 0x15
 1113 0618 63030000 		.4byte	.LASF80
 1114 061c 0B       		.byte	0xb
 1115 061d 3005     		.2byte	0x530
 1116 061f 62000000 		.4byte	0x62
 1117 0623 02       		.byte	0x2
 1118 0624 23       		.byte	0x23
 1119 0625 0A       		.uleb128 0xa
 1120 0626 0C       		.uleb128 0xc
 1121 0627 43523100 		.ascii	"CR1\000"
 1122 062b 0B       		.byte	0xb
 1123 062c 3105     		.2byte	0x531
 1124 062e BB050000 		.4byte	0x5bb
 1125 0632 02       		.byte	0x2
 1126 0633 23       		.byte	0x23
 1127 0634 0C       		.uleb128 0xc
 1128 0635 15       		.uleb128 0x15
 1129 0636 6D030000 		.4byte	.LASF81
 1130 063a 0B       		.byte	0xb
 1131 063b 3205     		.2byte	0x532
 1132 063d 62000000 		.4byte	0x62
ARM GAS  /tmp/ccGus0PV.s 			page 21


 1133 0641 02       		.byte	0x2
 1134 0642 23       		.byte	0x23
 1135 0643 0E       		.uleb128 0xe
 1136 0644 0C       		.uleb128 0xc
 1137 0645 43523200 		.ascii	"CR2\000"
 1138 0649 0B       		.byte	0xb
 1139 064a 3305     		.2byte	0x533
 1140 064c BB050000 		.4byte	0x5bb
 1141 0650 02       		.byte	0x2
 1142 0651 23       		.byte	0x23
 1143 0652 10       		.uleb128 0x10
 1144 0653 15       		.uleb128 0x15
 1145 0654 77030000 		.4byte	.LASF82
 1146 0658 0B       		.byte	0xb
 1147 0659 3405     		.2byte	0x534
 1148 065b 62000000 		.4byte	0x62
 1149 065f 02       		.byte	0x2
 1150 0660 23       		.byte	0x23
 1151 0661 12       		.uleb128 0x12
 1152 0662 0C       		.uleb128 0xc
 1153 0663 43523300 		.ascii	"CR3\000"
 1154 0667 0B       		.byte	0xb
 1155 0668 3505     		.2byte	0x535
 1156 066a BB050000 		.4byte	0x5bb
 1157 066e 02       		.byte	0x2
 1158 066f 23       		.byte	0x23
 1159 0670 14       		.uleb128 0x14
 1160 0671 15       		.uleb128 0x15
 1161 0672 53040000 		.4byte	.LASF83
 1162 0676 0B       		.byte	0xb
 1163 0677 3605     		.2byte	0x536
 1164 0679 62000000 		.4byte	0x62
 1165 067d 02       		.byte	0x2
 1166 067e 23       		.byte	0x23
 1167 067f 16       		.uleb128 0x16
 1168 0680 15       		.uleb128 0x15
 1169 0681 B2000000 		.4byte	.LASF84
 1170 0685 0B       		.byte	0xb
 1171 0686 3705     		.2byte	0x537
 1172 0688 BB050000 		.4byte	0x5bb
 1173 068c 02       		.byte	0x2
 1174 068d 23       		.byte	0x23
 1175 068e 18       		.uleb128 0x18
 1176 068f 15       		.uleb128 0x15
 1177 0690 88030000 		.4byte	.LASF85
 1178 0694 0B       		.byte	0xb
 1179 0695 3805     		.2byte	0x538
 1180 0697 62000000 		.4byte	0x62
 1181 069b 02       		.byte	0x2
 1182 069c 23       		.byte	0x23
 1183 069d 1A       		.uleb128 0x1a
 1184 069e 00       		.byte	0
 1185 069f 16       		.uleb128 0x16
 1186 06a0 24020000 		.4byte	.LASF86
 1187 06a4 0B       		.byte	0xb
 1188 06a5 3905     		.2byte	0x539
 1189 06a7 C5050000 		.4byte	0x5c5
ARM GAS  /tmp/ccGus0PV.s 			page 22


 1190 06ab 11       		.uleb128 0x11
 1191 06ac 01       		.byte	0x1
 1192 06ad E4000000 		.4byte	0xe4
 1193 06b1 C5060000 		.4byte	0x6c5
 1194 06b5 12       		.uleb128 0x12
 1195 06b6 A3020000 		.4byte	0x2a3
 1196 06ba 12       		.uleb128 0x12
 1197 06bb 49000000 		.4byte	0x49
 1198 06bf 12       		.uleb128 0x12
 1199 06c0 05010000 		.4byte	0x105
 1200 06c4 00       		.byte	0
 1201 06c5 09       		.uleb128 0x9
 1202 06c6 04       		.byte	0x4
 1203 06c7 AB060000 		.4byte	0x6ab
 1204 06cb 11       		.uleb128 0x11
 1205 06cc 01       		.byte	0x1
 1206 06cd E4000000 		.4byte	0xe4
 1207 06d1 E0060000 		.4byte	0x6e0
 1208 06d5 12       		.uleb128 0x12
 1209 06d6 A3020000 		.4byte	0x2a3
 1210 06da 12       		.uleb128 0x12
 1211 06db 05010000 		.4byte	0x105
 1212 06df 00       		.byte	0
 1213 06e0 09       		.uleb128 0x9
 1214 06e1 04       		.byte	0x4
 1215 06e2 CB060000 		.4byte	0x6cb
 1216 06e6 11       		.uleb128 0x11
 1217 06e7 01       		.byte	0x1
 1218 06e8 30000000 		.4byte	0x30
 1219 06ec 05070000 		.4byte	0x705
 1220 06f0 12       		.uleb128 0x12
 1221 06f1 A3020000 		.4byte	0x2a3
 1222 06f5 12       		.uleb128 0x12
 1223 06f6 6F050000 		.4byte	0x56f
 1224 06fa 12       		.uleb128 0x12
 1225 06fb 30000000 		.4byte	0x30
 1226 06ff 12       		.uleb128 0x12
 1227 0700 05010000 		.4byte	0x105
 1228 0704 00       		.byte	0
 1229 0705 09       		.uleb128 0x9
 1230 0706 04       		.byte	0x4
 1231 0707 E6060000 		.4byte	0x6e6
 1232 070b 11       		.uleb128 0x11
 1233 070c 01       		.byte	0x1
 1234 070d 30000000 		.4byte	0x30
 1235 0711 2A070000 		.4byte	0x72a
 1236 0715 12       		.uleb128 0x12
 1237 0716 A3020000 		.4byte	0x2a3
 1238 071a 12       		.uleb128 0x12
 1239 071b 39050000 		.4byte	0x539
 1240 071f 12       		.uleb128 0x12
 1241 0720 30000000 		.4byte	0x30
 1242 0724 12       		.uleb128 0x12
 1243 0725 05010000 		.4byte	0x105
 1244 0729 00       		.byte	0
 1245 072a 09       		.uleb128 0x9
 1246 072b 04       		.byte	0x4
ARM GAS  /tmp/ccGus0PV.s 			page 23


 1247 072c 0B070000 		.4byte	0x70b
 1248 0730 08       		.uleb128 0x8
 1249 0731 04       		.byte	0x4
 1250 0732 0C       		.byte	0xc
 1251 0733 96       		.byte	0x96
 1252 0734 55070000 		.4byte	0x755
 1253 0738 07       		.uleb128 0x7
 1254 0739 73657400 		.ascii	"set\000"
 1255 073d 0C       		.byte	0xc
 1256 073e 97       		.byte	0x97
 1257 073f 62000000 		.4byte	0x62
 1258 0743 02       		.byte	0x2
 1259 0744 23       		.byte	0x23
 1260 0745 00       		.uleb128 0
 1261 0746 06       		.uleb128 0x6
 1262 0747 C6020000 		.4byte	.LASF87
 1263 074b 0C       		.byte	0xc
 1264 074c 98       		.byte	0x98
 1265 074d 62000000 		.4byte	0x62
 1266 0751 02       		.byte	0x2
 1267 0752 23       		.byte	0x23
 1268 0753 02       		.uleb128 0x2
 1269 0754 00       		.byte	0
 1270 0755 0E       		.uleb128 0xe
 1271 0756 04       		.byte	0x4
 1272 0757 0C       		.byte	0xc
 1273 0758 94       		.byte	0x94
 1274 0759 70070000 		.4byte	0x770
 1275 075d 17       		.uleb128 0x17
 1276 075e 5700     		.ascii	"W\000"
 1277 0760 0C       		.byte	0xc
 1278 0761 95       		.byte	0x95
 1279 0762 86000000 		.4byte	0x86
 1280 0766 17       		.uleb128 0x17
 1281 0767 4800     		.ascii	"H\000"
 1282 0769 0C       		.byte	0xc
 1283 076a 99       		.byte	0x99
 1284 076b 30070000 		.4byte	0x730
 1285 076f 00       		.byte	0
 1286 0770 08       		.uleb128 0x8
 1287 0771 28       		.byte	0x28
 1288 0772 0C       		.byte	0xc
 1289 0773 8C       		.byte	0x8c
 1290 0774 05080000 		.4byte	0x805
 1291 0778 06       		.uleb128 0x6
 1292 0779 43000000 		.4byte	.LASF88
 1293 077d 0C       		.byte	0xc
 1294 077e 8E       		.byte	0x8e
 1295 077f 56030000 		.4byte	0x356
 1296 0783 02       		.byte	0x2
 1297 0784 23       		.byte	0x23
 1298 0785 00       		.uleb128 0
 1299 0786 06       		.uleb128 0x6
 1300 0787 2A000000 		.4byte	.LASF89
 1301 078b 0C       		.byte	0xc
 1302 078c 8F       		.byte	0x8f
 1303 078d 56030000 		.4byte	0x356
ARM GAS  /tmp/ccGus0PV.s 			page 24


 1304 0791 02       		.byte	0x2
 1305 0792 23       		.byte	0x23
 1306 0793 04       		.uleb128 0x4
 1307 0794 06       		.uleb128 0x6
 1308 0795 51010000 		.4byte	.LASF90
 1309 0799 0C       		.byte	0xc
 1310 079a 90       		.byte	0x90
 1311 079b 56030000 		.4byte	0x356
 1312 079f 02       		.byte	0x2
 1313 07a0 23       		.byte	0x23
 1314 07a1 08       		.uleb128 0x8
 1315 07a2 06       		.uleb128 0x6
 1316 07a3 60000000 		.4byte	.LASF91
 1317 07a7 0C       		.byte	0xc
 1318 07a8 91       		.byte	0x91
 1319 07a9 56030000 		.4byte	0x356
 1320 07ad 02       		.byte	0x2
 1321 07ae 23       		.byte	0x23
 1322 07af 0C       		.uleb128 0xc
 1323 07b0 07       		.uleb128 0x7
 1324 07b1 49445200 		.ascii	"IDR\000"
 1325 07b5 0C       		.byte	0xc
 1326 07b6 92       		.byte	0x92
 1327 07b7 56030000 		.4byte	0x356
 1328 07bb 02       		.byte	0x2
 1329 07bc 23       		.byte	0x23
 1330 07bd 10       		.uleb128 0x10
 1331 07be 07       		.uleb128 0x7
 1332 07bf 4F445200 		.ascii	"ODR\000"
 1333 07c3 0C       		.byte	0xc
 1334 07c4 93       		.byte	0x93
 1335 07c5 56030000 		.4byte	0x356
 1336 07c9 02       		.byte	0x2
 1337 07ca 23       		.byte	0x23
 1338 07cb 14       		.uleb128 0x14
 1339 07cc 06       		.uleb128 0x6
 1340 07cd 25050000 		.4byte	.LASF92
 1341 07d1 0C       		.byte	0xc
 1342 07d2 9A       		.byte	0x9a
 1343 07d3 05080000 		.4byte	0x805
 1344 07d7 02       		.byte	0x2
 1345 07d8 23       		.byte	0x23
 1346 07d9 18       		.uleb128 0x18
 1347 07da 06       		.uleb128 0x6
 1348 07db 2D040000 		.4byte	.LASF93
 1349 07df 0C       		.byte	0xc
 1350 07e0 9B       		.byte	0x9b
 1351 07e1 56030000 		.4byte	0x356
 1352 07e5 02       		.byte	0x2
 1353 07e6 23       		.byte	0x23
 1354 07e7 1C       		.uleb128 0x1c
 1355 07e8 06       		.uleb128 0x6
 1356 07e9 30030000 		.4byte	.LASF94
 1357 07ed 0C       		.byte	0xc
 1358 07ee 9C       		.byte	0x9c
 1359 07ef 56030000 		.4byte	0x356
 1360 07f3 02       		.byte	0x2
ARM GAS  /tmp/ccGus0PV.s 			page 25


 1361 07f4 23       		.byte	0x23
 1362 07f5 20       		.uleb128 0x20
 1363 07f6 06       		.uleb128 0x6
 1364 07f7 2B030000 		.4byte	.LASF95
 1365 07fb 0C       		.byte	0xc
 1366 07fc 9D       		.byte	0x9d
 1367 07fd 56030000 		.4byte	0x356
 1368 0801 02       		.byte	0x2
 1369 0802 23       		.byte	0x23
 1370 0803 24       		.uleb128 0x24
 1371 0804 00       		.byte	0
 1372 0805 0D       		.uleb128 0xd
 1373 0806 55070000 		.4byte	0x755
 1374 080a 03       		.uleb128 0x3
 1375 080b B3010000 		.4byte	.LASF96
 1376 080f 0C       		.byte	0xc
 1377 0810 9E       		.byte	0x9e
 1378 0811 70070000 		.4byte	0x770
 1379 0815 03       		.uleb128 0x3
 1380 0816 36000000 		.4byte	.LASF97
 1381 081a 0C       		.byte	0xc
 1382 081b E8       		.byte	0xe8
 1383 081c 86000000 		.4byte	0x86
 1384 0820 18       		.uleb128 0x18
 1385 0821 01       		.byte	0x1
 1386 0822 0D       		.byte	0xd
 1387 0823 5D       		.byte	0x5d
 1388 0824 3B080000 		.4byte	0x83b
 1389 0828 19       		.uleb128 0x19
 1390 0829 49040000 		.4byte	.LASF98
 1391 082d 00       		.sleb128 0
 1392 082e 19       		.uleb128 0x19
 1393 082f 17040000 		.4byte	.LASF99
 1394 0833 01       		.sleb128 1
 1395 0834 19       		.uleb128 0x19
 1396 0835 E8040000 		.4byte	.LASF100
 1397 0839 02       		.sleb128 2
 1398 083a 00       		.byte	0
 1399 083b 03       		.uleb128 0x3
 1400 083c FA040000 		.4byte	.LASF101
 1401 0840 0D       		.byte	0xd
 1402 0841 61       		.byte	0x61
 1403 0842 20080000 		.4byte	0x820
 1404 0846 03       		.uleb128 0x3
 1405 0847 75040000 		.4byte	.LASF102
 1406 084b 0D       		.byte	0xd
 1407 084c 66       		.byte	0x66
 1408 084d 51080000 		.4byte	0x851
 1409 0851 05       		.uleb128 0x5
 1410 0852 75040000 		.4byte	.LASF102
 1411 0856 78       		.byte	0x78
 1412 0857 0D       		.byte	0xd
 1413 0858 80       		.byte	0x80
 1414 0859 CC080000 		.4byte	0x8cc
 1415 085d 07       		.uleb128 0x7
 1416 085e 766D7400 		.ascii	"vmt\000"
 1417 0862 0D       		.byte	0xd
ARM GAS  /tmp/ccGus0PV.s 			page 26


 1418 0863 82       		.byte	0x82
 1419 0864 95090000 		.4byte	0x995
 1420 0868 02       		.byte	0x2
 1421 0869 23       		.byte	0x23
 1422 086a 00       		.uleb128 0
 1423 086b 06       		.uleb128 0x6
 1424 086c CA010000 		.4byte	.LASF103
 1425 0870 0D       		.byte	0xd
 1426 0871 83       		.byte	0x83
 1427 0872 20040000 		.4byte	0x420
 1428 0876 02       		.byte	0x2
 1429 0877 23       		.byte	0x23
 1430 0878 04       		.uleb128 0x4
 1431 0879 06       		.uleb128 0x6
 1432 087a DF000000 		.4byte	.LASF104
 1433 087e 0D       		.byte	0xd
 1434 087f 83       		.byte	0x83
 1435 0880 3B080000 		.4byte	0x83b
 1436 0884 02       		.byte	0x2
 1437 0885 23       		.byte	0x23
 1438 0886 08       		.uleb128 0x8
 1439 0887 06       		.uleb128 0x6
 1440 0888 A1010000 		.4byte	.LASF105
 1441 088c 0D       		.byte	0xd
 1442 088d 83       		.byte	0x83
 1443 088e 3F050000 		.4byte	0x53f
 1444 0892 02       		.byte	0x2
 1445 0893 23       		.byte	0x23
 1446 0894 0C       		.uleb128 0xc
 1447 0895 06       		.uleb128 0x6
 1448 0896 1D020000 		.4byte	.LASF106
 1449 089a 0D       		.byte	0xd
 1450 089b 83       		.byte	0x83
 1451 089c 4A050000 		.4byte	0x54a
 1452 08a0 02       		.byte	0x2
 1453 08a1 23       		.byte	0x23
 1454 08a2 30       		.uleb128 0x30
 1455 08a3 07       		.uleb128 0x7
 1456 08a4 696200   		.ascii	"ib\000"
 1457 08a7 0D       		.byte	0xd
 1458 08a8 83       		.byte	0x83
 1459 08a9 A0090000 		.4byte	0x9a0
 1460 08ad 02       		.byte	0x2
 1461 08ae 23       		.byte	0x23
 1462 08af 54       		.uleb128 0x54
 1463 08b0 07       		.uleb128 0x7
 1464 08b1 6F6200   		.ascii	"ob\000"
 1465 08b4 0D       		.byte	0xd
 1466 08b5 83       		.byte	0x83
 1467 08b6 A0090000 		.4byte	0x9a0
 1468 08ba 02       		.byte	0x2
 1469 08bb 23       		.byte	0x23
 1470 08bc 64       		.uleb128 0x64
 1471 08bd 06       		.uleb128 0x6
 1472 08be 6E010000 		.4byte	.LASF107
 1473 08c2 0D       		.byte	0xd
 1474 08c3 83       		.byte	0x83
ARM GAS  /tmp/ccGus0PV.s 			page 27


 1475 08c4 B0090000 		.4byte	0x9b0
 1476 08c8 02       		.byte	0x2
 1477 08c9 23       		.byte	0x23
 1478 08ca 74       		.uleb128 0x74
 1479 08cb 00       		.byte	0
 1480 08cc 08       		.uleb128 0x8
 1481 08cd 0C       		.byte	0xc
 1482 08ce 0E       		.byte	0xe
 1483 08cf D7       		.byte	0xd7
 1484 08d0 0D090000 		.4byte	0x90d
 1485 08d4 06       		.uleb128 0x6
 1486 08d5 64020000 		.4byte	.LASF108
 1487 08d9 0E       		.byte	0xe
 1488 08da DB       		.byte	0xdb
 1489 08db 86000000 		.4byte	0x86
 1490 08df 02       		.byte	0x2
 1491 08e0 23       		.byte	0x23
 1492 08e1 00       		.uleb128 0
 1493 08e2 07       		.uleb128 0x7
 1494 08e3 63723100 		.ascii	"cr1\000"
 1495 08e7 0E       		.byte	0xe
 1496 08e8 E0       		.byte	0xe0
 1497 08e9 62000000 		.4byte	0x62
 1498 08ed 02       		.byte	0x2
 1499 08ee 23       		.byte	0x23
 1500 08ef 04       		.uleb128 0x4
 1501 08f0 07       		.uleb128 0x7
 1502 08f1 63723200 		.ascii	"cr2\000"
 1503 08f5 0E       		.byte	0xe
 1504 08f6 E4       		.byte	0xe4
 1505 08f7 62000000 		.4byte	0x62
 1506 08fb 02       		.byte	0x2
 1507 08fc 23       		.byte	0x23
 1508 08fd 06       		.uleb128 0x6
 1509 08fe 07       		.uleb128 0x7
 1510 08ff 63723300 		.ascii	"cr3\000"
 1511 0903 0E       		.byte	0xe
 1512 0904 E8       		.byte	0xe8
 1513 0905 62000000 		.4byte	0x62
 1514 0909 02       		.byte	0x2
 1515 090a 23       		.byte	0x23
 1516 090b 08       		.uleb128 0x8
 1517 090c 00       		.byte	0
 1518 090d 03       		.uleb128 0x3
 1519 090e 1E030000 		.4byte	.LASF109
 1520 0912 0E       		.byte	0xe
 1521 0913 E9       		.byte	0xe9
 1522 0914 CC080000 		.4byte	0x8cc
 1523 0918 05       		.uleb128 0x5
 1524 0919 DF020000 		.4byte	.LASF110
 1525 091d 20       		.byte	0x20
 1526 091e 0D       		.byte	0xd
 1527 091f 75       		.byte	0x75
 1528 0920 95090000 		.4byte	0x995
 1529 0924 06       		.uleb128 0x6
 1530 0925 9F020000 		.4byte	.LASF111
 1531 0929 0D       		.byte	0xd
ARM GAS  /tmp/ccGus0PV.s 			page 28


 1532 092a 76       		.byte	0x76
 1533 092b 7A050000 		.4byte	0x57a
 1534 092f 02       		.byte	0x2
 1535 0930 23       		.byte	0x23
 1536 0931 00       		.uleb128 0
 1537 0932 06       		.uleb128 0x6
 1538 0933 94040000 		.4byte	.LASF112
 1539 0937 0D       		.byte	0xd
 1540 0938 76       		.byte	0x76
 1541 0939 9A050000 		.4byte	0x59a
 1542 093d 02       		.byte	0x2
 1543 093e 23       		.byte	0x23
 1544 093f 04       		.uleb128 0x4
 1545 0940 07       		.uleb128 0x7
 1546 0941 70757400 		.ascii	"put\000"
 1547 0945 0D       		.byte	0xd
 1548 0946 76       		.byte	0x76
 1549 0947 B5050000 		.4byte	0x5b5
 1550 094b 02       		.byte	0x2
 1551 094c 23       		.byte	0x23
 1552 094d 08       		.uleb128 0x8
 1553 094e 07       		.uleb128 0x7
 1554 094f 67657400 		.ascii	"get\000"
 1555 0953 0D       		.byte	0xd
 1556 0954 76       		.byte	0x76
 1557 0955 78040000 		.4byte	0x478
 1558 0959 02       		.byte	0x2
 1559 095a 23       		.byte	0x23
 1560 095b 0C       		.uleb128 0xc
 1561 095c 06       		.uleb128 0x6
 1562 095d A5020000 		.4byte	.LASF113
 1563 0961 0D       		.byte	0xd
 1564 0962 76       		.byte	0x76
 1565 0963 C5060000 		.4byte	0x6c5
 1566 0967 02       		.byte	0x2
 1567 0968 23       		.byte	0x23
 1568 0969 10       		.uleb128 0x10
 1569 096a 06       		.uleb128 0x6
 1570 096b C0010000 		.4byte	.LASF114
 1571 096f 0D       		.byte	0xd
 1572 0970 76       		.byte	0x76
 1573 0971 E0060000 		.4byte	0x6e0
 1574 0975 02       		.byte	0x2
 1575 0976 23       		.byte	0x23
 1576 0977 14       		.uleb128 0x14
 1577 0978 06       		.uleb128 0x6
 1578 0979 32020000 		.4byte	.LASF115
 1579 097d 0D       		.byte	0xd
 1580 097e 76       		.byte	0x76
 1581 097f 05070000 		.4byte	0x705
 1582 0983 02       		.byte	0x2
 1583 0984 23       		.byte	0x23
 1584 0985 18       		.uleb128 0x18
 1585 0986 06       		.uleb128 0x6
 1586 0987 83000000 		.4byte	.LASF116
 1587 098b 0D       		.byte	0xd
 1588 098c 76       		.byte	0x76
ARM GAS  /tmp/ccGus0PV.s 			page 29


 1589 098d 2A070000 		.4byte	0x72a
 1590 0991 02       		.byte	0x2
 1591 0992 23       		.byte	0x23
 1592 0993 1C       		.uleb128 0x1c
 1593 0994 00       		.byte	0
 1594 0995 09       		.uleb128 0x9
 1595 0996 04       		.byte	0x4
 1596 0997 9B090000 		.4byte	0x99b
 1597 099b 10       		.uleb128 0x10
 1598 099c 18090000 		.4byte	0x918
 1599 09a0 1A       		.uleb128 0x1a
 1600 09a1 49000000 		.4byte	0x49
 1601 09a5 B0090000 		.4byte	0x9b0
 1602 09a9 1B       		.uleb128 0x1b
 1603 09aa 5B030000 		.4byte	0x35b
 1604 09ae 0F       		.byte	0xf
 1605 09af 00       		.byte	0
 1606 09b0 09       		.uleb128 0x9
 1607 09b1 04       		.byte	0x4
 1608 09b2 9F060000 		.4byte	0x69f
 1609 09b6 09       		.uleb128 0x9
 1610 09b7 04       		.byte	0x4
 1611 09b8 4A050000 		.4byte	0x54a
 1612 09bc 1C       		.uleb128 0x1c
 1613 09bd 80050000 		.4byte	.LASF119
 1614 09c1 01       		.byte	0x1
 1615 09c2 0F       		.byte	0xf
 1616 09c3 18       		.byte	0x18
 1617 09c4 D5090000 		.4byte	0x9d5
 1618 09c8 19       		.uleb128 0x19
 1619 09c9 8A010000 		.4byte	.LASF117
 1620 09cd 00       		.sleb128 0
 1621 09ce 19       		.uleb128 0x19
 1622 09cf BF020000 		.4byte	.LASF118
 1623 09d3 01       		.sleb128 1
 1624 09d4 00       		.byte	0
 1625 09d5 03       		.uleb128 0x3
 1626 09d6 80050000 		.4byte	.LASF119
 1627 09da 0F       		.byte	0xf
 1628 09db 1B       		.byte	0x1b
 1629 09dc BC090000 		.4byte	0x9bc
 1630 09e0 1C       		.uleb128 0x1c
 1631 09e1 15000000 		.4byte	.LASF120
 1632 09e5 01       		.byte	0x1
 1633 09e6 0F       		.byte	0xf
 1634 09e7 1D       		.byte	0x1d
 1635 09e8 0B0A0000 		.4byte	0xa0b
 1636 09ec 19       		.uleb128 0x19
 1637 09ed D2020000 		.4byte	.LASF121
 1638 09f1 00       		.sleb128 0
 1639 09f2 19       		.uleb128 0x19
 1640 09f3 AD000000 		.4byte	.LASF122
 1641 09f7 01       		.sleb128 1
 1642 09f8 19       		.uleb128 0x19
 1643 09f9 31000000 		.4byte	.LASF123
 1644 09fd 02       		.sleb128 2
 1645 09fe 1D       		.uleb128 0x1d
ARM GAS  /tmp/ccGus0PV.s 			page 30


 1646 09ff 6F646400 		.ascii	"odd\000"
 1647 0a03 03       		.sleb128 3
 1648 0a04 19       		.uleb128 0x19
 1649 0a05 E3010000 		.4byte	.LASF124
 1650 0a09 04       		.sleb128 4
 1651 0a0a 00       		.byte	0
 1652 0a0b 03       		.uleb128 0x3
 1653 0a0c 15000000 		.4byte	.LASF120
 1654 0a10 0F       		.byte	0xf
 1655 0a11 23       		.byte	0x23
 1656 0a12 E0090000 		.4byte	0x9e0
 1657 0a16 05       		.uleb128 0x5
 1658 0a17 3A010000 		.4byte	.LASF125
 1659 0a1b 34       		.byte	0x34
 1660 0a1c 0F       		.byte	0xf
 1661 0a1d 25       		.byte	0x25
 1662 0a1e 770A0000 		.4byte	0xa77
 1663 0a22 06       		.uleb128 0x6
 1664 0a23 70040000 		.4byte	.LASF126
 1665 0a27 0F       		.byte	0xf
 1666 0a28 27       		.byte	0x27
 1667 0a29 29000000 		.4byte	0x29
 1668 0a2d 02       		.byte	0x2
 1669 0a2e 23       		.byte	0x23
 1670 0a2f 00       		.uleb128 0
 1671 0a30 06       		.uleb128 0x6
 1672 0a31 4A010000 		.4byte	.LASF127
 1673 0a35 0F       		.byte	0xf
 1674 0a36 28       		.byte	0x28
 1675 0a37 0B0A0000 		.4byte	0xa0b
 1676 0a3b 02       		.byte	0x2
 1677 0a3c 23       		.byte	0x23
 1678 0a3d 04       		.uleb128 0x4
 1679 0a3e 06       		.uleb128 0x6
 1680 0a3f 96050000 		.4byte	.LASF128
 1681 0a43 0F       		.byte	0xf
 1682 0a44 29       		.byte	0x29
 1683 0a45 29000000 		.4byte	0x29
 1684 0a49 02       		.byte	0x2
 1685 0a4a 23       		.byte	0x23
 1686 0a4b 08       		.uleb128 0x8
 1687 0a4c 06       		.uleb128 0x6
 1688 0a4d C5010000 		.4byte	.LASF129
 1689 0a51 0F       		.byte	0xf
 1690 0a52 2A       		.byte	0x2a
 1691 0a53 770A0000 		.4byte	0xa77
 1692 0a57 02       		.byte	0x2
 1693 0a58 23       		.byte	0x23
 1694 0a59 0C       		.uleb128 0xc
 1695 0a5a 06       		.uleb128 0x6
 1696 0a5b 9E040000 		.4byte	.LASF130
 1697 0a5f 0F       		.byte	0xf
 1698 0a60 2B       		.byte	0x2b
 1699 0a61 D5090000 		.4byte	0x9d5
 1700 0a65 02       		.byte	0x2
 1701 0a66 23       		.byte	0x23
 1702 0a67 2C       		.uleb128 0x2c
ARM GAS  /tmp/ccGus0PV.s 			page 31


 1703 0a68 07       		.uleb128 0x7
 1704 0a69 73647000 		.ascii	"sdp\000"
 1705 0a6d 0F       		.byte	0xf
 1706 0a6e 2C       		.byte	0x2c
 1707 0a6f 870A0000 		.4byte	0xa87
 1708 0a73 02       		.byte	0x2
 1709 0a74 23       		.byte	0x23
 1710 0a75 30       		.uleb128 0x30
 1711 0a76 00       		.byte	0
 1712 0a77 1A       		.uleb128 0x1a
 1713 0a78 6B040000 		.4byte	0x46b
 1714 0a7c 870A0000 		.4byte	0xa87
 1715 0a80 1B       		.uleb128 0x1b
 1716 0a81 5B030000 		.4byte	0x35b
 1717 0a85 1F       		.byte	0x1f
 1718 0a86 00       		.byte	0
 1719 0a87 09       		.uleb128 0x9
 1720 0a88 04       		.byte	0x4
 1721 0a89 46080000 		.4byte	0x846
 1722 0a8d 03       		.uleb128 0x3
 1723 0a8e 3A010000 		.4byte	.LASF125
 1724 0a92 0F       		.byte	0xf
 1725 0a93 2D       		.byte	0x2d
 1726 0a94 160A0000 		.4byte	0xa16
 1727 0a98 1C       		.uleb128 0x1c
 1728 0a99 D1000000 		.4byte	.LASF131
 1729 0a9d 01       		.byte	0x1
 1730 0a9e 0F       		.byte	0xf
 1731 0a9f 2F       		.byte	0x2f
 1732 0aa0 B70A0000 		.4byte	0xab7
 1733 0aa4 19       		.uleb128 0x19
 1734 0aa5 1F040000 		.4byte	.LASF132
 1735 0aa9 00       		.sleb128 0
 1736 0aaa 19       		.uleb128 0x19
 1737 0aab 15030000 		.4byte	.LASF133
 1738 0aaf 01       		.sleb128 1
 1739 0ab0 19       		.uleb128 0x19
 1740 0ab1 5D040000 		.4byte	.LASF134
 1741 0ab5 02       		.sleb128 2
 1742 0ab6 00       		.byte	0
 1743 0ab7 03       		.uleb128 0x3
 1744 0ab8 D1000000 		.4byte	.LASF131
 1745 0abc 0F       		.byte	0xf
 1746 0abd 33       		.byte	0x33
 1747 0abe 980A0000 		.4byte	0xa98
 1748 0ac2 1E       		.uleb128 0x1e
 1749 0ac3 01       		.byte	0x1
 1750 0ac4 2A010000 		.4byte	.LASF135
 1751 0ac8 01       		.byte	0x1
 1752 0ac9 17       		.byte	0x17
 1753 0aca 00000000 		.4byte	.LFB118
 1754 0ace 18000000 		.4byte	.LFE118
 1755 0ad2 00000000 		.4byte	.LLST0
 1756 0ad6 01       		.byte	0x1
 1757 0ad7 EB0A0000 		.4byte	0xaeb
 1758 0adb 1F       		.uleb128 0x1f
 1759 0adc 0E000000 		.4byte	.LVL0
ARM GAS  /tmp/ccGus0PV.s 			page 32


 1760 0ae0 9C0C0000 		.4byte	0xc9c
 1761 0ae4 20       		.uleb128 0x20
 1762 0ae5 01       		.byte	0x1
 1763 0ae6 50       		.byte	0x50
 1764 0ae7 01       		.byte	0x1
 1765 0ae8 3A       		.byte	0x3a
 1766 0ae9 00       		.byte	0
 1767 0aea 00       		.byte	0
 1768 0aeb 21       		.uleb128 0x21
 1769 0aec 01       		.byte	0x1
 1770 0aed 0A010000 		.4byte	.LASF136
 1771 0af1 01       		.byte	0x1
 1772 0af2 46       		.byte	0x46
 1773 0af3 00000000 		.4byte	.LFB120
 1774 0af7 10000000 		.4byte	.LFE120
 1775 0afb 02       		.byte	0x2
 1776 0afc 7D       		.byte	0x7d
 1777 0afd 00       		.sleb128 0
 1778 0afe 01       		.byte	0x1
 1779 0aff 180B0000 		.4byte	0xb18
 1780 0b03 22       		.uleb128 0x22
 1781 0b04 08000000 		.4byte	.LVL1
 1782 0b08 01       		.byte	0x1
 1783 0b09 B10C0000 		.4byte	0xcb1
 1784 0b0d 20       		.uleb128 0x20
 1785 0b0e 01       		.byte	0x1
 1786 0b0f 51       		.byte	0x51
 1787 0b10 05       		.byte	0x5
 1788 0b11 03       		.byte	0x3
 1789 0b12 00000000 		.4byte	.LANCHOR0
 1790 0b16 00       		.byte	0
 1791 0b17 00       		.byte	0
 1792 0b18 21       		.uleb128 0x21
 1793 0b19 01       		.byte	0x1
 1794 0b1a AA020000 		.4byte	.LASF137
 1795 0b1e 01       		.byte	0x1
 1796 0b1f 4B       		.byte	0x4b
 1797 0b20 00000000 		.4byte	.LFB121
 1798 0b24 10000000 		.4byte	.LFE121
 1799 0b28 02       		.byte	0x2
 1800 0b29 7D       		.byte	0x7d
 1801 0b2a 00       		.sleb128 0
 1802 0b2b 01       		.byte	0x1
 1803 0b2c 450B0000 		.4byte	0xb45
 1804 0b30 22       		.uleb128 0x22
 1805 0b31 08000000 		.4byte	.LVL2
 1806 0b35 01       		.byte	0x1
 1807 0b36 B10C0000 		.4byte	0xcb1
 1808 0b3a 20       		.uleb128 0x20
 1809 0b3b 01       		.byte	0x1
 1810 0b3c 51       		.byte	0x51
 1811 0b3d 05       		.byte	0x5
 1812 0b3e 03       		.byte	0x3
 1813 0b3f 00000000 		.4byte	.LANCHOR1
 1814 0b43 00       		.byte	0
 1815 0b44 00       		.byte	0
 1816 0b45 21       		.uleb128 0x21
ARM GAS  /tmp/ccGus0PV.s 			page 33


 1817 0b46 01       		.byte	0x1
 1818 0b47 0E000000 		.4byte	.LASF138
 1819 0b4b 01       		.byte	0x1
 1820 0b4c 52       		.byte	0x52
 1821 0b4d 00000000 		.4byte	.LFB122
 1822 0b51 0C000000 		.4byte	.LFE122
 1823 0b55 02       		.byte	0x2
 1824 0b56 7D       		.byte	0x7d
 1825 0b57 00       		.sleb128 0
 1826 0b58 01       		.byte	0x1
 1827 0b59 680B0000 		.4byte	0xb68
 1828 0b5d 23       		.uleb128 0x23
 1829 0b5e 06000000 		.4byte	.LVL3
 1830 0b62 01       		.byte	0x1
 1831 0b63 D60C0000 		.4byte	0xcd6
 1832 0b67 00       		.byte	0
 1833 0b68 24       		.uleb128 0x24
 1834 0b69 01       		.byte	0x1
 1835 0b6a 90010000 		.4byte	.LASF150
 1836 0b6e 01       		.byte	0x1
 1837 0b6f 1F       		.byte	0x1f
 1838 0b70 01       		.byte	0x1
 1839 0b71 00000000 		.4byte	.LFB119
 1840 0b75 54000000 		.4byte	.LFE119
 1841 0b79 20000000 		.4byte	.LLST1
 1842 0b7d 01       		.byte	0x1
 1843 0b7e 160C0000 		.4byte	0xc16
 1844 0b82 25       		.uleb128 0x25
 1845 0b83 F7000000 		.4byte	.LASF151
 1846 0b87 01       		.byte	0x1
 1847 0b88 1F       		.byte	0x1f
 1848 0b89 B70A0000 		.4byte	0xab7
 1849 0b8d 40000000 		.4byte	.LLST2
 1850 0b91 26       		.uleb128 0x26
 1851 0b92 0A000000 		.4byte	.LVL5
 1852 0b96 450B0000 		.4byte	0xb45
 1853 0b9a 27       		.uleb128 0x27
 1854 0b9b 16000000 		.4byte	.LVL6
 1855 0b9f 9C0C0000 		.4byte	0xc9c
 1856 0ba3 AD0B0000 		.4byte	0xbad
 1857 0ba7 20       		.uleb128 0x20
 1858 0ba8 01       		.byte	0x1
 1859 0ba9 50       		.byte	0x50
 1860 0baa 01       		.byte	0x1
 1861 0bab 3A       		.byte	0x3a
 1862 0bac 00       		.byte	0
 1863 0bad 26       		.uleb128 0x26
 1864 0bae 1A000000 		.4byte	.LVL7
 1865 0bb2 C20A0000 		.4byte	0xac2
 1866 0bb6 27       		.uleb128 0x27
 1867 0bb7 20000000 		.4byte	.LVL8
 1868 0bbb 9C0C0000 		.4byte	0xc9c
 1869 0bbf C90B0000 		.4byte	0xbc9
 1870 0bc3 20       		.uleb128 0x20
 1871 0bc4 01       		.byte	0x1
 1872 0bc5 50       		.byte	0x50
 1873 0bc6 01       		.byte	0x1
ARM GAS  /tmp/ccGus0PV.s 			page 34


 1874 0bc7 3A       		.byte	0x3a
 1875 0bc8 00       		.byte	0
 1876 0bc9 23       		.uleb128 0x23
 1877 0bca 28000000 		.4byte	.LVL9
 1878 0bce 01       		.byte	0x1
 1879 0bcf 180B0000 		.4byte	0xb18
 1880 0bd3 26       		.uleb128 0x26
 1881 0bd4 32000000 		.4byte	.LVL10
 1882 0bd8 450B0000 		.4byte	0xb45
 1883 0bdc 27       		.uleb128 0x27
 1884 0bdd 3C000000 		.4byte	.LVL11
 1885 0be1 9C0C0000 		.4byte	0xc9c
 1886 0be5 EF0B0000 		.4byte	0xbef
 1887 0be9 20       		.uleb128 0x20
 1888 0bea 01       		.byte	0x1
 1889 0beb 50       		.byte	0x50
 1890 0bec 01       		.byte	0x1
 1891 0bed 3A       		.byte	0x3a
 1892 0bee 00       		.byte	0
 1893 0bef 26       		.uleb128 0x26
 1894 0bf0 40000000 		.4byte	.LVL12
 1895 0bf4 C20A0000 		.4byte	0xac2
 1896 0bf8 27       		.uleb128 0x27
 1897 0bf9 46000000 		.4byte	.LVL13
 1898 0bfd 9C0C0000 		.4byte	0xc9c
 1899 0c01 0B0C0000 		.4byte	0xc0b
 1900 0c05 20       		.uleb128 0x20
 1901 0c06 01       		.byte	0x1
 1902 0c07 50       		.byte	0x50
 1903 0c08 01       		.byte	0x1
 1904 0c09 3A       		.byte	0x3a
 1905 0c0a 00       		.byte	0
 1906 0c0b 23       		.uleb128 0x23
 1907 0c0c 4E000000 		.4byte	.LVL14
 1908 0c10 01       		.byte	0x1
 1909 0c11 EB0A0000 		.4byte	0xaeb
 1910 0c15 00       		.byte	0
 1911 0c16 21       		.uleb128 0x21
 1912 0c17 01       		.byte	0x1
 1913 0c18 35030000 		.4byte	.LASF139
 1914 0c1c 01       		.byte	0x1
 1915 0c1d 68       		.byte	0x68
 1916 0c1e 00000000 		.4byte	.LFB123
 1917 0c22 18000000 		.4byte	.LFE123
 1918 0c26 02       		.byte	0x2
 1919 0c27 7D       		.byte	0x7d
 1920 0c28 00       		.sleb128 0
 1921 0c29 01       		.byte	0x1
 1922 0c2a 4E0C0000 		.4byte	0xc4e
 1923 0c2e 22       		.uleb128 0x22
 1924 0c2f 0E000000 		.4byte	.LVL15
 1925 0c33 01       		.byte	0x1
 1926 0c34 EB0C0000 		.4byte	0xceb
 1927 0c38 20       		.uleb128 0x20
 1928 0c39 01       		.byte	0x1
 1929 0c3a 53       		.byte	0x53
 1930 0c3b 02       		.byte	0x2
ARM GAS  /tmp/ccGus0PV.s 			page 35


 1931 0c3c 09       		.byte	0x9
 1932 0c3d FF       		.byte	0xff
 1933 0c3e 20       		.uleb128 0x20
 1934 0c3f 01       		.byte	0x1
 1935 0c40 52       		.byte	0x52
 1936 0c41 01       		.byte	0x1
 1937 0c42 39       		.byte	0x39
 1938 0c43 20       		.uleb128 0x20
 1939 0c44 01       		.byte	0x1
 1940 0c45 51       		.byte	0x51
 1941 0c46 05       		.byte	0x5
 1942 0c47 03       		.byte	0x3
 1943 0c48 00000000 		.4byte	.LC0
 1944 0c4c 00       		.byte	0
 1945 0c4d 00       		.byte	0
 1946 0c4e 28       		.uleb128 0x28
 1947 0c4f C7040000 		.4byte	.LASF152
 1948 0c53 01       		.byte	0x1
 1949 0c54 06       		.byte	0x6
 1950 0c55 590C0000 		.4byte	0xc59
 1951 0c59 10       		.uleb128 0x10
 1952 0c5a 8D0A0000 		.4byte	0xa8d
 1953 0c5e 29       		.uleb128 0x29
 1954 0c5f 2A050000 		.4byte	.LASF140
 1955 0c63 01       		.byte	0x1
 1956 0c64 0F       		.byte	0xf
 1957 0c65 0D090000 		.4byte	0x90d
 1958 0c69 05       		.byte	0x5
 1959 0c6a 03       		.byte	0x3
 1960 0c6b 00000000 		.4byte	btAtSerialDriverConfig
 1961 0c6f 29       		.uleb128 0x29
 1962 0c70 52050000 		.4byte	.LASF141
 1963 0c74 01       		.byte	0x1
 1964 0c75 13       		.byte	0x13
 1965 0c76 0D090000 		.4byte	0x90d
 1966 0c7a 05       		.byte	0x5
 1967 0c7b 03       		.byte	0x3
 1968 0c7c 00000000 		.4byte	btCommSerialDriverConfig
 1969 0c80 2A       		.uleb128 0x2a
 1970 0c81 6F000000 		.4byte	.LASF142
 1971 0c85 10       		.byte	0x10
 1972 0c86 9806     		.2byte	0x698
 1973 0c88 C0050000 		.4byte	0x5c0
 1974 0c8c 01       		.byte	0x1
 1975 0c8d 01       		.byte	0x1
 1976 0c8e 2B       		.uleb128 0x2b
 1977 0c8f 53443200 		.ascii	"SD2\000"
 1978 0c93 0E       		.byte	0xe
 1979 0c94 1201     		.2byte	0x112
 1980 0c96 46080000 		.4byte	0x846
 1981 0c9a 01       		.byte	0x1
 1982 0c9b 01       		.byte	0x1
 1983 0c9c 2C       		.uleb128 0x2c
 1984 0c9d 01       		.byte	0x1
 1985 0c9e 0A030000 		.4byte	.LASF143
 1986 0ca2 06       		.byte	0x6
 1987 0ca3 6E01     		.2byte	0x16e
ARM GAS  /tmp/ccGus0PV.s 			page 36


 1988 0ca5 01       		.byte	0x1
 1989 0ca6 01       		.byte	0x1
 1990 0ca7 B10C0000 		.4byte	0xcb1
 1991 0cab 12       		.uleb128 0x12
 1992 0cac 05010000 		.4byte	0x105
 1993 0cb0 00       		.byte	0
 1994 0cb1 2C       		.uleb128 0x2c
 1995 0cb2 01       		.byte	0x1
 1996 0cb3 A3040000 		.4byte	.LASF144
 1997 0cb7 0D       		.byte	0xd
 1998 0cb8 3001     		.2byte	0x130
 1999 0cba 01       		.byte	0x1
 2000 0cbb 01       		.byte	0x1
 2001 0cbc CB0C0000 		.4byte	0xccb
 2002 0cc0 12       		.uleb128 0x12
 2003 0cc1 870A0000 		.4byte	0xa87
 2004 0cc5 12       		.uleb128 0x12
 2005 0cc6 CB0C0000 		.4byte	0xccb
 2006 0cca 00       		.byte	0
 2007 0ccb 09       		.uleb128 0x9
 2008 0ccc 04       		.byte	0x4
 2009 0ccd D10C0000 		.4byte	0xcd1
 2010 0cd1 10       		.uleb128 0x10
 2011 0cd2 0D090000 		.4byte	0x90d
 2012 0cd6 2C       		.uleb128 0x2c
 2013 0cd7 01       		.byte	0x1
 2014 0cd8 EF020000 		.4byte	.LASF145
 2015 0cdc 0D       		.byte	0xd
 2016 0cdd 3101     		.2byte	0x131
 2017 0cdf 01       		.byte	0x1
 2018 0ce0 01       		.byte	0x1
 2019 0ce1 EB0C0000 		.4byte	0xceb
 2020 0ce5 12       		.uleb128 0x12
 2021 0ce6 870A0000 		.4byte	0xa87
 2022 0cea 00       		.byte	0
 2023 0ceb 2D       		.uleb128 0x2d
 2024 0cec 01       		.byte	0x1
 2025 0ced 81020000 		.4byte	.LASF146
 2026 0cf1 0A       		.byte	0xa
 2027 0cf2 6801     		.2byte	0x168
 2028 0cf4 01       		.byte	0x1
 2029 0cf5 30000000 		.4byte	0x30
 2030 0cf9 01       		.byte	0x1
 2031 0cfa 12       		.uleb128 0x12
 2032 0cfb B6090000 		.4byte	0x9b6
 2033 0cff 12       		.uleb128 0x12
 2034 0d00 6F050000 		.4byte	0x56f
 2035 0d04 12       		.uleb128 0x12
 2036 0d05 30000000 		.4byte	0x30
 2037 0d09 12       		.uleb128 0x12
 2038 0d0a 05010000 		.4byte	0x105
 2039 0d0e 00       		.byte	0
 2040 0d0f 00       		.byte	0
 2041              		.section	.debug_abbrev,"",%progbits
 2042              	.Ldebug_abbrev0:
 2043 0000 01       		.uleb128 0x1
 2044 0001 11       		.uleb128 0x11
ARM GAS  /tmp/ccGus0PV.s 			page 37


 2045 0002 01       		.byte	0x1
 2046 0003 25       		.uleb128 0x25
 2047 0004 0E       		.uleb128 0xe
 2048 0005 13       		.uleb128 0x13
 2049 0006 0B       		.uleb128 0xb
 2050 0007 03       		.uleb128 0x3
 2051 0008 0E       		.uleb128 0xe
 2052 0009 1B       		.uleb128 0x1b
 2053 000a 0E       		.uleb128 0xe
 2054 000b 55       		.uleb128 0x55
 2055 000c 06       		.uleb128 0x6
 2056 000d 11       		.uleb128 0x11
 2057 000e 01       		.uleb128 0x1
 2058 000f 52       		.uleb128 0x52
 2059 0010 01       		.uleb128 0x1
 2060 0011 10       		.uleb128 0x10
 2061 0012 06       		.uleb128 0x6
 2062 0013 00       		.byte	0
 2063 0014 00       		.byte	0
 2064 0015 02       		.uleb128 0x2
 2065 0016 24       		.uleb128 0x24
 2066 0017 00       		.byte	0
 2067 0018 0B       		.uleb128 0xb
 2068 0019 0B       		.uleb128 0xb
 2069 001a 3E       		.uleb128 0x3e
 2070 001b 0B       		.uleb128 0xb
 2071 001c 03       		.uleb128 0x3
 2072 001d 08       		.uleb128 0x8
 2073 001e 00       		.byte	0
 2074 001f 00       		.byte	0
 2075 0020 03       		.uleb128 0x3
 2076 0021 16       		.uleb128 0x16
 2077 0022 00       		.byte	0
 2078 0023 03       		.uleb128 0x3
 2079 0024 0E       		.uleb128 0xe
 2080 0025 3A       		.uleb128 0x3a
 2081 0026 0B       		.uleb128 0xb
 2082 0027 3B       		.uleb128 0x3b
 2083 0028 0B       		.uleb128 0xb
 2084 0029 49       		.uleb128 0x49
 2085 002a 13       		.uleb128 0x13
 2086 002b 00       		.byte	0
 2087 002c 00       		.byte	0
 2088 002d 04       		.uleb128 0x4
 2089 002e 24       		.uleb128 0x24
 2090 002f 00       		.byte	0
 2091 0030 0B       		.uleb128 0xb
 2092 0031 0B       		.uleb128 0xb
 2093 0032 3E       		.uleb128 0x3e
 2094 0033 0B       		.uleb128 0xb
 2095 0034 03       		.uleb128 0x3
 2096 0035 0E       		.uleb128 0xe
 2097 0036 00       		.byte	0
 2098 0037 00       		.byte	0
 2099 0038 05       		.uleb128 0x5
 2100 0039 13       		.uleb128 0x13
 2101 003a 01       		.byte	0x1
ARM GAS  /tmp/ccGus0PV.s 			page 38


 2102 003b 03       		.uleb128 0x3
 2103 003c 0E       		.uleb128 0xe
 2104 003d 0B       		.uleb128 0xb
 2105 003e 0B       		.uleb128 0xb
 2106 003f 3A       		.uleb128 0x3a
 2107 0040 0B       		.uleb128 0xb
 2108 0041 3B       		.uleb128 0x3b
 2109 0042 0B       		.uleb128 0xb
 2110 0043 01       		.uleb128 0x1
 2111 0044 13       		.uleb128 0x13
 2112 0045 00       		.byte	0
 2113 0046 00       		.byte	0
 2114 0047 06       		.uleb128 0x6
 2115 0048 0D       		.uleb128 0xd
 2116 0049 00       		.byte	0
 2117 004a 03       		.uleb128 0x3
 2118 004b 0E       		.uleb128 0xe
 2119 004c 3A       		.uleb128 0x3a
 2120 004d 0B       		.uleb128 0xb
 2121 004e 3B       		.uleb128 0x3b
 2122 004f 0B       		.uleb128 0xb
 2123 0050 49       		.uleb128 0x49
 2124 0051 13       		.uleb128 0x13
 2125 0052 38       		.uleb128 0x38
 2126 0053 0A       		.uleb128 0xa
 2127 0054 00       		.byte	0
 2128 0055 00       		.byte	0
 2129 0056 07       		.uleb128 0x7
 2130 0057 0D       		.uleb128 0xd
 2131 0058 00       		.byte	0
 2132 0059 03       		.uleb128 0x3
 2133 005a 08       		.uleb128 0x8
 2134 005b 3A       		.uleb128 0x3a
 2135 005c 0B       		.uleb128 0xb
 2136 005d 3B       		.uleb128 0x3b
 2137 005e 0B       		.uleb128 0xb
 2138 005f 49       		.uleb128 0x49
 2139 0060 13       		.uleb128 0x13
 2140 0061 38       		.uleb128 0x38
 2141 0062 0A       		.uleb128 0xa
 2142 0063 00       		.byte	0
 2143 0064 00       		.byte	0
 2144 0065 08       		.uleb128 0x8
 2145 0066 13       		.uleb128 0x13
 2146 0067 01       		.byte	0x1
 2147 0068 0B       		.uleb128 0xb
 2148 0069 0B       		.uleb128 0xb
 2149 006a 3A       		.uleb128 0x3a
 2150 006b 0B       		.uleb128 0xb
 2151 006c 3B       		.uleb128 0x3b
 2152 006d 0B       		.uleb128 0xb
 2153 006e 01       		.uleb128 0x1
 2154 006f 13       		.uleb128 0x13
 2155 0070 00       		.byte	0
 2156 0071 00       		.byte	0
 2157 0072 09       		.uleb128 0x9
 2158 0073 0F       		.uleb128 0xf
ARM GAS  /tmp/ccGus0PV.s 			page 39


 2159 0074 00       		.byte	0
 2160 0075 0B       		.uleb128 0xb
 2161 0076 0B       		.uleb128 0xb
 2162 0077 49       		.uleb128 0x49
 2163 0078 13       		.uleb128 0x13
 2164 0079 00       		.byte	0
 2165 007a 00       		.byte	0
 2166 007b 0A       		.uleb128 0xa
 2167 007c 0F       		.uleb128 0xf
 2168 007d 00       		.byte	0
 2169 007e 0B       		.uleb128 0xb
 2170 007f 0B       		.uleb128 0xb
 2171 0080 00       		.byte	0
 2172 0081 00       		.byte	0
 2173 0082 0B       		.uleb128 0xb
 2174 0083 13       		.uleb128 0x13
 2175 0084 01       		.byte	0x1
 2176 0085 03       		.uleb128 0x3
 2177 0086 0E       		.uleb128 0xe
 2178 0087 0B       		.uleb128 0xb
 2179 0088 0B       		.uleb128 0xb
 2180 0089 3A       		.uleb128 0x3a
 2181 008a 0B       		.uleb128 0xb
 2182 008b 3B       		.uleb128 0x3b
 2183 008c 05       		.uleb128 0x5
 2184 008d 01       		.uleb128 0x1
 2185 008e 13       		.uleb128 0x13
 2186 008f 00       		.byte	0
 2187 0090 00       		.byte	0
 2188 0091 0C       		.uleb128 0xc
 2189 0092 0D       		.uleb128 0xd
 2190 0093 00       		.byte	0
 2191 0094 03       		.uleb128 0x3
 2192 0095 08       		.uleb128 0x8
 2193 0096 3A       		.uleb128 0x3a
 2194 0097 0B       		.uleb128 0xb
 2195 0098 3B       		.uleb128 0x3b
 2196 0099 05       		.uleb128 0x5
 2197 009a 49       		.uleb128 0x49
 2198 009b 13       		.uleb128 0x13
 2199 009c 38       		.uleb128 0x38
 2200 009d 0A       		.uleb128 0xa
 2201 009e 00       		.byte	0
 2202 009f 00       		.byte	0
 2203 00a0 0D       		.uleb128 0xd
 2204 00a1 35       		.uleb128 0x35
 2205 00a2 00       		.byte	0
 2206 00a3 49       		.uleb128 0x49
 2207 00a4 13       		.uleb128 0x13
 2208 00a5 00       		.byte	0
 2209 00a6 00       		.byte	0
 2210 00a7 0E       		.uleb128 0xe
 2211 00a8 17       		.uleb128 0x17
 2212 00a9 01       		.byte	0x1
 2213 00aa 0B       		.uleb128 0xb
 2214 00ab 0B       		.uleb128 0xb
 2215 00ac 3A       		.uleb128 0x3a
ARM GAS  /tmp/ccGus0PV.s 			page 40


 2216 00ad 0B       		.uleb128 0xb
 2217 00ae 3B       		.uleb128 0x3b
 2218 00af 0B       		.uleb128 0xb
 2219 00b0 01       		.uleb128 0x1
 2220 00b1 13       		.uleb128 0x13
 2221 00b2 00       		.byte	0
 2222 00b3 00       		.byte	0
 2223 00b4 0F       		.uleb128 0xf
 2224 00b5 0D       		.uleb128 0xd
 2225 00b6 00       		.byte	0
 2226 00b7 03       		.uleb128 0x3
 2227 00b8 0E       		.uleb128 0xe
 2228 00b9 3A       		.uleb128 0x3a
 2229 00ba 0B       		.uleb128 0xb
 2230 00bb 3B       		.uleb128 0x3b
 2231 00bc 0B       		.uleb128 0xb
 2232 00bd 49       		.uleb128 0x49
 2233 00be 13       		.uleb128 0x13
 2234 00bf 00       		.byte	0
 2235 00c0 00       		.byte	0
 2236 00c1 10       		.uleb128 0x10
 2237 00c2 26       		.uleb128 0x26
 2238 00c3 00       		.byte	0
 2239 00c4 49       		.uleb128 0x49
 2240 00c5 13       		.uleb128 0x13
 2241 00c6 00       		.byte	0
 2242 00c7 00       		.byte	0
 2243 00c8 11       		.uleb128 0x11
 2244 00c9 15       		.uleb128 0x15
 2245 00ca 01       		.byte	0x1
 2246 00cb 27       		.uleb128 0x27
 2247 00cc 0C       		.uleb128 0xc
 2248 00cd 49       		.uleb128 0x49
 2249 00ce 13       		.uleb128 0x13
 2250 00cf 01       		.uleb128 0x1
 2251 00d0 13       		.uleb128 0x13
 2252 00d1 00       		.byte	0
 2253 00d2 00       		.byte	0
 2254 00d3 12       		.uleb128 0x12
 2255 00d4 05       		.uleb128 0x5
 2256 00d5 00       		.byte	0
 2257 00d6 49       		.uleb128 0x49
 2258 00d7 13       		.uleb128 0x13
 2259 00d8 00       		.byte	0
 2260 00d9 00       		.byte	0
 2261 00da 13       		.uleb128 0x13
 2262 00db 15       		.uleb128 0x15
 2263 00dc 01       		.byte	0x1
 2264 00dd 27       		.uleb128 0x27
 2265 00de 0C       		.uleb128 0xc
 2266 00df 01       		.uleb128 0x1
 2267 00e0 13       		.uleb128 0x13
 2268 00e1 00       		.byte	0
 2269 00e2 00       		.byte	0
 2270 00e3 14       		.uleb128 0x14
 2271 00e4 13       		.uleb128 0x13
 2272 00e5 01       		.byte	0x1
ARM GAS  /tmp/ccGus0PV.s 			page 41


 2273 00e6 0B       		.uleb128 0xb
 2274 00e7 0B       		.uleb128 0xb
 2275 00e8 3A       		.uleb128 0x3a
 2276 00e9 0B       		.uleb128 0xb
 2277 00ea 3B       		.uleb128 0x3b
 2278 00eb 05       		.uleb128 0x5
 2279 00ec 01       		.uleb128 0x1
 2280 00ed 13       		.uleb128 0x13
 2281 00ee 00       		.byte	0
 2282 00ef 00       		.byte	0
 2283 00f0 15       		.uleb128 0x15
 2284 00f1 0D       		.uleb128 0xd
 2285 00f2 00       		.byte	0
 2286 00f3 03       		.uleb128 0x3
 2287 00f4 0E       		.uleb128 0xe
 2288 00f5 3A       		.uleb128 0x3a
 2289 00f6 0B       		.uleb128 0xb
 2290 00f7 3B       		.uleb128 0x3b
 2291 00f8 05       		.uleb128 0x5
 2292 00f9 49       		.uleb128 0x49
 2293 00fa 13       		.uleb128 0x13
 2294 00fb 38       		.uleb128 0x38
 2295 00fc 0A       		.uleb128 0xa
 2296 00fd 00       		.byte	0
 2297 00fe 00       		.byte	0
 2298 00ff 16       		.uleb128 0x16
 2299 0100 16       		.uleb128 0x16
 2300 0101 00       		.byte	0
 2301 0102 03       		.uleb128 0x3
 2302 0103 0E       		.uleb128 0xe
 2303 0104 3A       		.uleb128 0x3a
 2304 0105 0B       		.uleb128 0xb
 2305 0106 3B       		.uleb128 0x3b
 2306 0107 05       		.uleb128 0x5
 2307 0108 49       		.uleb128 0x49
 2308 0109 13       		.uleb128 0x13
 2309 010a 00       		.byte	0
 2310 010b 00       		.byte	0
 2311 010c 17       		.uleb128 0x17
 2312 010d 0D       		.uleb128 0xd
 2313 010e 00       		.byte	0
 2314 010f 03       		.uleb128 0x3
 2315 0110 08       		.uleb128 0x8
 2316 0111 3A       		.uleb128 0x3a
 2317 0112 0B       		.uleb128 0xb
 2318 0113 3B       		.uleb128 0x3b
 2319 0114 0B       		.uleb128 0xb
 2320 0115 49       		.uleb128 0x49
 2321 0116 13       		.uleb128 0x13
 2322 0117 00       		.byte	0
 2323 0118 00       		.byte	0
 2324 0119 18       		.uleb128 0x18
 2325 011a 04       		.uleb128 0x4
 2326 011b 01       		.byte	0x1
 2327 011c 0B       		.uleb128 0xb
 2328 011d 0B       		.uleb128 0xb
 2329 011e 3A       		.uleb128 0x3a
ARM GAS  /tmp/ccGus0PV.s 			page 42


 2330 011f 0B       		.uleb128 0xb
 2331 0120 3B       		.uleb128 0x3b
 2332 0121 0B       		.uleb128 0xb
 2333 0122 01       		.uleb128 0x1
 2334 0123 13       		.uleb128 0x13
 2335 0124 00       		.byte	0
 2336 0125 00       		.byte	0
 2337 0126 19       		.uleb128 0x19
 2338 0127 28       		.uleb128 0x28
 2339 0128 00       		.byte	0
 2340 0129 03       		.uleb128 0x3
 2341 012a 0E       		.uleb128 0xe
 2342 012b 1C       		.uleb128 0x1c
 2343 012c 0D       		.uleb128 0xd
 2344 012d 00       		.byte	0
 2345 012e 00       		.byte	0
 2346 012f 1A       		.uleb128 0x1a
 2347 0130 01       		.uleb128 0x1
 2348 0131 01       		.byte	0x1
 2349 0132 49       		.uleb128 0x49
 2350 0133 13       		.uleb128 0x13
 2351 0134 01       		.uleb128 0x1
 2352 0135 13       		.uleb128 0x13
 2353 0136 00       		.byte	0
 2354 0137 00       		.byte	0
 2355 0138 1B       		.uleb128 0x1b
 2356 0139 21       		.uleb128 0x21
 2357 013a 00       		.byte	0
 2358 013b 49       		.uleb128 0x49
 2359 013c 13       		.uleb128 0x13
 2360 013d 2F       		.uleb128 0x2f
 2361 013e 0B       		.uleb128 0xb
 2362 013f 00       		.byte	0
 2363 0140 00       		.byte	0
 2364 0141 1C       		.uleb128 0x1c
 2365 0142 04       		.uleb128 0x4
 2366 0143 01       		.byte	0x1
 2367 0144 03       		.uleb128 0x3
 2368 0145 0E       		.uleb128 0xe
 2369 0146 0B       		.uleb128 0xb
 2370 0147 0B       		.uleb128 0xb
 2371 0148 3A       		.uleb128 0x3a
 2372 0149 0B       		.uleb128 0xb
 2373 014a 3B       		.uleb128 0x3b
 2374 014b 0B       		.uleb128 0xb
 2375 014c 01       		.uleb128 0x1
 2376 014d 13       		.uleb128 0x13
 2377 014e 00       		.byte	0
 2378 014f 00       		.byte	0
 2379 0150 1D       		.uleb128 0x1d
 2380 0151 28       		.uleb128 0x28
 2381 0152 00       		.byte	0
 2382 0153 03       		.uleb128 0x3
 2383 0154 08       		.uleb128 0x8
 2384 0155 1C       		.uleb128 0x1c
 2385 0156 0D       		.uleb128 0xd
 2386 0157 00       		.byte	0
ARM GAS  /tmp/ccGus0PV.s 			page 43


 2387 0158 00       		.byte	0
 2388 0159 1E       		.uleb128 0x1e
 2389 015a 2E       		.uleb128 0x2e
 2390 015b 01       		.byte	0x1
 2391 015c 3F       		.uleb128 0x3f
 2392 015d 0C       		.uleb128 0xc
 2393 015e 03       		.uleb128 0x3
 2394 015f 0E       		.uleb128 0xe
 2395 0160 3A       		.uleb128 0x3a
 2396 0161 0B       		.uleb128 0xb
 2397 0162 3B       		.uleb128 0x3b
 2398 0163 0B       		.uleb128 0xb
 2399 0164 11       		.uleb128 0x11
 2400 0165 01       		.uleb128 0x1
 2401 0166 12       		.uleb128 0x12
 2402 0167 01       		.uleb128 0x1
 2403 0168 40       		.uleb128 0x40
 2404 0169 06       		.uleb128 0x6
 2405 016a 9742     		.uleb128 0x2117
 2406 016c 0C       		.uleb128 0xc
 2407 016d 01       		.uleb128 0x1
 2408 016e 13       		.uleb128 0x13
 2409 016f 00       		.byte	0
 2410 0170 00       		.byte	0
 2411 0171 1F       		.uleb128 0x1f
 2412 0172 898201   		.uleb128 0x4109
 2413 0175 01       		.byte	0x1
 2414 0176 11       		.uleb128 0x11
 2415 0177 01       		.uleb128 0x1
 2416 0178 31       		.uleb128 0x31
 2417 0179 13       		.uleb128 0x13
 2418 017a 00       		.byte	0
 2419 017b 00       		.byte	0
 2420 017c 20       		.uleb128 0x20
 2421 017d 8A8201   		.uleb128 0x410a
 2422 0180 00       		.byte	0
 2423 0181 02       		.uleb128 0x2
 2424 0182 0A       		.uleb128 0xa
 2425 0183 9142     		.uleb128 0x2111
 2426 0185 0A       		.uleb128 0xa
 2427 0186 00       		.byte	0
 2428 0187 00       		.byte	0
 2429 0188 21       		.uleb128 0x21
 2430 0189 2E       		.uleb128 0x2e
 2431 018a 01       		.byte	0x1
 2432 018b 3F       		.uleb128 0x3f
 2433 018c 0C       		.uleb128 0xc
 2434 018d 03       		.uleb128 0x3
 2435 018e 0E       		.uleb128 0xe
 2436 018f 3A       		.uleb128 0x3a
 2437 0190 0B       		.uleb128 0xb
 2438 0191 3B       		.uleb128 0x3b
 2439 0192 0B       		.uleb128 0xb
 2440 0193 11       		.uleb128 0x11
 2441 0194 01       		.uleb128 0x1
 2442 0195 12       		.uleb128 0x12
 2443 0196 01       		.uleb128 0x1
ARM GAS  /tmp/ccGus0PV.s 			page 44


 2444 0197 40       		.uleb128 0x40
 2445 0198 0A       		.uleb128 0xa
 2446 0199 9742     		.uleb128 0x2117
 2447 019b 0C       		.uleb128 0xc
 2448 019c 01       		.uleb128 0x1
 2449 019d 13       		.uleb128 0x13
 2450 019e 00       		.byte	0
 2451 019f 00       		.byte	0
 2452 01a0 22       		.uleb128 0x22
 2453 01a1 898201   		.uleb128 0x4109
 2454 01a4 01       		.byte	0x1
 2455 01a5 11       		.uleb128 0x11
 2456 01a6 01       		.uleb128 0x1
 2457 01a7 9542     		.uleb128 0x2115
 2458 01a9 0C       		.uleb128 0xc
 2459 01aa 31       		.uleb128 0x31
 2460 01ab 13       		.uleb128 0x13
 2461 01ac 00       		.byte	0
 2462 01ad 00       		.byte	0
 2463 01ae 23       		.uleb128 0x23
 2464 01af 898201   		.uleb128 0x4109
 2465 01b2 00       		.byte	0
 2466 01b3 11       		.uleb128 0x11
 2467 01b4 01       		.uleb128 0x1
 2468 01b5 9542     		.uleb128 0x2115
 2469 01b7 0C       		.uleb128 0xc
 2470 01b8 31       		.uleb128 0x31
 2471 01b9 13       		.uleb128 0x13
 2472 01ba 00       		.byte	0
 2473 01bb 00       		.byte	0
 2474 01bc 24       		.uleb128 0x24
 2475 01bd 2E       		.uleb128 0x2e
 2476 01be 01       		.byte	0x1
 2477 01bf 3F       		.uleb128 0x3f
 2478 01c0 0C       		.uleb128 0xc
 2479 01c1 03       		.uleb128 0x3
 2480 01c2 0E       		.uleb128 0xe
 2481 01c3 3A       		.uleb128 0x3a
 2482 01c4 0B       		.uleb128 0xb
 2483 01c5 3B       		.uleb128 0x3b
 2484 01c6 0B       		.uleb128 0xb
 2485 01c7 27       		.uleb128 0x27
 2486 01c8 0C       		.uleb128 0xc
 2487 01c9 11       		.uleb128 0x11
 2488 01ca 01       		.uleb128 0x1
 2489 01cb 12       		.uleb128 0x12
 2490 01cc 01       		.uleb128 0x1
 2491 01cd 40       		.uleb128 0x40
 2492 01ce 06       		.uleb128 0x6
 2493 01cf 9742     		.uleb128 0x2117
 2494 01d1 0C       		.uleb128 0xc
 2495 01d2 01       		.uleb128 0x1
 2496 01d3 13       		.uleb128 0x13
 2497 01d4 00       		.byte	0
 2498 01d5 00       		.byte	0
 2499 01d6 25       		.uleb128 0x25
 2500 01d7 05       		.uleb128 0x5
ARM GAS  /tmp/ccGus0PV.s 			page 45


 2501 01d8 00       		.byte	0
 2502 01d9 03       		.uleb128 0x3
 2503 01da 0E       		.uleb128 0xe
 2504 01db 3A       		.uleb128 0x3a
 2505 01dc 0B       		.uleb128 0xb
 2506 01dd 3B       		.uleb128 0x3b
 2507 01de 0B       		.uleb128 0xb
 2508 01df 49       		.uleb128 0x49
 2509 01e0 13       		.uleb128 0x13
 2510 01e1 02       		.uleb128 0x2
 2511 01e2 06       		.uleb128 0x6
 2512 01e3 00       		.byte	0
 2513 01e4 00       		.byte	0
 2514 01e5 26       		.uleb128 0x26
 2515 01e6 898201   		.uleb128 0x4109
 2516 01e9 00       		.byte	0
 2517 01ea 11       		.uleb128 0x11
 2518 01eb 01       		.uleb128 0x1
 2519 01ec 31       		.uleb128 0x31
 2520 01ed 13       		.uleb128 0x13
 2521 01ee 00       		.byte	0
 2522 01ef 00       		.byte	0
 2523 01f0 27       		.uleb128 0x27
 2524 01f1 898201   		.uleb128 0x4109
 2525 01f4 01       		.byte	0x1
 2526 01f5 11       		.uleb128 0x11
 2527 01f6 01       		.uleb128 0x1
 2528 01f7 31       		.uleb128 0x31
 2529 01f8 13       		.uleb128 0x13
 2530 01f9 01       		.uleb128 0x1
 2531 01fa 13       		.uleb128 0x13
 2532 01fb 00       		.byte	0
 2533 01fc 00       		.byte	0
 2534 01fd 28       		.uleb128 0x28
 2535 01fe 34       		.uleb128 0x34
 2536 01ff 00       		.byte	0
 2537 0200 03       		.uleb128 0x3
 2538 0201 0E       		.uleb128 0xe
 2539 0202 3A       		.uleb128 0x3a
 2540 0203 0B       		.uleb128 0xb
 2541 0204 3B       		.uleb128 0x3b
 2542 0205 0B       		.uleb128 0xb
 2543 0206 49       		.uleb128 0x49
 2544 0207 13       		.uleb128 0x13
 2545 0208 00       		.byte	0
 2546 0209 00       		.byte	0
 2547 020a 29       		.uleb128 0x29
 2548 020b 34       		.uleb128 0x34
 2549 020c 00       		.byte	0
 2550 020d 03       		.uleb128 0x3
 2551 020e 0E       		.uleb128 0xe
 2552 020f 3A       		.uleb128 0x3a
 2553 0210 0B       		.uleb128 0xb
 2554 0211 3B       		.uleb128 0x3b
 2555 0212 0B       		.uleb128 0xb
 2556 0213 49       		.uleb128 0x49
 2557 0214 13       		.uleb128 0x13
ARM GAS  /tmp/ccGus0PV.s 			page 46


 2558 0215 02       		.uleb128 0x2
 2559 0216 0A       		.uleb128 0xa
 2560 0217 00       		.byte	0
 2561 0218 00       		.byte	0
 2562 0219 2A       		.uleb128 0x2a
 2563 021a 34       		.uleb128 0x34
 2564 021b 00       		.byte	0
 2565 021c 03       		.uleb128 0x3
 2566 021d 0E       		.uleb128 0xe
 2567 021e 3A       		.uleb128 0x3a
 2568 021f 0B       		.uleb128 0xb
 2569 0220 3B       		.uleb128 0x3b
 2570 0221 05       		.uleb128 0x5
 2571 0222 49       		.uleb128 0x49
 2572 0223 13       		.uleb128 0x13
 2573 0224 3F       		.uleb128 0x3f
 2574 0225 0C       		.uleb128 0xc
 2575 0226 3C       		.uleb128 0x3c
 2576 0227 0C       		.uleb128 0xc
 2577 0228 00       		.byte	0
 2578 0229 00       		.byte	0
 2579 022a 2B       		.uleb128 0x2b
 2580 022b 34       		.uleb128 0x34
 2581 022c 00       		.byte	0
 2582 022d 03       		.uleb128 0x3
 2583 022e 08       		.uleb128 0x8
 2584 022f 3A       		.uleb128 0x3a
 2585 0230 0B       		.uleb128 0xb
 2586 0231 3B       		.uleb128 0x3b
 2587 0232 05       		.uleb128 0x5
 2588 0233 49       		.uleb128 0x49
 2589 0234 13       		.uleb128 0x13
 2590 0235 3F       		.uleb128 0x3f
 2591 0236 0C       		.uleb128 0xc
 2592 0237 3C       		.uleb128 0x3c
 2593 0238 0C       		.uleb128 0xc
 2594 0239 00       		.byte	0
 2595 023a 00       		.byte	0
 2596 023b 2C       		.uleb128 0x2c
 2597 023c 2E       		.uleb128 0x2e
 2598 023d 01       		.byte	0x1
 2599 023e 3F       		.uleb128 0x3f
 2600 023f 0C       		.uleb128 0xc
 2601 0240 03       		.uleb128 0x3
 2602 0241 0E       		.uleb128 0xe
 2603 0242 3A       		.uleb128 0x3a
 2604 0243 0B       		.uleb128 0xb
 2605 0244 3B       		.uleb128 0x3b
 2606 0245 05       		.uleb128 0x5
 2607 0246 27       		.uleb128 0x27
 2608 0247 0C       		.uleb128 0xc
 2609 0248 3C       		.uleb128 0x3c
 2610 0249 0C       		.uleb128 0xc
 2611 024a 01       		.uleb128 0x1
 2612 024b 13       		.uleb128 0x13
 2613 024c 00       		.byte	0
 2614 024d 00       		.byte	0
ARM GAS  /tmp/ccGus0PV.s 			page 47


 2615 024e 2D       		.uleb128 0x2d
 2616 024f 2E       		.uleb128 0x2e
 2617 0250 01       		.byte	0x1
 2618 0251 3F       		.uleb128 0x3f
 2619 0252 0C       		.uleb128 0xc
 2620 0253 03       		.uleb128 0x3
 2621 0254 0E       		.uleb128 0xe
 2622 0255 3A       		.uleb128 0x3a
 2623 0256 0B       		.uleb128 0xb
 2624 0257 3B       		.uleb128 0x3b
 2625 0258 05       		.uleb128 0x5
 2626 0259 27       		.uleb128 0x27
 2627 025a 0C       		.uleb128 0xc
 2628 025b 49       		.uleb128 0x49
 2629 025c 13       		.uleb128 0x13
 2630 025d 3C       		.uleb128 0x3c
 2631 025e 0C       		.uleb128 0xc
 2632 025f 00       		.byte	0
 2633 0260 00       		.byte	0
 2634 0261 00       		.byte	0
 2635              		.section	.debug_loc,"",%progbits
 2636              	.Ldebug_loc0:
 2637              	.LLST0:
 2638 0000 00000000 		.4byte	.LFB118
 2639 0004 02000000 		.4byte	.LCFI0
 2640 0008 0200     		.2byte	0x2
 2641 000a 7D       		.byte	0x7d
 2642 000b 00       		.sleb128 0
 2643 000c 02000000 		.4byte	.LCFI0
 2644 0010 18000000 		.4byte	.LFE118
 2645 0014 0200     		.2byte	0x2
 2646 0016 7D       		.byte	0x7d
 2647 0017 10       		.sleb128 16
 2648 0018 00000000 		.4byte	0
 2649 001c 00000000 		.4byte	0
 2650              	.LLST1:
 2651 0020 00000000 		.4byte	.LFB119
 2652 0024 02000000 		.4byte	.LCFI1
 2653 0028 0200     		.2byte	0x2
 2654 002a 7D       		.byte	0x7d
 2655 002b 00       		.sleb128 0
 2656 002c 02000000 		.4byte	.LCFI1
 2657 0030 54000000 		.4byte	.LFE119
 2658 0034 0200     		.2byte	0x2
 2659 0036 7D       		.byte	0x7d
 2660 0037 08       		.sleb128 8
 2661 0038 00000000 		.4byte	0
 2662 003c 00000000 		.4byte	0
 2663              	.LLST2:
 2664 0040 00000000 		.4byte	.LVL4
 2665 0044 09000000 		.4byte	.LVL5-1
 2666 0048 0100     		.2byte	0x1
 2667 004a 50       		.byte	0x50
 2668 004b 09000000 		.4byte	.LVL5-1
 2669 004f 28000000 		.4byte	.LVL9
 2670 0053 0400     		.2byte	0x4
 2671 0055 F3       		.byte	0xf3
ARM GAS  /tmp/ccGus0PV.s 			page 48


 2672 0056 01       		.uleb128 0x1
 2673 0057 50       		.byte	0x50
 2674 0058 9F       		.byte	0x9f
 2675 0059 28000000 		.4byte	.LVL9
 2676 005d 31000000 		.4byte	.LVL10-1
 2677 0061 0100     		.2byte	0x1
 2678 0063 50       		.byte	0x50
 2679 0064 31000000 		.4byte	.LVL10-1
 2680 0068 54000000 		.4byte	.LFE119
 2681 006c 0400     		.2byte	0x4
 2682 006e F3       		.byte	0xf3
 2683 006f 01       		.uleb128 0x1
 2684 0070 50       		.byte	0x50
 2685 0071 9F       		.byte	0x9f
 2686 0072 00000000 		.4byte	0
 2687 0076 00000000 		.4byte	0
 2688              		.section	.debug_aranges,"",%progbits
 2689 0000 44000000 		.4byte	0x44
 2690 0004 0200     		.2byte	0x2
 2691 0006 00000000 		.4byte	.Ldebug_info0
 2692 000a 04       		.byte	0x4
 2693 000b 00       		.byte	0
 2694 000c 0000     		.2byte	0
 2695 000e 0000     		.2byte	0
 2696 0010 00000000 		.4byte	.LFB118
 2697 0014 18000000 		.4byte	.LFE118-.LFB118
 2698 0018 00000000 		.4byte	.LFB120
 2699 001c 10000000 		.4byte	.LFE120-.LFB120
 2700 0020 00000000 		.4byte	.LFB121
 2701 0024 10000000 		.4byte	.LFE121-.LFB121
 2702 0028 00000000 		.4byte	.LFB122
 2703 002c 0C000000 		.4byte	.LFE122-.LFB122
 2704 0030 00000000 		.4byte	.LFB119
 2705 0034 54000000 		.4byte	.LFE119-.LFB119
 2706 0038 00000000 		.4byte	.LFB123
 2707 003c 18000000 		.4byte	.LFE123-.LFB123
 2708 0040 00000000 		.4byte	0
 2709 0044 00000000 		.4byte	0
 2710              		.section	.debug_ranges,"",%progbits
 2711              	.Ldebug_ranges0:
 2712 0000 00000000 		.4byte	.LFB118
 2713 0004 18000000 		.4byte	.LFE118
 2714 0008 00000000 		.4byte	.LFB120
 2715 000c 10000000 		.4byte	.LFE120
 2716 0010 00000000 		.4byte	.LFB121
 2717 0014 10000000 		.4byte	.LFE121
 2718 0018 00000000 		.4byte	.LFB122
 2719 001c 0C000000 		.4byte	.LFE122
 2720 0020 00000000 		.4byte	.LFB119
 2721 0024 54000000 		.4byte	.LFE119
 2722 0028 00000000 		.4byte	.LFB123
 2723 002c 18000000 		.4byte	.LFE123
 2724 0030 00000000 		.4byte	0
 2725 0034 00000000 		.4byte	0
 2726              		.section	.debug_line,"",%progbits
 2727              	.Ldebug_line0:
 2728 0000 2E040000 		.section	.debug_str,"MS",%progbits,1
ARM GAS  /tmp/ccGus0PV.s 			page 49


 2728      02009903 
 2728      00000201 
 2728      FB0E0D00 
 2728      01010101 
 2729              	.LASF2:
 2730 0000 73697A65 		.ascii	"size_t\000"
 2730      5F7400
 2731              	.LASF61:
 2732 0007 7264796D 		.ascii	"rdymsg\000"
 2732      736700
 2733              	.LASF138:
 2734 000e 62745374 		.ascii	"btStop\000"
 2734      6F7000
 2735              	.LASF120:
 2736 0015 62747061 		.ascii	"btparity\000"
 2736      72697479 
 2736      00
 2737              	.LASF77:
 2738 001e 4F757470 		.ascii	"OutputQueue\000"
 2738      75745175 
 2738      65756500 
 2739              	.LASF89:
 2740 002a 4F545950 		.ascii	"OTYPER\000"
 2740      455200
 2741              	.LASF123:
 2742 0031 6E6F6E65 		.ascii	"none\000"
 2742      00
 2743              	.LASF97:
 2744 0036 696F706F 		.ascii	"ioportmask_t\000"
 2744      72746D61 
 2744      736B5F74 
 2744      00
 2745              	.LASF88:
 2746 0043 4D4F4445 		.ascii	"MODER\000"
 2746      5200
 2747              	.LASF13:
 2748 0049 6C6F6E67 		.ascii	"long long unsigned int\000"
 2748      206C6F6E 
 2748      6720756E 
 2748      7369676E 
 2748      65642069 
 2749              	.LASF91:
 2750 0060 50555044 		.ascii	"PUPDR\000"
 2750      5200
 2751              	.LASF62:
 2752 0066 65786974 		.ascii	"exitcode\000"
 2752      636F6465 
 2752      00
 2753              	.LASF142:
 2754 006f 49544D5F 		.ascii	"ITM_RxBuffer\000"
 2754      52784275 
 2754      66666572 
 2754      00
 2755              	.LASF27:
 2756 007c 705F7072 		.ascii	"p_prio\000"
 2756      696F00
 2757              	.LASF116:
ARM GAS  /tmp/ccGus0PV.s 			page 50


 2758 0083 72656164 		.ascii	"readt\000"
 2758      7400
 2759              	.LASF67:
 2760 0089 715F7761 		.ascii	"q_waiting\000"
 2760      6974696E 
 2760      6700
 2761              	.LASF12:
 2762 0093 6C6F6E67 		.ascii	"long long int\000"
 2762      206C6F6E 
 2762      6720696E 
 2762      7400
 2763              	.LASF1:
 2764 00a1 7369676E 		.ascii	"signed char\000"
 2764      65642063 
 2764      68617200 
 2765              	.LASF122:
 2766 00ad 6D61726B 		.ascii	"mark\000"
 2766      00
 2767              	.LASF84:
 2768 00b2 47545052 		.ascii	"GTPR\000"
 2768      00
 2769              	.LASF43:
 2770 00b7 705F6D70 		.ascii	"p_mpool\000"
 2770      6F6F6C00 
 2771              	.LASF51:
 2772 00bf 6D5F7175 		.ascii	"m_queue\000"
 2772      65756500 
 2773              	.LASF18:
 2774 00c7 74736C69 		.ascii	"tslices_t\000"
 2774      6365735F 
 2774      7400
 2775              	.LASF131:
 2776 00d1 6274436F 		.ascii	"btCommandMode\000"
 2776      6D6D616E 
 2776      644D6F64 
 2776      6500
 2777              	.LASF104:
 2778 00df 73746174 		.ascii	"state\000"
 2778      6500
 2779              	.LASF9:
 2780 00e5 6C6F6E67 		.ascii	"long int\000"
 2780      20696E74 
 2780      00
 2781              	.LASF16:
 2782 00ee 74737461 		.ascii	"tstate_t\000"
 2782      74655F74 
 2782      00
 2783              	.LASF151:
 2784 00f7 636F6D6D 		.ascii	"commandMode\000"
 2784      616E644D 
 2784      6F646500 
 2785              	.LASF34:
 2786 0103 705F7265 		.ascii	"p_refs\000"
 2786      667300
 2787              	.LASF136:
 2788 010a 62745374 		.ascii	"btStart\000"
 2788      61727400 
ARM GAS  /tmp/ccGus0PV.s 			page 51


 2789              	.LASF69:
 2790 0112 715F6275 		.ascii	"q_buffer\000"
 2790      66666572 
 2790      00
 2791              	.LASF71:
 2792 011b 715F7772 		.ascii	"q_wrptr\000"
 2792      70747200 
 2793              	.LASF36:
 2794 0123 705F7469 		.ascii	"p_time\000"
 2794      6D6500
 2795              	.LASF135:
 2796 012a 62745265 		.ascii	"btReset\000"
 2796      73657400 
 2797              	.LASF29:
 2798 0132 705F6E65 		.ascii	"p_newer\000"
 2798      77657200 
 2799              	.LASF125:
 2800 013a 626C7565 		.ascii	"bluetoothConfig\000"
 2800      746F6F74 
 2800      68436F6E 
 2800      66696700 
 2801              	.LASF127:
 2802 014a 70617269 		.ascii	"parity\000"
 2802      747900
 2803              	.LASF90:
 2804 0151 4F535045 		.ascii	"OSPEEDR\000"
 2804      45445200 
 2805              	.LASF46:
 2806 0159 72656761 		.ascii	"regarm_t\000"
 2806      726D5F74 
 2806      00
 2807              	.LASF59:
 2808 0162 4576656E 		.ascii	"EventSource\000"
 2808      74536F75 
 2808      72636500 
 2809              	.LASF107:
 2810 016e 75736172 		.ascii	"usart\000"
 2810      7400
 2811              	.LASF0:
 2812 0174 756E7369 		.ascii	"unsigned int\000"
 2812      676E6564 
 2812      20696E74 
 2812      00
 2813              	.LASF6:
 2814 0181 75696E74 		.ascii	"uint16_t\000"
 2814      31365F74 
 2814      00
 2815              	.LASF117:
 2816 018a 736C6176 		.ascii	"slave\000"
 2816      6500
 2817              	.LASF150:
 2818 0190 62745365 		.ascii	"btSetCommandMode\000"
 2818      74436F6D 
 2818      6D616E64 
 2818      4D6F6465 
 2818      00
 2819              	.LASF105:
ARM GAS  /tmp/ccGus0PV.s 			page 52


 2820 01a1 69717565 		.ascii	"iqueue\000"
 2820      756500
 2821              	.LASF38:
 2822 01a8 705F6D73 		.ascii	"p_msgqueue\000"
 2822      67717565 
 2822      756500
 2823              	.LASF96:
 2824 01b3 4750494F 		.ascii	"GPIO_TypeDef\000"
 2824      5F547970 
 2824      65446566 
 2824      00
 2825              	.LASF114:
 2826 01c0 67657474 		.ascii	"gett\000"
 2826      00
 2827              	.LASF129:
 2828 01c5 6E616D65 		.ascii	"name\000"
 2828      00
 2829              	.LASF103:
 2830 01ca 6576656E 		.ascii	"event\000"
 2830      7400
 2831              	.LASF7:
 2832 01d0 73686F72 		.ascii	"short unsigned int\000"
 2832      7420756E 
 2832      7369676E 
 2832      65642069 
 2832      6E7400
 2833              	.LASF124:
 2834 01e3 73706163 		.ascii	"space\000"
 2834      6500
 2835              	.LASF149:
 2836 01e9 2F686F6D 		.ascii	"/home/dpeter/devel/projects/chibios-bluetooth\000"
 2836      652F6470 
 2836      65746572 
 2836      2F646576 
 2836      656C2F70 
 2837              	.LASF20:
 2838 0217 6D73675F 		.ascii	"msg_t\000"
 2838      7400
 2839              	.LASF106:
 2840 021d 6F717565 		.ascii	"oqueue\000"
 2840      756500
 2841              	.LASF86:
 2842 0224 55534152 		.ascii	"USART_TypeDef\000"
 2842      545F5479 
 2842      70654465 
 2842      6600
 2843              	.LASF115:
 2844 0232 77726974 		.ascii	"writet\000"
 2844      657400
 2845              	.LASF15:
 2846 0239 746D6F64 		.ascii	"tmode_t\000"
 2846      655F7400 
 2847              	.LASF45:
 2848 0241 54687265 		.ascii	"ThreadsList\000"
 2848      6164734C 
 2848      69737400 
 2849              	.LASF21:
ARM GAS  /tmp/ccGus0PV.s 			page 53


 2850 024d 6576656E 		.ascii	"eventmask_t\000"
 2850      746D6173 
 2850      6B5F7400 
 2851              	.LASF76:
 2852 0259 496E7075 		.ascii	"InputQueue\000"
 2852      74517565 
 2852      756500
 2853              	.LASF108:
 2854 0264 73706565 		.ascii	"speed\000"
 2854      6400
 2855              	.LASF75:
 2856 026a 716E6F74 		.ascii	"qnotify_t\000"
 2856      6966795F 
 2856      7400
 2857              	.LASF66:
 2858 0274 47656E65 		.ascii	"GenericQueue\000"
 2858      72696351 
 2858      75657565 
 2858      00
 2859              	.LASF146:
 2860 0281 63684F51 		.ascii	"chOQWriteTimeout\000"
 2860      57726974 
 2860      6554696D 
 2860      656F7574 
 2860      00
 2861              	.LASF44:
 2862 0292 54687265 		.ascii	"ThreadsQueue\000"
 2862      61647351 
 2862      75657565 
 2862      00
 2863              	.LASF111:
 2864 029f 77726974 		.ascii	"write\000"
 2864      6500
 2865              	.LASF113:
 2866 02a5 70757474 		.ascii	"putt\000"
 2866      00
 2867              	.LASF137:
 2868 02aa 62745374 		.ascii	"btStartInAt\000"
 2868      61727449 
 2868      6E417400 
 2869              	.LASF49:
 2870 02b6 73697A65 		.ascii	"sizetype\000"
 2870      74797065 
 2870      00
 2871              	.LASF118:
 2872 02bf 6D617374 		.ascii	"master\000"
 2872      657200
 2873              	.LASF87:
 2874 02c6 636C6561 		.ascii	"clear\000"
 2874      7200
 2875              	.LASF50:
 2876 02cc 4D757465 		.ascii	"Mutex\000"
 2876      7800
 2877              	.LASF121:
 2878 02d2 6576656E 		.ascii	"even\000"
 2878      00
 2879              	.LASF30:
ARM GAS  /tmp/ccGus0PV.s 			page 54


 2880 02d7 705F6F6C 		.ascii	"p_older\000"
 2880      64657200 
 2881              	.LASF110:
 2882 02df 53657269 		.ascii	"SerialDriverVMT\000"
 2882      616C4472 
 2882      69766572 
 2882      564D5400 
 2883              	.LASF145:
 2884 02ef 73645374 		.ascii	"sdStop\000"
 2884      6F7000
 2885              	.LASF147:
 2886 02f6 474E5520 		.ascii	"GNU C 4.7.3\000"
 2886      4320342E 
 2886      372E3300 
 2887              	.LASF57:
 2888 0302 656C5F6D 		.ascii	"el_mask\000"
 2888      61736B00 
 2889              	.LASF143:
 2890 030a 63685468 		.ascii	"chThdSleep\000"
 2890      64536C65 
 2890      657000
 2891              	.LASF133:
 2892 0315 636F6D6D 		.ascii	"commMode\000"
 2892      4D6F6465 
 2892      00
 2893              	.LASF109:
 2894 031e 53657269 		.ascii	"SerialConfig\000"
 2894      616C436F 
 2894      6E666967 
 2894      00
 2895              	.LASF95:
 2896 032b 41465248 		.ascii	"AFRH\000"
 2896      00
 2897              	.LASF94:
 2898 0330 4146524C 		.ascii	"AFRL\000"
 2898      00
 2899              	.LASF139:
 2900 0335 62744174 		.ascii	"btAtResetDefaults\000"
 2900      52657365 
 2900      74446566 
 2900      61756C74 
 2900      7300
 2901              	.LASF17:
 2902 0347 74726566 		.ascii	"trefs_t\000"
 2902      735F7400 
 2903              	.LASF78:
 2904 034f 52455345 		.ascii	"RESERVED0\000"
 2904      52564544 
 2904      3000
 2905              	.LASF79:
 2906 0359 52455345 		.ascii	"RESERVED1\000"
 2906      52564544 
 2906      3100
 2907              	.LASF80:
 2908 0363 52455345 		.ascii	"RESERVED2\000"
 2908      52564544 
 2908      3200
ARM GAS  /tmp/ccGus0PV.s 			page 55


 2909              	.LASF81:
 2910 036d 52455345 		.ascii	"RESERVED3\000"
 2910      52564544 
 2910      3300
 2911              	.LASF82:
 2912 0377 52455345 		.ascii	"RESERVED4\000"
 2912      52564544 
 2912      3400
 2913              	.LASF26:
 2914 0381 705F7072 		.ascii	"p_prev\000"
 2914      657600
 2915              	.LASF85:
 2916 0388 52455345 		.ascii	"RESERVED6\000"
 2916      52564544 
 2916      3600
 2917              	.LASF19:
 2918 0392 74707269 		.ascii	"tprio_t\000"
 2918      6F5F7400 
 2919              	.LASF72:
 2920 039a 715F7264 		.ascii	"q_rdptr\000"
 2920      70747200 
 2921              	.LASF14:
 2922 03a2 5F426F6F 		.ascii	"_Bool\000"
 2922      6C00
 2923              	.LASF8:
 2924 03a8 696E7433 		.ascii	"int32_t\000"
 2924      325F7400 
 2925              	.LASF4:
 2926 03b0 756E7369 		.ascii	"unsigned char\000"
 2926      676E6564 
 2926      20636861 
 2926      7200
 2927              	.LASF56:
 2928 03be 656C5F6C 		.ascii	"el_listener\000"
 2928      69737465 
 2928      6E657200 
 2929              	.LASF58:
 2930 03ca 656C5F66 		.ascii	"el_flags\000"
 2930      6C616773 
 2930      00
 2931              	.LASF41:
 2932 03d3 705F6D74 		.ascii	"p_mtxlist\000"
 2932      786C6973 
 2932      7400
 2933              	.LASF5:
 2934 03dd 73686F72 		.ascii	"short int\000"
 2934      7420696E 
 2934      7400
 2935              	.LASF32:
 2936 03e7 705F7374 		.ascii	"p_state\000"
 2936      61746500 
 2937              	.LASF35:
 2938 03ef 705F7072 		.ascii	"p_preempt\000"
 2938      65656D70 
 2938      7400
 2939              	.LASF64:
 2940 03f9 65776D61 		.ascii	"ewmask\000"
ARM GAS  /tmp/ccGus0PV.s 			page 56


 2940      736B00
 2941              	.LASF25:
 2942 0400 705F6E65 		.ascii	"p_next\000"
 2942      787400
 2943              	.LASF33:
 2944 0407 705F666C 		.ascii	"p_flags\000"
 2944      61677300 
 2945              	.LASF55:
 2946 040f 656C5F6E 		.ascii	"el_next\000"
 2946      65787400 
 2947              	.LASF99:
 2948 0417 53445F53 		.ascii	"SD_STOP\000"
 2948      544F5000 
 2949              	.LASF132:
 2950 041f 61744D6F 		.ascii	"atMode\000"
 2950      646500
 2951              	.LASF24:
 2952 0426 54687265 		.ascii	"Thread\000"
 2952      616400
 2953              	.LASF93:
 2954 042d 4C434B52 		.ascii	"LCKR\000"
 2954      00
 2955              	.LASF22:
 2956 0432 666C6167 		.ascii	"flagsmask_t\000"
 2956      736D6173 
 2956      6B5F7400 
 2957              	.LASF40:
 2958 043e 705F6570 		.ascii	"p_epending\000"
 2958      656E6469 
 2958      6E6700
 2959              	.LASF98:
 2960 0449 53445F55 		.ascii	"SD_UNINIT\000"
 2960      4E494E49 
 2960      5400
 2961              	.LASF83:
 2962 0453 52455345 		.ascii	"RESERVED5\000"
 2962      52564544 
 2962      3500
 2963              	.LASF134:
 2964 045d 6C6F6F70 		.ascii	"loopback\000"
 2964      6261636B 
 2964      00
 2965              	.LASF68:
 2966 0466 715F636F 		.ascii	"q_counter\000"
 2966      756E7465 
 2966      7200
 2967              	.LASF126:
 2968 0470 62617564 		.ascii	"baud\000"
 2968      00
 2969              	.LASF102:
 2970 0475 53657269 		.ascii	"SerialDriver\000"
 2970      616C4472 
 2970      69766572 
 2970      00
 2971              	.LASF11:
 2972 0482 6C6F6E67 		.ascii	"long unsigned int\000"
 2972      20756E73 
ARM GAS  /tmp/ccGus0PV.s 			page 57


 2972      69676E65 
 2972      6420696E 
 2972      7400
 2973              	.LASF112:
 2974 0494 72656164 		.ascii	"read\000"
 2974      00
 2975              	.LASF65:
 2976 0499 63686172 		.ascii	"char\000"
 2976      00
 2977              	.LASF130:
 2978 049e 6D6F6465 		.ascii	"mode\000"
 2978      00
 2979              	.LASF144:
 2980 04a3 73645374 		.ascii	"sdStart\000"
 2980      61727400 
 2981              	.LASF53:
 2982 04ab 6D5F6E65 		.ascii	"m_next\000"
 2982      787400
 2983              	.LASF23:
 2984 04b2 73797374 		.ascii	"systime_t\000"
 2984      696D655F 
 2984      7400
 2985              	.LASF42:
 2986 04bc 705F7265 		.ascii	"p_realprio\000"
 2986      616C7072 
 2986      696F00
 2987              	.LASF152:
 2988 04c7 6D79426C 		.ascii	"myBluetoothConfig\000"
 2988      7565746F 
 2988      6F746843 
 2988      6F6E6669 
 2988      6700
 2989              	.LASF48:
 2990 04d9 636F6E74 		.ascii	"context\000"
 2990      65787400 
 2991              	.LASF47:
 2992 04e1 696E7463 		.ascii	"intctx\000"
 2992      747800
 2993              	.LASF100:
 2994 04e8 53445F52 		.ascii	"SD_READY\000"
 2994      45414459 
 2994      00
 2995              	.LASF10:
 2996 04f1 75696E74 		.ascii	"uint32_t\000"
 2996      33325F74 
 2996      00
 2997              	.LASF101:
 2998 04fa 73647374 		.ascii	"sdstate_t\000"
 2998      6174655F 
 2998      7400
 2999              	.LASF148:
 3000 0504 626C7565 		.ascii	"bluetooth.c\000"
 3000      746F6F74 
 3000      682E6300 
 3001              	.LASF70:
 3002 0510 715F746F 		.ascii	"q_top\000"
 3002      7000
ARM GAS  /tmp/ccGus0PV.s 			page 58


 3003              	.LASF31:
 3004 0516 705F6E61 		.ascii	"p_name\000"
 3004      6D6500
 3005              	.LASF60:
 3006 051d 65735F6E 		.ascii	"es_next\000"
 3006      65787400 
 3007              	.LASF92:
 3008 0525 42535252 		.ascii	"BSRR\000"
 3008      00
 3009              	.LASF140:
 3010 052a 62744174 		.ascii	"btAtSerialDriverConfig\000"
 3010      53657269 
 3010      616C4472 
 3010      69766572 
 3010      436F6E66 
 3011              	.LASF73:
 3012 0541 715F6E6F 		.ascii	"q_notify\000"
 3012      74696679 
 3012      00
 3013              	.LASF3:
 3014 054a 75696E74 		.ascii	"uint8_t\000"
 3014      385F7400 
 3015              	.LASF141:
 3016 0552 6274436F 		.ascii	"btCommSerialDriverConfig\000"
 3016      6D6D5365 
 3016      7269616C 
 3016      44726976 
 3016      6572436F 
 3017              	.LASF54:
 3018 056b 4576656E 		.ascii	"EventListener\000"
 3018      744C6973 
 3018      74656E65 
 3018      7200
 3019              	.LASF63:
 3020 0579 77746F62 		.ascii	"wtobjp\000"
 3020      6A7000
 3021              	.LASF119:
 3022 0580 62745F6D 		.ascii	"bt_modes\000"
 3022      6F646573 
 3022      00
 3023              	.LASF39:
 3024 0589 705F6D73 		.ascii	"p_msg\000"
 3024      6700
 3025              	.LASF74:
 3026 058f 715F6C69 		.ascii	"q_link\000"
 3026      6E6B00
 3027              	.LASF128:
 3028 0596 73746F70 		.ascii	"stop\000"
 3028      00
 3029              	.LASF52:
 3030 059b 6D5F6F77 		.ascii	"m_owner\000"
 3030      6E657200 
 3031              	.LASF28:
 3032 05a3 705F6374 		.ascii	"p_ctx\000"
 3032      7800
 3033              	.LASF37:
 3034 05a9 705F7761 		.ascii	"p_waiting\000"
ARM GAS  /tmp/ccGus0PV.s 			page 59


 3034      6974696E 
 3034      6700
 3035              		.ident	"GCC: (Sourcery CodeBench Lite 2013.05-23) 4.7.3"
ARM GAS  /tmp/ccGus0PV.s 			page 60


DEFINED SYMBOLS
                            *ABS*:00000000 bluetooth.c
     /tmp/ccGus0PV.s:19     .text.btReset:00000000 $t
     /tmp/ccGus0PV.s:25     .text.btReset:00000000 btReset
     /tmp/ccGus0PV.s:55     .text.btReset:00000014 $d
     /tmp/ccGus0PV.s:60     .text.btStart:00000000 $t
     /tmp/ccGus0PV.s:66     .text.btStart:00000000 btStart
     /tmp/ccGus0PV.s:83     .text.btStart:00000008 $d
     /tmp/ccGus0PV.s:89     .text.btStartInAt:00000000 $t
     /tmp/ccGus0PV.s:95     .text.btStartInAt:00000000 btStartInAt
     /tmp/ccGus0PV.s:112    .text.btStartInAt:00000008 $d
     /tmp/ccGus0PV.s:118    .text.btStop:00000000 $t
     /tmp/ccGus0PV.s:124    .text.btStop:00000000 btStop
     /tmp/ccGus0PV.s:140    .text.btStop:00000008 $d
     /tmp/ccGus0PV.s:145    .text.btSetCommandMode:00000000 $t
     /tmp/ccGus0PV.s:151    .text.btSetCommandMode:00000000 btSetCommandMode
     /tmp/ccGus0PV.s:224    .text.btSetCommandMode:00000050 $d
     /tmp/ccGus0PV.s:229    .text.btAtResetDefaults:00000000 $t
     /tmp/ccGus0PV.s:235    .text.btAtResetDefaults:00000000 btAtResetDefaults
     /tmp/ccGus0PV.s:254    .text.btAtResetDefaults:00000010 $d
     /tmp/ccGus0PV.s:260    .data.btCommSerialDriverConfig:00000000 $d
     /tmp/ccGus0PV.s:264    .data.btCommSerialDriverConfig:00000000 btCommSerialDriverConfig
     /tmp/ccGus0PV.s:268    .data.btAtSerialDriverConfig:00000000 $d
     /tmp/ccGus0PV.s:272    .data.btAtSerialDriverConfig:00000000 btAtSerialDriverConfig
     /tmp/ccGus0PV.s:276    .rodata.str1.4:00000000 $d
                     .debug_frame:00000010 $d
     /tmp/ccGus0PV.s:59     .text.btReset:00000018 $t
     /tmp/ccGus0PV.s:144    .text.btStop:0000000c $t
     /tmp/ccGus0PV.s:228    .text.btSetCommandMode:00000054 $t
     /tmp/ccGus0PV.s:259    .text.btAtResetDefaults:00000018 $t

UNDEFINED SYMBOLS
chThdSleep
sdStart
SD2
sdStop
chOQWriteTimeout
