ARM GAS  /tmp/ccRtUsYs.s 			page 1


   1              		.syntax unified
   2              		.cpu cortex-m4
   3              		.fpu softvfp
   4              		.eabi_attribute 20, 1
   5              		.eabi_attribute 21, 1
   6              		.eabi_attribute 23, 3
   7              		.eabi_attribute 24, 1
   8              		.eabi_attribute 25, 1
   9              		.eabi_attribute 26, 1
  10              		.eabi_attribute 30, 2
  11              		.eabi_attribute 34, 1
  12              		.eabi_attribute 18, 4
  13              		.thumb
  14              		.file	"chcore_v7m.c"
  15              		.text
  16              	.Ltext0:
  17              		.cfi_sections	.debug_frame
  18              		.section	.text._port_switch_from_isr,"ax",%progbits
  19              		.align	2
  20              		.p2align 4,,15
  21              		.global	_port_switch_from_isr
  22              		.thumb
  23              		.thumb_func
  24              		.type	_port_switch_from_isr, %function
  25              	_port_switch_from_isr:
  26              	.LFB11:
  27              		.file 1 "/home/dpeter/devel/sources/ChibiOS-RT/os/ports/GCC/ARMCMx/chcore_v7m.c"
  28              		.loc 1 200 0
  29              		.cfi_startproc
  30              		@ Naked Function: prologue and epilogue provided by programmer.
  31              		@ args = 0, pretend = 0, frame = 0
  32              		@ frame_needed = 0, uses_anonymous_args = 0
  33              		.loc 1 203 0
  34 0000 FFF7FEFF 		bl	chSchDoReschedule
  35              	.LVL0:
  36              		.loc 1 205 0
  37              	@ 205 "/home/dpeter/devel/sources/ChibiOS-RT/os/ports/GCC/ARMCMx/chcore_v7m.c" 1
  38              		_port_exit_from_isr:
  39              	@ 0 "" 2
  40              		.loc 1 207 0
  41              	@ 207 "/home/dpeter/devel/sources/ChibiOS-RT/os/ports/GCC/ARMCMx/chcore_v7m.c" 1
  42 0004 00DF     		svc     #0
  43              	@ 0 "" 2
  44              		.loc 1 214 0
  45              		.thumb
  46              		.cfi_endproc
  47              	.LFE11:
  48              		.size	_port_switch_from_isr, .-_port_switch_from_isr
  49 0006 00BFAFF3 		.section	.text.SVCallVector,"ax",%progbits
  49      0080AFF3 
  49      0080
  50              		.align	2
  51              		.p2align 4,,15
  52              		.global	SVCallVector
  53              		.thumb
  54              		.thumb_func
  55              		.type	SVCallVector, %function
ARM GAS  /tmp/ccRtUsYs.s 			page 2


  56              	SVCallVector:
  57              	.LFB8:
  58              		.loc 1 58 0
  59              		.cfi_startproc
  60              		@ args = 0, pretend = 0, frame = 0
  61              		@ frame_needed = 0, uses_anonymous_args = 0
  62              		@ link register save eliminated.
  63              		.loc 1 62 0
  64              	@ 62 "/home/dpeter/devel/sources/ChibiOS-RT/os/ports/GCC/ARMCMx/chcore_v7m.c" 1
  65 0000 EFF30983 		mrs     r3, PSP
  66              	@ 0 "" 2
  67              	.LVL1:
  68              		.loc 1 66 0
  69              		.thumb
  70 0004 2033     		adds	r3, r3, #32
  71              	.LVL2:
  72              		.loc 1 73 0
  73              	@ 73 "/home/dpeter/devel/sources/ChibiOS-RT/os/ports/GCC/ARMCMx/chcore_v7m.c" 1
  74 0006 83F30988 		msr     PSP, r3
  75              	@ 0 "" 2
  76              		.thumb
  77              	.LBB2:
  78              		.loc 1 74 0
  79 000a 0023     		movs	r3, #0
  80              	.LVL3:
  81              	@ 74 "/home/dpeter/devel/sources/ChibiOS-RT/os/ports/GCC/ARMCMx/chcore_v7m.c" 1
  82 000c 83F31188 		msr     BASEPRI, r3
  83              	@ 0 "" 2
  84              	.LVL4:
  85              		.thumb
  86 0010 7047     		bx	lr
  87              	.LBE2:
  88              		.cfi_endproc
  89              	.LFE8:
  90              		.size	SVCallVector, .-SVCallVector
  91 0012 00BFAFF3 		.section	.text._port_init,"ax",%progbits
  91      0080AFF3 
  91      0080AFF3 
  91      0080
  92              		.align	2
  93              		.p2align 4,,15
  94              		.global	_port_init
  95              		.thumb
  96              		.thumb_func
  97              		.type	_port_init, %function
  98              	_port_init:
  99              	.LFB9:
 100              		.loc 1 111 0
 101              		.cfi_startproc
 102              		@ args = 0, pretend = 0, frame = 0
 103              		@ frame_needed = 0, uses_anonymous_args = 0
 104 0000 08B5     		push	{r3, lr}
 105              	.LCFI0:
 106              		.cfi_def_cfa_offset 8
 107              		.cfi_offset 3, -8
 108              		.cfi_offset 14, -4
 109              		.loc 1 114 0
ARM GAS  /tmp/ccRtUsYs.s 			page 3


 110 0002 0A4B     		ldr	r3, .L4
 111 0004 0022     		movs	r2, #0
 112 0006 9A60     		str	r2, [r3, #8]
 113              		.loc 1 115 0
 114 0008 094A     		ldr	r2, .L4+4
 115              		.loc 1 118 0
 116 000a 0720     		movs	r0, #7
 117 000c 1021     		movs	r1, #16
 118              		.loc 1 115 0
 119 000e DA60     		str	r2, [r3, #12]
 120              		.loc 1 118 0
 121 0010 FFF7FEFF 		bl	nvicSetSystemHandlerPriority
 122              	.LVL5:
 123              		.loc 1 120 0
 124 0014 0A20     		movs	r0, #10
 125 0016 4FF40071 		mov	r1, #512
 126 001a FFF7FEFF 		bl	nvicSetSystemHandlerPriority
 127              	.LVL6:
 128              		.loc 1 122 0
 129 001e 0B20     		movs	r0, #11
 130 0020 8021     		movs	r1, #128
 131              		.loc 1 124 0
 132 0022 BDE80840 		pop	{r3, lr}
 133              		.loc 1 122 0
 134 0026 FFF7FEBF 		b	nvicSetSystemHandlerPriority
 135              	.LVL7:
 136              	.L5:
 137 002a 00BF     		.align	2
 138              	.L4:
 139 002c 00ED00E0 		.word	-536810240
 140 0030 0003FA05 		.word	100270848
 141              		.cfi_endproc
 142              	.LFE9:
 143              		.size	_port_init, .-_port_init
 144 0034 AFF30080 		.section	.text._port_irq_epilogue,"ax",%progbits
 144      AFF30080 
 144      AFF30080 
 145              		.align	2
 146              		.p2align 4,,15
 147              		.global	_port_irq_epilogue
 148              		.thumb
 149              		.thumb_func
 150              		.type	_port_irq_epilogue, %function
 151              	_port_irq_epilogue:
 152              	.LFB10:
 153              		.loc 1 141 0
 154              		.cfi_startproc
 155              		@ args = 0, pretend = 0, frame = 0
 156              		@ frame_needed = 0, uses_anonymous_args = 0
 157              		@ link register save eliminated.
 158              	.LBB3:
 159              		.loc 1 143 0
 160 0000 2023     		movs	r3, #32
 161              	.LVL8:
 162              	@ 143 "/home/dpeter/devel/sources/ChibiOS-RT/os/ports/GCC/ARMCMx/chcore_v7m.c" 1
 163 0002 83F31188 		msr     BASEPRI, r3
 164              	@ 0 "" 2
ARM GAS  /tmp/ccRtUsYs.s 			page 4


 165              	.LVL9:
 166              		.thumb
 167              	.LBE3:
 168              		.loc 1 144 0
 169 0006 164B     		ldr	r3, .L14
 170              	.LVL10:
 171 0008 5B68     		ldr	r3, [r3, #4]
 172 000a 13F40063 		ands	r3, r3, #2048
 173 000e 19D0     		beq	.L7
 174              	.LBB4:
 175              		.loc 1 148 0
 176              	@ 148 "/home/dpeter/devel/sources/ChibiOS-RT/os/ports/GCC/ARMCMx/chcore_v7m.c" 1
 177 0010 EFF30983 		mrs     r3, PSP
 178              	@ 0 "" 2
 179              	.LVL11:
 180              		.loc 1 152 0
 181              		.thumb
 182 0014 A3F12002 		sub	r2, r3, #32
 183              	.LVL12:
 184              		.loc 1 153 0
 185              	@ 153 "/home/dpeter/devel/sources/ChibiOS-RT/os/ports/GCC/ARMCMx/chcore_v7m.c" 1
 186 0018 82F30988 		msr     PSP, r2
 187              	@ 0 "" 2
 188              		.loc 1 158 0
 189              		.thumb
 190 001c 1149     		ldr	r1, .L14+4
 191              		.loc 1 154 0
 192 001e 4FF08070 		mov	r0, #16777216
 193              		.loc 1 158 0
 194 0022 8A69     		ldr	r2, [r1, #24]
 195              	.LVL13:
 196              		.loc 1 154 0
 197 0024 43F8040C 		str	r0, [r3, #-4]
 198              		.loc 1 158 0
 199 0028 D07F     		ldrb	r0, [r2, #31]	@ zero_extendqisi2
 200 002a 0968     		ldr	r1, [r1, #0]
 201 002c 9268     		ldr	r2, [r2, #8]
 202 002e 8968     		ldr	r1, [r1, #8]
 203 0030 58B1     		cbz	r0, .L8
 204              		.loc 1 158 0 is_stmt 0 discriminator 1
 205 0032 9142     		cmp	r1, r2
 206 0034 94BF     		ite	ls
 207 0036 0022     		movls	r2, #0
 208 0038 0122     		movhi	r2, #1
 209 003a 62B1     		cbz	r2, .L10
 210              	.L13:
 211              		.loc 1 160 0 is_stmt 1
 212 003c 0A4A     		ldr	r2, .L14+8
 213 003e 43F8082C 		str	r2, [r3, #-8]
 214 0042 7047     		bx	lr
 215              	.LVL14:
 216              	.L7:
 217              	.LBE4:
 218              	.LBB5:
 219              		.loc 1 190 0
 220              	@ 190 "/home/dpeter/devel/sources/ChibiOS-RT/os/ports/GCC/ARMCMx/chcore_v7m.c" 1
 221 0044 83F31188 		msr     BASEPRI, r3
ARM GAS  /tmp/ccRtUsYs.s 			page 5


 222              	@ 0 "" 2
 223              	.LVL15:
 224              		.thumb
 225 0048 7047     		bx	lr
 226              	.LVL16:
 227              	.L8:
 228              	.LBE5:
 229              	.LBB6:
 230              		.loc 1 158 0 discriminator 2
 231 004a 9142     		cmp	r1, r2
 232 004c 34BF     		ite	cc
 233 004e 0022     		movcc	r2, #0
 234 0050 0122     		movcs	r2, #1
 235 0052 002A     		cmp	r2, #0
 236 0054 F2D1     		bne	.L13
 237              	.L10:
 238              		.loc 1 169 0
 239 0056 054A     		ldr	r2, .L14+12
 240 0058 43F8082C 		str	r2, [r3, #-8]
 241 005c 7047     		bx	lr
 242              	.L15:
 243 005e 00BF     		.align	2
 244              	.L14:
 245 0060 00ED00E0 		.word	-536810240
 246 0064 00000000 		.word	rlist
 247 0068 00000000 		.word	_port_switch_from_isr
 248 006c 04000000 		.word	_port_exit_from_isr
 249              	.LBE6:
 250              		.cfi_endproc
 251              	.LFE10:
 252              		.size	_port_irq_epilogue, .-_port_irq_epilogue
 253              		.section	.text.SysTickVector,"ax",%progbits
 254              		.align	2
 255              		.p2align 4,,15
 256              		.global	SysTickVector
 257              		.thumb
 258              		.thumb_func
 259              		.type	SysTickVector, %function
 260              	SysTickVector:
 261              	.LFB7:
 262              		.loc 1 40 0
 263              		.cfi_startproc
 264              		@ args = 0, pretend = 0, frame = 0
 265              		@ frame_needed = 0, uses_anonymous_args = 0
 266 0000 08B5     		push	{r3, lr}
 267              	.LCFI1:
 268              		.cfi_def_cfa_offset 8
 269              		.cfi_offset 3, -8
 270              		.cfi_offset 14, -4
 271              	.LBB7:
 272              		.loc 1 44 0
 273 0002 2023     		movs	r3, #32
 274              	.LVL17:
 275              	@ 44 "/home/dpeter/devel/sources/ChibiOS-RT/os/ports/GCC/ARMCMx/chcore_v7m.c" 1
 276 0004 83F31188 		msr     BASEPRI, r3
 277              	@ 0 "" 2
 278              	.LVL18:
ARM GAS  /tmp/ccRtUsYs.s 			page 6


 279              		.thumb
 280              	.LBE7:
 281              		.loc 1 45 0
 282 0008 FFF7FEFF 		bl	chSysTimerHandlerI
 283              	.LVL19:
 284              	.LBB8:
 285              		.loc 1 46 0
 286 000c 0023     		movs	r3, #0
 287              	.LVL20:
 288              	@ 46 "/home/dpeter/devel/sources/ChibiOS-RT/os/ports/GCC/ARMCMx/chcore_v7m.c" 1
 289 000e 83F31188 		msr     BASEPRI, r3
 290              	@ 0 "" 2
 291              	.LVL21:
 292              		.thumb
 293              	.LBE8:
 294              		.loc 1 49 0
 295 0012 BDE80840 		pop	{r3, lr}
 296              		.loc 1 48 0
 297 0016 FFF7FEBF 		b	_port_irq_epilogue
 298              	.LVL22:
 299              		.cfi_endproc
 300              	.LFE7:
 301              		.size	SysTickVector, .-SysTickVector
 302              		.section	.text._port_switch,"ax",%progbits
 303              		.align	2
 304              		.p2align 4,,15
 305              		.global	_port_switch
 306              		.thumb
 307              		.thumb_func
 308              		.type	_port_switch, %function
 309              	_port_switch:
 310              	.LFB12:
 311              		.loc 1 229 0
 312              		.cfi_startproc
 313              		@ Naked Function: prologue and epilogue provided by programmer.
 314              		@ args = 0, pretend = 0, frame = 0
 315              		@ frame_needed = 0, uses_anonymous_args = 0
 316              	.LVL23:
 317              		.loc 1 231 0
 318              	@ 231 "/home/dpeter/devel/sources/ChibiOS-RT/os/ports/GCC/ARMCMx/chcore_v7m.c" 1
 319 0000 2DE9F04F 		push    {r4, r5, r6, r7, r8, r9, r10, r11, lr}
 320              	@ 0 "" 2
 321              		.loc 1 237 0
 322              	@ 237 "/home/dpeter/devel/sources/ChibiOS-RT/os/ports/GCC/ARMCMx/chcore_v7m.c" 1
 323 0004 C1F80CD0 		str     sp, [r1, #12]                          
 324 0008 D0F80CD0 		ldr     sp, [r0, #12]
 325              	@ 0 "" 2
 326              		.loc 1 243 0
 327              	@ 243 "/home/dpeter/devel/sources/ChibiOS-RT/os/ports/GCC/ARMCMx/chcore_v7m.c" 1
 328 000c BDE8F08F 		pop     {r4, r5, r6, r7, r8, r9, r10, r11, pc}
 329              	@ 0 "" 2
 330              		.loc 1 245 0
 331              		.thumb
 332              		.cfi_endproc
 333              	.LFE12:
 334              		.size	_port_switch, .-_port_switch
 335              		.section	.text._port_thread_start,"ax",%progbits
ARM GAS  /tmp/ccRtUsYs.s 			page 7


 336              		.align	2
 337              		.p2align 4,,15
 338              		.global	_port_thread_start
 339              		.thumb
 340              		.thumb_func
 341              		.type	_port_thread_start, %function
 342              	_port_thread_start:
 343              	.LFB13:
 344              		.loc 1 252 0
 345              		.cfi_startproc
 346              		@ args = 0, pretend = 0, frame = 0
 347              		@ frame_needed = 0, uses_anonymous_args = 0
 348              		@ link register save eliminated.
 349              	.LBB9:
 350              		.loc 1 254 0
 351 0000 0023     		movs	r3, #0
 352              	.LVL24:
 353              	@ 254 "/home/dpeter/devel/sources/ChibiOS-RT/os/ports/GCC/ARMCMx/chcore_v7m.c" 1
 354 0002 83F31188 		msr     BASEPRI, r3
 355              	@ 0 "" 2
 356              	.LVL25:
 357              		.thumb
 358              	.LBE9:
 359              		.loc 1 255 0
 360              	@ 255 "/home/dpeter/devel/sources/ChibiOS-RT/os/ports/GCC/ARMCMx/chcore_v7m.c" 1
 361 0006 2846     		mov     r0, r5                                 
 362 0008 A047     		blx     r4                                     
 363 000a FFF7FEFF 		bl      chThdExit
 364              	@ 0 "" 2
 365              		.thumb
 366 000e 7047     		bx	lr
 367              		.cfi_endproc
 368              	.LFE13:
 369              		.size	_port_thread_start, .-_port_thread_start
 370              		.text
 371              	.Letext0:
 372              		.file 2 "/home/dpeter/CodeSourcery/Sourcery_CodeBench_Lite_for_ARM_EABI/bin/../lib/gcc/arm-none-ea
 373              		.file 3 "/home/dpeter/devel/sources/ChibiOS-RT/os/ports/GCC/ARMCMx/chtypes.h"
 374              		.file 4 "/home/dpeter/devel/sources/ChibiOS-RT/os/kernel/include/chlists.h"
 375              		.file 5 "/home/dpeter/devel/sources/ChibiOS-RT/os/kernel/include/chthreads.h"
 376              		.file 6 "/home/dpeter/devel/sources/ChibiOS-RT/os/ports/GCC/ARMCMx/chcore_v7m.h"
 377              		.file 7 "/home/dpeter/devel/sources/ChibiOS-RT/os/ports/common/ARMCMx/nvic.h"
 378              		.file 8 "/home/dpeter/devel/sources/ChibiOS-RT/os/kernel/include/chschd.h"
 379              		.file 9 "/home/dpeter/devel/sources/ChibiOS-RT/os/kernel/include/chmtx.h"
 380              		.file 10 "/home/dpeter/devel/sources/ChibiOS-RT/os/kernel/include/chsys.h"