ARM GAS  /tmp/ccBcNyTf.s 			page 1


   1              		.syntax unified
   2              		.cpu cortex-m4
   3              		.fpu softvfp
   4              		.eabi_attribute 20, 1
   5              		.eabi_attribute 21, 1
   6              		.eabi_attribute 23, 3
   7              		.eabi_attribute 24, 1
   8              		.eabi_attribute 25, 1
   9              		.eabi_attribute 26, 1
  10              		.eabi_attribute 30, 2
  11              		.eabi_attribute 34, 1
  12              		.eabi_attribute 18, 4
  13              		.thumb
  14              		.file	"chmsg.c"
  15              		.text
  16              	.Ltext0:
  17              		.cfi_sections	.debug_frame
  18              		.section	.text.chMsgSend,"ax",%progbits
  19              		.align	2
  20              		.p2align 4,,15
  21              		.global	chMsgSend
  22              		.thumb
  23              		.thumb_func
  24              		.type	chMsgSend, %function
  25              	chMsgSend:
  26              	.LFB7:
  27              		.file 1 "/home/dpeter/devel/sources/ChibiOS-RT/os/kernel/src/chmsg.c"
  28              		.loc 1 68 0
  29              		.cfi_startproc
  30              		@ args = 0, pretend = 0, frame = 0
  31              		@ frame_needed = 0, uses_anonymous_args = 0
  32              	.LVL0:
  33 0000 70B5     		push	{r4, r5, r6, lr}
  34              	.LCFI0:
  35              		.cfi_def_cfa_offset 16
  36              		.cfi_offset 4, -16
  37              		.cfi_offset 5, -12
  38              		.cfi_offset 6, -8
  39              		.cfi_offset 14, -4
  40              		.loc 1 69 0
  41 0002 0E4B     		ldr	r3, .L5
  42 0004 9C69     		ldr	r4, [r3, #24]
  43              	.LVL1:
  44              	.LBB10:
  45              		.loc 1 73 0
  46 0006 2023     		movs	r3, #32
  47              	.LVL2:
  48              	@ 73 "/home/dpeter/devel/sources/ChibiOS-RT/os/kernel/src/chmsg.c" 1
  49 0008 83F31188 		msr     BASEPRI, r3
  50              	@ 0 "" 2
  51              	.LVL3:
  52              		.thumb
  53              	.LBE10:
  54              		.loc 1 75 0
  55 000c 00F12C05 		add	r5, r0, #44
  56 0010 6562     		str	r5, [r4, #36]
  57              	.LVL4:
ARM GAS  /tmp/ccBcNyTf.s 			page 2


  58              		.loc 1 77 0
  59 0012 067F     		ldrb	r6, [r0, #28]	@ zero_extendqisi2
  60              	.LBB11:
  61              	.LBB12:
  62              		.file 2 "/home/dpeter/devel/sources/ChibiOS-RT/os/kernel/include/chinline.h"
  63              		.loc 2 48 0
  64 0014 036B     		ldr	r3, [r0, #48]
  65              	.LVL5:
  66              		.loc 2 47 0
  67 0016 2560     		str	r5, [r4, #0]
  68              	.LBE12:
  69              	.LBE11:
  70              		.loc 1 77 0
  71 0018 0C2E     		cmp	r6, #12
  72              		.loc 1 74 0
  73 001a 6163     		str	r1, [r4, #52]
  74              	.LBB14:
  75              	.LBB13:
  76              		.loc 2 48 0
  77 001c 6360     		str	r3, [r4, #4]
  78              		.loc 2 49 0
  79 001e 0463     		str	r4, [r0, #48]
  80 0020 1C60     		str	r4, [r3, #0]
  81              	.LBE13:
  82              	.LBE14:
  83              		.loc 1 77 0
  84 0022 07D0     		beq	.L4
  85              	.LVL6:
  86              	.L2:
  87              		.loc 1 79 0
  88 0024 0A20     		movs	r0, #10
  89 0026 FFF7FEFF 		bl	chSchGoSleepS
  90              	.LVL7:
  91              		.loc 1 80 0
  92 002a 606A     		ldr	r0, [r4, #36]
  93              	.LVL8:
  94              	.LBB15:
  95              		.loc 1 81 0
  96 002c 0023     		movs	r3, #0
  97              	.LVL9:
  98              	@ 81 "/home/dpeter/devel/sources/ChibiOS-RT/os/kernel/src/chmsg.c" 1
  99 002e 83F31188 		msr     BASEPRI, r3
 100              	@ 0 "" 2
 101              	.LVL10:
 102              		.thumb
 103              	.LBE15:
 104              		.loc 1 83 0
 105 0032 70BD     		pop	{r4, r5, r6, pc}
 106              	.LVL11:
 107              	.L4:
 108              		.loc 1 78 0
 109 0034 FFF7FEFF 		bl	chSchReadyI
 110              	.LVL12:
 111 0038 F4E7     		b	.L2
 112              	.L6:
 113 003a 00BF     		.align	2
 114              	.L5:
ARM GAS  /tmp/ccBcNyTf.s 			page 3


 115 003c 00000000 		.word	rlist
 116              		.cfi_endproc
 117              	.LFE7:
 118              		.size	chMsgSend, .-chMsgSend
 119              		.section	.text.chMsgWait,"ax",%progbits
 120              		.align	2
 121              		.p2align 4,,15
 122              		.global	chMsgWait
 123              		.thumb
 124              		.thumb_func
 125              		.type	chMsgWait, %function
 126              	chMsgWait:
 127              	.LFB8:
 128              		.loc 1 99 0
 129              		.cfi_startproc
 130              		@ args = 0, pretend = 0, frame = 0
 131              		@ frame_needed = 0, uses_anonymous_args = 0
 132 0000 10B5     		push	{r4, lr}
 133              	.LCFI1:
 134              		.cfi_def_cfa_offset 8
 135              		.cfi_offset 4, -8
 136              		.cfi_offset 14, -4
 137              	.LBB16:
 138              		.loc 1 102 0
 139 0002 2023     		movs	r3, #32
 140              	.LVL13:
 141              	@ 102 "/home/dpeter/devel/sources/ChibiOS-RT/os/kernel/src/chmsg.c" 1
 142 0004 83F31188 		msr     BASEPRI, r3
 143              	@ 0 "" 2
 144              	.LVL14:
 145              		.thumb
 146              	.LBE16:
 147              		.loc 1 103 0
 148 0008 0B4C     		ldr	r4, .L10
 149 000a A369     		ldr	r3, [r4, #24]
 150              	.LVL15:
 151 000c 1A46     		mov	r2, r3
 152 000e 52F82C0F 		ldr	r0, [r2, #44]!
 153 0012 9042     		cmp	r0, r2
 154 0014 08D0     		beq	.L9
 155              	.L8:
 156              	.LVL16:
 157              	.LBB17:
 158              	.LBB18:
 159              		.loc 2 55 0
 160 0016 0168     		ldr	r1, [r0, #0]
 161 0018 D962     		str	r1, [r3, #44]
 162 001a 4A60     		str	r2, [r1, #4]
 163              	.LBE18:
 164              	.LBE17:
 165              		.loc 1 106 0
 166 001c 0B22     		movs	r2, #11
 167 001e 0277     		strb	r2, [r0, #28]
 168              	.LBB19:
 169              		.loc 1 107 0
 170 0020 0023     		movs	r3, #0
 171              	.LVL17:
ARM GAS  /tmp/ccBcNyTf.s 			page 4


 172              	@ 107 "/home/dpeter/devel/sources/ChibiOS-RT/os/kernel/src/chmsg.c" 1
 173 0022 83F31188 		msr     BASEPRI, r3
 174              	@ 0 "" 2
 175              	.LVL18:
 176              		.thumb
 177              	.LBE19:
 178              		.loc 1 109 0
 179 0026 10BD     		pop	{r4, pc}
 180              	.LVL19:
 181              	.L9:
 182              		.loc 1 104 0
 183 0028 0C20     		movs	r0, #12
 184 002a FFF7FEFF 		bl	chSchGoSleepS
 185              	.LVL20:
 186 002e A369     		ldr	r3, [r4, #24]
 187 0030 1A46     		mov	r2, r3
 188 0032 52F82C0F 		ldr	r0, [r2, #44]!
 189 0036 EEE7     		b	.L8
 190              	.L11:
 191              		.align	2
 192              	.L10:
 193 0038 00000000 		.word	rlist
 194              		.cfi_endproc
 195              	.LFE8:
 196              		.size	chMsgWait, .-chMsgWait
 197 003c AFF30080 		.section	.text.chMsgRelease,"ax",%progbits
 198              		.align	2
 199              		.p2align 4,,15
 200              		.global	chMsgRelease
 201              		.thumb
 202              		.thumb_func
 203              		.type	chMsgRelease, %function
 204              	chMsgRelease:
 205              	.LFB9:
 206              		.loc 1 121 0
 207              		.cfi_startproc
 208              		@ args = 0, pretend = 0, frame = 0
 209              		@ frame_needed = 0, uses_anonymous_args = 0
 210              	.LVL21:
 211 0000 08B5     		push	{r3, lr}
 212              	.LCFI2:
 213              		.cfi_def_cfa_offset 8
 214              		.cfi_offset 3, -8
 215              		.cfi_offset 14, -4
 216              	.LBB20:
 217              		.loc 1 123 0
 218 0002 2023     		movs	r3, #32
 219              	.LVL22:
 220              	@ 123 "/home/dpeter/devel/sources/ChibiOS-RT/os/kernel/src/chmsg.c" 1
 221 0004 83F31188 		msr     BASEPRI, r3
 222              	@ 0 "" 2
 223              	.LVL23:
 224              		.thumb
 225              	.LBE20:
 226              		.loc 1 126 0
 227 0008 FFF7FEFF 		bl	chSchWakeupS
 228              	.LVL24:
ARM GAS  /tmp/ccBcNyTf.s 			page 5


 229              	.LBB21:
 230              		.loc 1 127 0
 231 000c 0023     		movs	r3, #0
 232              	.LVL25:
 233              	@ 127 "/home/dpeter/devel/sources/ChibiOS-RT/os/kernel/src/chmsg.c" 1
 234 000e 83F31188 		msr     BASEPRI, r3
 235              	@ 0 "" 2
 236              	.LVL26:
 237              		.thumb
 238 0012 08BD     		pop	{r3, pc}
 239              	.LBE21:
 240              		.cfi_endproc
 241              	.LFE9:
 242              		.size	chMsgRelease, .-chMsgRelease
 243 0014 AFF30080 		.text
 243      AFF30080 
 243      AFF30080 
 244              	.Letext0:
 245              		.file 3 "/home/dpeter/CodeSourcery/Sourcery_CodeBench_Lite_for_ARM_EABI/bin/../lib/gcc/arm-none-ea
 246              		.file 4 "/home/dpeter/devel/sources/ChibiOS-RT/os/ports/GCC/ARMCMx/chtypes.h"
 247              		.file 5 "/home/dpeter/devel/sources/ChibiOS-RT/os/kernel/include/chlists.h"
 248              		.file 6 "/home/dpeter/devel/sources/ChibiOS-RT/os/kernel/include/chthreads.h"
 249              		.file 7 "/home/dpeter/devel/sources/ChibiOS-RT/os/ports/GCC/ARMCMx/chcore_v7m.h"
 250              		.file 8 "/home/dpeter/devel/sources/ChibiOS-RT/os/kernel/include/chschd.h"
 251              		.file 9 "/home/dpeter/devel/sources/ChibiOS-RT/os/kernel/include/chmtx.h"