ARM GAS  /tmp/ccnfYJZJ.s 			page 1


   1              		.syntax unified
   2              		.cpu cortex-m4
   3              		.fpu softvfp
   4              		.eabi_attribute 20, 1
   5              		.eabi_attribute 21, 1
   6              		.eabi_attribute 23, 3
   7              		.eabi_attribute 24, 1
   8              		.eabi_attribute 25, 1
   9              		.eabi_attribute 26, 1
  10              		.eabi_attribute 30, 2
  11              		.eabi_attribute 34, 1
  12              		.eabi_attribute 18, 4
  13              		.thumb
  14              		.file	"chprintf.c"
  15              		.text
  16              	.Ltext0:
  17              		.cfi_sections	.debug_frame
  18              		.section	.text.long_to_string_with_divisor.constprop.0,"ax",%progbits
  19              		.align	2
  20              		.p2align 4,,15
  21              		.thumb
  22              		.thumb_func
  23              		.type	long_to_string_with_divisor.constprop.0, %function
  24              	long_to_string_with_divisor.constprop.0:
  25              	.LFB10:
  26              		.file 1 "/home/dpeter/devel/sources/ChibiOS-RT/os/various/chprintf.c"
  27              		.loc 1 36 0
  28              		.cfi_startproc
  29              		@ args = 0, pretend = 0, frame = 0
  30              		@ frame_needed = 0, uses_anonymous_args = 0
  31              		@ link register save eliminated.
  32              	.LVL0:
  33 0000 F0B4     		push	{r4, r5, r6, r7}
  34              	.LCFI0:
  35              		.cfi_def_cfa_offset 16
  36              		.cfi_offset 4, -16
  37              		.cfi_offset 5, -12
  38              		.cfi_offset 6, -8
  39              		.cfi_offset 7, -4
  40              		.loc 1 51 0
  41 0002 00F10B0C 		add	ip, r0, #11
  42              	.LVL1:
  43              		.loc 1 36 0
  44 0006 00F10A05 		add	r5, r0, #10
  45 000a 0C46     		mov	r4, r1
  46              	.LVL2:
  47              	.L3:
  48              		.loc 1 53 0
  49 000c B1FBF2F6 		udiv	r6, r1, r2
  50 0010 02FB1611 		mls	r1, r2, r6, r1
  51              	.LVL3:
  52              		.loc 1 54 0
  53 0014 01F13003 		add	r3, r1, #48
  54              	.LVL4:
  55              		.loc 1 55 0
  56 0018 392B     		cmp	r3, #57
  57              		.loc 1 56 0
ARM GAS  /tmp/ccnfYJZJ.s 			page 2


  58 001a C8BF     		it	gt
  59 001c 01F13703 		addgt	r3, r1, #55
  60              	.LVL5:
  61              		.loc 1 59 0
  62 0020 B4FBF2F4 		udiv	r4, r4, r2
  63              	.LVL6:
  64              		.loc 1 57 0
  65 0024 2F46     		mov	r7, r5
  66              	.LVL7:
  67              		.loc 1 58 0
  68 0026 3146     		mov	r1, r6
  69              		.loc 1 57 0
  70 0028 05F80139 		strb	r3, [r5], #-1
  71              	.LVL8:
  72              		.loc 1 59 0
  73 002c 002C     		cmp	r4, #0
  74 002e EDD1     		bne	.L3
  75              	.LVL9:
  76              		.loc 1 61 0
  77 0030 C7EB0C01 		rsb	r1, r7, ip
  78              	.LVL10:
  79 0034 3A46     		mov	r2, r7
  80              	.LVL11:
  81              		.loc 1 36 0
  82 0036 4118     		adds	r1, r0, r1
  83              	.LVL12:
  84 0038 01E0     		b	.L5
  85              	.LVL13:
  86              	.L9:
  87 003a 12F8013F 		ldrb	r3, [r2, #1]!	@ zero_extendqisi2
  88              	.L5:
  89              		.loc 1 63 0
  90 003e 00F8013B 		strb	r3, [r0], #1
  91              	.LVL14:
  92              		.loc 1 64 0
  93 0042 8842     		cmp	r0, r1
  94 0044 F9D1     		bne	.L9
  95              		.loc 1 67 0
  96 0046 F0BC     		pop	{r4, r5, r6, r7}
  97 0048 7047     		bx	lr
  98              		.cfi_endproc
  99              	.LFE10:
 100              		.size	long_to_string_with_divisor.constprop.0, .-long_to_string_with_divisor.constprop.0
 101 004a 00BFAFF3 		.section	.text.chprintf,"ax",%progbits
 101      0080
 102              		.align	2
 103              		.p2align 4,,15
 104              		.global	chprintf
 105              		.thumb
 106              		.thumb_func
 107              		.type	chprintf, %function
 108              	chprintf:
 109              	.LFB9:
 110              		.loc 1 108 0
 111              		.cfi_startproc
 112              		@ args = 4, pretend = 12, frame = 24
 113              		@ frame_needed = 0, uses_anonymous_args = 1
ARM GAS  /tmp/ccnfYJZJ.s 			page 3


 114              	.LVL15:
 115 0000 0EB4     		push	{r1, r2, r3}
 116              	.LCFI1:
 117              		.cfi_def_cfa_offset 12
 118              		.cfi_offset 1, -12
 119              		.cfi_offset 2, -8
 120              		.cfi_offset 3, -4
 121 0002 2DE9F04F 		push	{r4, r5, r6, r7, r8, r9, sl, fp, lr}
 122              	.LCFI2:
 123              		.cfi_def_cfa_offset 48
 124              		.cfi_offset 4, -48
 125              		.cfi_offset 5, -44
 126              		.cfi_offset 6, -40
 127              		.cfi_offset 7, -36
 128              		.cfi_offset 8, -32
 129              		.cfi_offset 9, -28
 130              		.cfi_offset 10, -24
 131              		.cfi_offset 11, -20
 132              		.cfi_offset 14, -16
 133 0006 86B0     		sub	sp, sp, #24
 134              	.LCFI3:
 135              		.cfi_def_cfa_offset 72
 136              		.loc 1 108 0
 137 0008 0FAB     		add	r3, sp, #60
 138              		.loc 1 132 0
 139 000a 0DF10C08 		add	r8, sp, #12
 140              		.loc 1 108 0
 141 000e 53F8044B 		ldr	r4, [r3], #4
 142              		.loc 1 121 0
 143 0012 0293     		str	r3, [sp, #8]
 144              		.loc 1 236 0
 145 0014 0DF10D03 		add	r3, sp, #13
 146 0018 C8EB030C 		rsb	ip, r8, r3
 147 001c 0093     		str	r3, [sp, #0]
 148              		.loc 1 108 0
 149 001e 0646     		mov	r6, r0
 150 0020 CDF804C0 		str	ip, [sp, #4]
 151              	.LVL16:
 152              	.L79:
 153              		.loc 1 123 0
 154 0024 2546     		mov	r5, r4
 155 0026 15F8011B 		ldrb	r1, [r5], #1	@ zero_extendqisi2
 156              	.LVL17:
 157              		.loc 1 124 0
 158 002a 59B1     		cbz	r1, .L78
 159              	.LVL18:
 160              	.L83:
 161              		.loc 1 128 0
 162 002c 2529     		cmp	r1, #37
 163 002e 0ED0     		beq	.L13
 164              		.loc 1 129 0
 165 0030 3368     		ldr	r3, [r6, #0]
 166              		.loc 1 123 0
 167 0032 2C46     		mov	r4, r5
 168 0034 2546     		mov	r5, r4
 169              	.LVL19:
 170              		.loc 1 129 0
ARM GAS  /tmp/ccnfYJZJ.s 			page 4


 171 0036 3046     		mov	r0, r6
 172 0038 9B68     		ldr	r3, [r3, #8]
 173 003a 9847     		blx	r3
 174              	.LVL20:
 175              		.loc 1 123 0
 176 003c 15F8011B 		ldrb	r1, [r5], #1	@ zero_extendqisi2
 177              	.LVL21:
 178              		.loc 1 124 0
 179 0040 0029     		cmp	r1, #0
 180 0042 F3D1     		bne	.L83
 181              	.LVL22:
 182              	.L78:
 183              		.loc 1 261 0
 184 0044 06B0     		add	sp, sp, #24
 185 0046 BDE8F04F 		pop	{r4, r5, r6, r7, r8, r9, sl, fp, lr}
 186 004a 03B0     		add	sp, sp, #12
 187 004c 7047     		bx	lr
 188              	.L13:
 189              	.LVL23:
 190              		.loc 1 135 0
 191 004e 6378     		ldrb	r3, [r4, #1]	@ zero_extendqisi2
 192 0050 2D2B     		cmp	r3, #45
 193 0052 00F01281 		beq	.L84
 194              		.loc 1 134 0
 195 0056 4FF00009 		mov	r9, #0
 196              	.LVL24:
 197              	.L15:
 198              		.loc 1 140 0
 199 005a 2E2B     		cmp	r3, #46
 200 005c 00F00981 		beq	.L16
 201              		.loc 1 140 0 is_stmt 0 discriminator 1
 202 0060 302B     		cmp	r3, #48
 203 0062 00F00681 		beq	.L16
 204              		.loc 1 139 0 is_stmt 1
 205 0066 2027     		movs	r7, #32
 206              	.LVL25:
 207              	.L17:
 208              		.loc 1 142 0
 209 0068 2C46     		mov	r4, r5
 210 006a 0299     		ldr	r1, [sp, #8]
 211              		.loc 1 144 0
 212 006c 0025     		movs	r5, #0
 213              	.LVL26:
 214 006e 06E0     		b	.L20
 215              	.LVL27:
 216              	.L85:
 217              		.loc 1 150 0
 218 0070 0A78     		ldrb	r2, [r1, #0]	@ zero_extendqisi2
 219              	.LVL28:
 220 0072 0431     		adds	r1, r1, #4
 221              	.LVL29:
 222              	.L18:
 223              		.loc 1 153 0
 224 0074 05EB8505 		add	r5, r5, r5, lsl #2
 225              	.LVL30:
 226 0078 2378     		ldrb	r3, [r4, #0]	@ zero_extendqisi2
 227 007a 02EB4505 		add	r5, r2, r5, lsl #1
ARM GAS  /tmp/ccnfYJZJ.s 			page 5


 228              	.LVL31:
 229              	.L20:
 230              		.loc 1 147 0
 231 007e A3F13002 		sub	r2, r3, #48
 232 0082 D2B2     		uxtb	r2, r2
 233              		.loc 1 146 0
 234 0084 0134     		adds	r4, r4, #1
 235              	.LVL32:
 236              		.loc 1 147 0
 237 0086 092A     		cmp	r2, #9
 238 0088 F4D9     		bls	.L18
 239              		.loc 1 149 0
 240 008a 2A2B     		cmp	r3, #42
 241 008c F0D0     		beq	.L85
 242              		.loc 1 156 0
 243 008e 0020     		movs	r0, #0
 244 0090 2E2B     		cmp	r3, #46
 245 0092 0291     		str	r1, [sp, #8]
 246              	.LVL33:
 247 0094 4BD0     		beq	.L24
 248              	.LVL34:
 249              		.loc 1 170 0
 250 0096 6C2B     		cmp	r3, #108
 251 0098 55D0     		beq	.L25
 252              	.LVL35:
 253              	.L86:
 254              		.loc 1 170 0 is_stmt 0 discriminator 1
 255 009a 4C2B     		cmp	r3, #76
 256 009c 53D0     		beq	.L25
 257              		.loc 1 176 0 is_stmt 1
 258 009e A3F14101 		sub	r1, r3, #65
 259 00a2 1929     		cmp	r1, #25
 260 00a4 8CBF     		ite	hi
 261 00a6 0021     		movhi	r1, #0
 262 00a8 0121     		movls	r1, #1
 263              	.LVL36:
 264              	.L27:
 265              		.loc 1 179 0
 266 00aa A3F14402 		sub	r2, r3, #68
 267 00ae 342A     		cmp	r2, #52
 268 00b0 00F2D980 		bhi	.L28
 269 00b4 DFE812F0 		tbh	[pc, r2, lsl #1]
 270              	.L35:
 271 00b8 C800     		.2byte	(.L29-.L35)/2
 272 00ba D700     		.2byte	(.L28-.L35)/2
 273 00bc D700     		.2byte	(.L28-.L35)/2
 274 00be D700     		.2byte	(.L28-.L35)/2
 275 00c0 D700     		.2byte	(.L28-.L35)/2
 276 00c2 C800     		.2byte	(.L29-.L35)/2
 277 00c4 D700     		.2byte	(.L28-.L35)/2
 278 00c6 D700     		.2byte	(.L28-.L35)/2
 279 00c8 D700     		.2byte	(.L28-.L35)/2
 280 00ca D700     		.2byte	(.L28-.L35)/2
 281 00cc D700     		.2byte	(.L28-.L35)/2
 282 00ce C600     		.2byte	(.L30-.L35)/2
 283 00d0 D700     		.2byte	(.L28-.L35)/2
 284 00d2 D700     		.2byte	(.L28-.L35)/2
ARM GAS  /tmp/ccnfYJZJ.s 			page 6


 285 00d4 D700     		.2byte	(.L28-.L35)/2
 286 00d6 D700     		.2byte	(.L28-.L35)/2
 287 00d8 D700     		.2byte	(.L28-.L35)/2
 288 00da BE00     		.2byte	(.L58-.L35)/2
 289 00dc D700     		.2byte	(.L28-.L35)/2
 290 00de D700     		.2byte	(.L28-.L35)/2
 291 00e0 B100     		.2byte	(.L32-.L35)/2
 292 00e2 D700     		.2byte	(.L28-.L35)/2
 293 00e4 D700     		.2byte	(.L28-.L35)/2
 294 00e6 D700     		.2byte	(.L28-.L35)/2
 295 00e8 D700     		.2byte	(.L28-.L35)/2
 296 00ea D700     		.2byte	(.L28-.L35)/2
 297 00ec D700     		.2byte	(.L28-.L35)/2
 298 00ee D700     		.2byte	(.L28-.L35)/2
 299 00f0 D700     		.2byte	(.L28-.L35)/2
 300 00f2 D700     		.2byte	(.L28-.L35)/2
 301 00f4 D700     		.2byte	(.L28-.L35)/2
 302 00f6 9100     		.2byte	(.L33-.L35)/2
 303 00f8 C800     		.2byte	(.L29-.L35)/2
 304 00fa D700     		.2byte	(.L28-.L35)/2
 305 00fc D700     		.2byte	(.L28-.L35)/2
 306 00fe D700     		.2byte	(.L28-.L35)/2
 307 0100 D700     		.2byte	(.L28-.L35)/2
 308 0102 C800     		.2byte	(.L29-.L35)/2
 309 0104 D700     		.2byte	(.L28-.L35)/2
 310 0106 D700     		.2byte	(.L28-.L35)/2
 311 0108 D700     		.2byte	(.L28-.L35)/2
 312 010a D700     		.2byte	(.L28-.L35)/2
 313 010c D700     		.2byte	(.L28-.L35)/2
 314 010e C600     		.2byte	(.L30-.L35)/2
 315 0110 D700     		.2byte	(.L28-.L35)/2
 316 0112 D700     		.2byte	(.L28-.L35)/2
 317 0114 D700     		.2byte	(.L28-.L35)/2
 318 0116 4F00     		.2byte	(.L34-.L35)/2
 319 0118 D700     		.2byte	(.L28-.L35)/2
 320 011a BE00     		.2byte	(.L58-.L35)/2
 321 011c D700     		.2byte	(.L28-.L35)/2
 322 011e D700     		.2byte	(.L28-.L35)/2
 323 0120 B100     		.2byte	(.L32-.L35)/2
 324              	.LVL37:
 325              	.L23:
 326              		.loc 1 162 0
 327 0122 0A78     		ldrb	r2, [r1, #0]	@ zero_extendqisi2
 328              	.LVL38:
 329 0124 0431     		adds	r1, r1, #4
 330              	.LVL39:
 331              	.L22:
 332              		.loc 1 165 0
 333 0126 00EB8000 		add	r0, r0, r0, lsl #2
 334              	.LVL40:
 335              		.loc 1 166 0
 336 012a 02EB4000 		add	r0, r2, r0, lsl #1
 337              	.LVL41:
 338              	.L24:
 339              		.loc 1 158 0
 340 012e 14F8013B 		ldrb	r3, [r4], #1	@ zero_extendqisi2
 341              	.LVL42:
ARM GAS  /tmp/ccnfYJZJ.s 			page 7


 342              		.loc 1 159 0
 343 0132 A3F13002 		sub	r2, r3, #48
 344 0136 D2B2     		uxtb	r2, r2
 345 0138 092A     		cmp	r2, #9
 346 013a F4D9     		bls	.L22
 347              		.loc 1 161 0
 348 013c 2A2B     		cmp	r3, #42
 349 013e F0D0     		beq	.L23
 350              		.loc 1 170 0
 351 0140 6C2B     		cmp	r3, #108
 352 0142 0291     		str	r1, [sp, #8]
 353 0144 A9D1     		bne	.L86
 354              	.LVL43:
 355              	.L25:
 356              		.loc 1 172 0
 357 0146 2278     		ldrb	r2, [r4, #0]	@ zero_extendqisi2
 358 0148 002A     		cmp	r2, #0
 359 014a 00F09B80 		beq	.L57
 360              	.LVL44:
 361              		.loc 1 173 0
 362 014e 0134     		adds	r4, r4, #1
 363              	.LVL45:
 364 0150 1346     		mov	r3, r2
 365              		.loc 1 171 0
 366 0152 0121     		movs	r1, #1
 367 0154 A9E7     		b	.L27
 368              	.LVL46:
 369              	.L34:
 370              		.loc 1 186 0
 371 0156 029B     		ldr	r3, [sp, #8]
 372              	.LVL47:
 373              		.loc 1 187 0
 374 0158 5A4A     		ldr	r2, .L93
 375              	.LVL48:
 376              		.loc 1 186 0
 377 015a D3F800A0 		ldr	sl, [r3, #0]
 378              	.LVL49:
 379              		.loc 1 187 0
 380 015e BAF1000F 		cmp	sl, #0
 381 0162 08BF     		it	eq
 382 0164 9246     		moveq	sl, r2
 383              	.LVL50:
 384              		.loc 1 186 0
 385 0166 0433     		adds	r3, r3, #4
 386              		.loc 1 190 0
 387 0168 9AF80020 		ldrb	r2, [sl, #0]	@ zero_extendqisi2
 388              		.loc 1 186 0
 389 016c 0293     		str	r3, [sp, #8]
 390              		.loc 1 189 0
 391 016e 47F6FF73 		movw	r3, #32767
 392 0172 0028     		cmp	r0, #0
 393 0174 08BF     		it	eq
 394 0176 1846     		moveq	r0, r3
 395              	.LVL51:
 396              		.loc 1 190 0
 397 0178 002A     		cmp	r2, #0
 398 017a 00F09F80 		beq	.L61
ARM GAS  /tmp/ccnfYJZJ.s 			page 8


 399              	.LVL52:
 400 017e 5346     		mov	r3, sl
 401              		.loc 1 108 0
 402 0180 5044     		add	r0, sl, r0
 403              	.LVL53:
 404 0182 02E0     		b	.L40
 405              	.LVL54:
 406              	.L39:
 407              		.loc 1 190 0 discriminator 2
 408 0184 9042     		cmp	r0, r2
 409 0186 00F09580 		beq	.L87
 410              	.LVL55:
 411              	.L40:
 412              		.loc 1 190 0 is_stmt 0 discriminator 1
 413 018a 5978     		ldrb	r1, [r3, #1]	@ zero_extendqisi2
 414              		.loc 1 108 0 is_stmt 1 discriminator 1
 415 018c 5A1C     		adds	r2, r3, #1
 416              	.LVL56:
 417 018e 1346     		mov	r3, r2
 418              		.loc 1 190 0 discriminator 1
 419 0190 0029     		cmp	r1, #0
 420 0192 F7D1     		bne	.L39
 421 0194 CAEB020B 		rsb	fp, sl, r2
 422              		.loc 1 240 0
 423 0198 CBEB0505 		rsb	r5, fp, r5
 424              	.LVL57:
 425              		.loc 1 185 0
 426 019c 2027     		movs	r7, #32
 427              	.LVL58:
 428 019e 25EAE575 		bic	r5, r5, r5, asr #31
 429              	.LVL59:
 430              		.loc 1 242 0
 431 01a2 B9F1000F 		cmp	r9, #0
 432 01a6 29D0     		beq	.L88
 433              	.LVL60:
 434              	.L46:
 435              		.loc 1 253 0 discriminator 1
 436 01a8 BBF1000F 		cmp	fp, #0
 437              		.loc 1 108 0 discriminator 1
 438 01ac C8BF     		it	gt
 439 01ae 0AEB0B09 		addgt	r9, sl, fp
 440              	.LVL61:
 441              		.loc 1 253 0 discriminator 1
 442 01b2 07DD     		ble	.L52
 443              	.LVL62:
 444              	.L51:
 445              		.loc 1 254 0
 446 01b4 3368     		ldr	r3, [r6, #0]
 447 01b6 1AF8011B 		ldrb	r1, [sl], #1	@ zero_extendqisi2
 448              	.LVL63:
 449 01ba 9B68     		ldr	r3, [r3, #8]
 450 01bc 3046     		mov	r0, r6
 451 01be 9847     		blx	r3
 452              	.LVL64:
 453              		.loc 1 253 0
 454 01c0 CA45     		cmp	sl, r9
 455 01c2 F7D1     		bne	.L51
ARM GAS  /tmp/ccnfYJZJ.s 			page 9


 456              	.L52:
 457              	.LVL65:
 458              		.loc 1 256 0
 459 01c4 002D     		cmp	r5, #0
 460 01c6 3FF42DAF 		beq	.L79
 461              	.L69:
 462              		.loc 1 257 0
 463 01ca 3368     		ldr	r3, [r6, #0]
 464 01cc 3046     		mov	r0, r6
 465 01ce 9B68     		ldr	r3, [r3, #8]
 466 01d0 3946     		mov	r1, r7
 467 01d2 9847     		blx	r3
 468              	.LVL66:
 469              		.loc 1 256 0
 470 01d4 013D     		subs	r5, r5, #1
 471              	.LVL67:
 472 01d6 F8D1     		bne	.L69
 473 01d8 24E7     		b	.L79
 474              	.LVL68:
 475              	.L33:
 476              		.loc 1 182 0
 477 01da 029B     		ldr	r3, [sp, #8]
 478              	.LVL69:
 479 01dc DDF804B0 		ldr	fp, [sp, #4]
 480 01e0 1A68     		ldr	r2, [r3, #0]
 481              	.LVL70:
 482 01e2 0433     		adds	r3, r3, #4
 483 01e4 0293     		str	r3, [sp, #8]
 484 01e6 8DF80C20 		strb	r2, [sp, #12]
 485              	.LVL71:
 486              		.loc 1 181 0
 487 01ea 2027     		movs	r7, #32
 488              		.loc 1 133 0
 489 01ec C246     		mov	sl, r8
 490              	.LVL72:
 491              	.L36:
 492              		.loc 1 240 0
 493 01ee CBEB0505 		rsb	r5, fp, r5
 494              	.LVL73:
 495 01f2 25EAE575 		bic	r5, r5, r5, asr #31
 496              	.LVL74:
 497              		.loc 1 242 0
 498 01f6 B9F1000F 		cmp	r9, #0
 499 01fa D5D1     		bne	.L46
 500              	.LVL75:
 501              	.L88:
 502              		.loc 1 243 0
 503 01fc 6D42     		negs	r5, r5
 504              	.LVL76:
 505              		.loc 1 244 0
 506 01fe 002D     		cmp	r5, #0
 507 0200 D2D0     		beq	.L46
 508              		.loc 1 245 0
 509 0202 9AF80010 		ldrb	r1, [sl, #0]	@ zero_extendqisi2
 510 0206 2D29     		cmp	r1, #45
 511 0208 49D0     		beq	.L89
 512              	.LVL77:
ARM GAS  /tmp/ccnfYJZJ.s 			page 10


 513              	.L70:
 514              		.loc 1 250 0 discriminator 1
 515 020a 3368     		ldr	r3, [r6, #0]
 516 020c 3046     		mov	r0, r6
 517 020e 9B68     		ldr	r3, [r3, #8]
 518 0210 3946     		mov	r1, r7
 519 0212 9847     		blx	r3
 520              	.LVL78:
 521              		.loc 1 251 0 discriminator 1
 522 0214 0135     		adds	r5, r5, #1
 523              	.LVL79:
 524 0216 F8D1     		bne	.L70
 525 0218 C6E7     		b	.L46
 526              	.LVL80:
 527              	.L32:
 528              		.loc 1 179 0
 529 021a 1022     		movs	r2, #16
 530              	.LVL81:
 531              	.L31:
 532              		.loc 1 230 0
 533 021c 029B     		ldr	r3, [sp, #8]
 534              		.loc 1 229 0
 535 021e 69B1     		cbz	r1, .L44
 536              	.L90:
 537              		.loc 1 230 0
 538 0220 191D     		adds	r1, r3, #4
 539              	.LVL82:
 540 0222 0291     		str	r1, [sp, #8]
 541 0224 1968     		ldr	r1, [r3, #0]
 542              	.LVL83:
 543              	.L45:
 544              	.LBB6:
 545              	.LBB7:
 546              		.loc 1 71 0
 547 0226 4046     		mov	r0, r8
 548 0228 FFF7FEFF 		bl	long_to_string_with_divisor.constprop.0
 549              	.LVL84:
 550              	.LBE7:
 551              	.LBE6:
 552              		.loc 1 133 0
 553 022c C246     		mov	sl, r8
 554 022e C8EB000B 		rsb	fp, r8, r0
 555              		.loc 1 234 0
 556 0232 DCE7     		b	.L36
 557              	.LVL85:
 558              	.L58:
 559              		.loc 1 179 0
 560 0234 0A22     		movs	r2, #10
 561              	.LVL86:
 562              		.loc 1 230 0
 563 0236 029B     		ldr	r3, [sp, #8]
 564              		.loc 1 229 0
 565 0238 0029     		cmp	r1, #0
 566 023a F1D1     		bne	.L90
 567              	.L44:
 568              		.loc 1 232 0
 569 023c 181D     		adds	r0, r3, #4
ARM GAS  /tmp/ccnfYJZJ.s 			page 11


 570              	.LVL87:
 571 023e 1968     		ldr	r1, [r3, #0]
 572              	.LVL88:
 573 0240 0290     		str	r0, [sp, #8]
 574 0242 F0E7     		b	.L45
 575              	.LVL89:
 576              	.L30:
 577 0244 0822     		movs	r2, #8
 578 0246 E9E7     		b	.L31
 579              	.LVL90:
 580              	.L29:
 581              		.loc 1 198 0
 582 0248 029B     		ldr	r3, [sp, #8]
 583              	.LVL91:
 584 024a 1A1D     		adds	r2, r3, #4
 585              	.LVL92:
 586              		.loc 1 197 0
 587 024c E1B9     		cbnz	r1, .L91
 588              		.loc 1 200 0
 589 024e 1968     		ldr	r1, [r3, #0]
 590              	.LVL93:
 591 0250 0292     		str	r2, [sp, #8]
 592              		.loc 1 201 0
 593 0252 0029     		cmp	r1, #0
 594 0254 1CDB     		blt	.L92
 595              	.L62:
 596              		.loc 1 132 0
 597 0256 4046     		mov	r0, r8
 598              	.LVL94:
 599              	.L43:
 600              	.LBB8:
 601              	.LBB9:
 602              		.loc 1 71 0
 603 0258 0A22     		movs	r2, #10
 604 025a FFF7FEFF 		bl	long_to_string_with_divisor.constprop.0
 605              	.LVL95:
 606              	.LBE9:
 607              	.LBE8:
 608              		.loc 1 133 0
 609 025e C246     		mov	sl, r8
 610 0260 C8EB000B 		rsb	fp, r8, r0
 611              		.loc 1 206 0
 612 0264 C3E7     		b	.L36
 613              	.LVL96:
 614              	.L28:
 615              		.loc 1 236 0
 616 0266 8DF80C30 		strb	r3, [sp, #12]
 617              	.LVL97:
 618 026a DDF804B0 		ldr	fp, [sp, #4]
 619              		.loc 1 133 0
 620 026e C246     		mov	sl, r8
 621              		.loc 1 237 0
 622 0270 BDE7     		b	.L36
 623              	.LVL98:
 624              	.L16:
 625 0272 6B78     		ldrb	r3, [r5, #1]	@ zero_extendqisi2
 626              		.loc 1 142 0
ARM GAS  /tmp/ccnfYJZJ.s 			page 12


 627 0274 3027     		movs	r7, #48
 628              		.loc 1 141 0
 629 0276 0135     		adds	r5, r5, #1
 630              	.LVL99:
 631 0278 F6E6     		b	.L17
 632              	.LVL100:
 633              	.L84:
 634              		.loc 1 136 0
 635 027a A51C     		adds	r5, r4, #2
 636              	.LVL101:
 637 027c A378     		ldrb	r3, [r4, #2]	@ zero_extendqisi2
 638              		.loc 1 137 0
 639 027e 4FF00109 		mov	r9, #1
 640 0282 EAE6     		b	.L15
 641              	.LVL102:
 642              	.L57:
 643              		.loc 1 171 0
 644 0284 0121     		movs	r1, #1
 645 0286 10E7     		b	.L27
 646              	.LVL103:
 647              	.L91:
 648              		.loc 1 198 0
 649 0288 1968     		ldr	r1, [r3, #0]
 650              	.LVL104:
 651 028a 0292     		str	r2, [sp, #8]
 652              		.loc 1 201 0
 653 028c 0029     		cmp	r1, #0
 654 028e E2DA     		bge	.L62
 655              	.L92:
 656              		.loc 1 202 0
 657 0290 2D23     		movs	r3, #45
 658 0292 8DF80C30 		strb	r3, [sp, #12]
 659              	.LVL105:
 660              		.loc 1 203 0
 661 0296 4942     		negs	r1, r1
 662              	.LVL106:
 663              		.loc 1 202 0
 664 0298 0DF10D00 		add	r0, sp, #13
 665              	.LVL107:
 666 029c DCE7     		b	.L43
 667              	.LVL108:
 668              	.L89:
 669              		.loc 1 245 0 discriminator 1
 670 029e 302F     		cmp	r7, #48
 671 02a0 B3D1     		bne	.L70
 672              		.loc 1 246 0
 673 02a2 3368     		ldr	r3, [r6, #0]
 674 02a4 3046     		mov	r0, r6
 675 02a6 9B68     		ldr	r3, [r3, #8]
 676 02a8 9847     		blx	r3
 677              	.LVL109:
 678 02aa 0AF1010A 		add	sl, sl, #1
 679              	.LVL110:
 680              		.loc 1 247 0
 681 02ae 0BF1FF3B 		add	fp, fp, #-1
 682              	.LVL111:
 683 02b2 AAE7     		b	.L70
ARM GAS  /tmp/ccnfYJZJ.s 			page 13


 684              	.LVL112:
 685              	.L87:
 686 02b4 CAEB000B 		rsb	fp, sl, r0
 687              		.loc 1 185 0
 688 02b8 2027     		movs	r7, #32
 689 02ba 98E7     		b	.L36
 690              	.LVL113:
 691              	.L61:
 692              		.loc 1 190 0
 693 02bc 9346     		mov	fp, r2
 694              		.loc 1 185 0
 695 02be 2027     		movs	r7, #32
 696 02c0 95E7     		b	.L36
 697              	.L94:
 698 02c2 00BF     		.align	2
 699              	.L93:
 700 02c4 00000000 		.word	.LC0
 701              		.cfi_endproc
 702              	.LFE9:
 703              		.size	chprintf, .-chprintf
 704 02c8 AFF30080 		.section	.rodata.str1.4,"aMS",%progbits,1
 704      AFF30080 
 705              		.align	2
 706              	.LC0:
 707 0000 286E756C 		.ascii	"(null)\000"
 707      6C2900
 708 0007 00       		.text
 709              	.Letext0:
 710              		.file 2 "/home/dpeter/CodeSourcery/Sourcery_CodeBench_Lite_for_ARM_EABI/bin/../lib/gcc/arm-none-ea
 711              		.file 3 "/home/dpeter/CodeSourcery/Sourcery_CodeBench_Lite_for_ARM_EABI/bin/../lib/gcc/arm-none-ea
 712              		.file 4 "/home/dpeter/CodeSourcery/Sourcery_CodeBench_Lite_for_ARM_EABI/bin/../lib/gcc/arm-none-ea
 713              		.file 5 "/home/dpeter/devel/sources/ChibiOS-RT/os/ports/GCC/ARMCMx/chtypes.h"
 714              		.file 6 "<built-in>"
 715              		.file 7 "/home/dpeter/devel/sources/ChibiOS-RT/os/kernel/include/chstreams.h"