ARM GAS  /tmp/ccHkckWl.s 			page 1


   1              		.syntax unified
   2              		.cpu cortex-m4
   3              		.fpu softvfp
   4              		.eabi_attribute 20, 1
   5              		.eabi_attribute 21, 1
   6              		.eabi_attribute 23, 3
   7              		.eabi_attribute 24, 1
   8              		.eabi_attribute 25, 1
   9              		.eabi_attribute 26, 1
  10              		.eabi_attribute 30, 2
  11              		.eabi_attribute 34, 1
  12              		.eabi_attribute 18, 4
  13              		.thumb
  14              		.file	"chqueues.c"
  15              		.text
  16              	.Ltext0:
  17              		.cfi_sections	.debug_frame
  18              		.section	.text.qwait,"ax",%progbits
  19              		.align	2
  20              		.p2align 4,,15
  21              		.thumb
  22              		.thumb_func
  23              		.type	qwait, %function
  24              	qwait:
  25              	.LFB7:
  26              		.file 1 "/home/dpeter/devel/sources/ChibiOS-RT/os/kernel/src/chqueues.c"
  27              		.loc 1 63 0
  28              		.cfi_startproc
  29              		@ args = 0, pretend = 0, frame = 0
  30              		@ frame_needed = 0, uses_anonymous_args = 0
  31              		@ link register save eliminated.
  32              	.LVL0:
  33 0000 10B4     		push	{r4}
  34              	.LCFI0:
  35              		.cfi_def_cfa_offset 4
  36              		.cfi_offset 4, -4
  37              		.loc 1 63 0
  38 0002 0246     		mov	r2, r0
  39              		.loc 1 65 0
  40 0004 59B1     		cbz	r1, .L2
  41              		.loc 1 67 0
  42 0006 084B     		ldr	r3, .L4
  43 0008 9B69     		ldr	r3, [r3, #24]
  44 000a 5862     		str	r0, [r3, #36]
  45              	.LVL1:
  46              	.LBB12:
  47              	.LBB13:
  48              		.file 2 "/home/dpeter/devel/sources/ChibiOS-RT/os/kernel/include/chinline.h"
  49              		.loc 2 48 0
  50 000c 4468     		ldr	r4, [r0, #4]
  51              	.LBE13:
  52              	.LBE12:
  53              		.loc 1 69 0
  54 000e 0D20     		movs	r0, #13
  55              	.LVL2:
  56              	.LBB15:
  57              	.LBB14:
ARM GAS  /tmp/ccHkckWl.s 			page 2


  58              		.loc 2 48 0
  59 0010 83E81400 		stmia	r3, {r2, r4}
  60              		.loc 2 49 0
  61 0014 5360     		str	r3, [r2, #4]
  62 0016 2360     		str	r3, [r4, #0]
  63              	.LBE14:
  64              	.LBE15:
  65              		.loc 1 70 0
  66 0018 10BC     		pop	{r4}
  67              		.loc 1 69 0
  68 001a FFF7FEBF 		b	chSchGoSleepTimeoutS
  69              	.LVL3:
  70              	.L2:
  71              		.loc 1 70 0
  72 001e 4FF0FF30 		mov	r0, #-1
  73              	.LVL4:
  74 0022 10BC     		pop	{r4}
  75 0024 7047     		bx	lr
  76              	.L5:
  77 0026 00BF     		.align	2
  78              	.L4:
  79 0028 00000000 		.word	rlist
  80              		.cfi_endproc
  81              	.LFE7:
  82              		.size	qwait, .-qwait
  83 002c AFF30080 		.section	.text.chIQInit,"ax",%progbits
  84              		.align	2
  85              		.p2align 4,,15
  86              		.global	chIQInit
  87              		.thumb
  88              		.thumb_func
  89              		.type	chIQInit, %function
  90              	chIQInit:
  91              	.LFB8:
  92              		.loc 1 89 0
  93              		.cfi_startproc
  94              		@ args = 4, pretend = 0, frame = 0
  95              		@ frame_needed = 0, uses_anonymous_args = 0
  96              		@ link register save eliminated.
  97              	.LVL5:
  98 0000 10B4     		push	{r4}
  99              	.LCFI1:
 100              		.cfi_def_cfa_offset 4
 101              		.cfi_offset 4, -4
 102              		.loc 1 95 0
 103 0002 C361     		str	r3, [r0, #28]
 104              		.loc 1 96 0
 105 0004 019B     		ldr	r3, [sp, #4]
 106              	.LVL6:
 107              		.loc 1 91 0
 108 0006 4060     		str	r0, [r0, #4]
 109              		.loc 1 94 0
 110 0008 8A18     		adds	r2, r1, r2
 111              	.LVL7:
 112              		.loc 1 92 0
 113 000a 0024     		movs	r4, #0
 114              		.loc 1 91 0
ARM GAS  /tmp/ccHkckWl.s 			page 3


 115 000c 0060     		str	r0, [r0, #0]
 116              		.loc 1 92 0
 117 000e 8460     		str	r4, [r0, #8]
 118              		.loc 1 93 0
 119 0010 4161     		str	r1, [r0, #20]
 120 0012 8161     		str	r1, [r0, #24]
 121 0014 C160     		str	r1, [r0, #12]
 122              		.loc 1 94 0
 123 0016 0261     		str	r2, [r0, #16]
 124              		.loc 1 96 0
 125 0018 0362     		str	r3, [r0, #32]
 126              		.loc 1 97 0
 127 001a 10BC     		pop	{r4}
 128 001c 7047     		bx	lr
 129              		.cfi_endproc
 130              	.LFE8:
 131              		.size	chIQInit, .-chIQInit
 132 001e 00BF     		.section	.text.chIQResetI,"ax",%progbits
 133              		.align	2
 134              		.p2align 4,,15
 135              		.global	chIQResetI
 136              		.thumb
 137              		.thumb_func
 138              		.type	chIQResetI, %function
 139              	chIQResetI:
 140              	.LFB9:
 141              		.loc 1 110 0
 142              		.cfi_startproc
 143              		@ args = 0, pretend = 0, frame = 0
 144              		@ frame_needed = 0, uses_anonymous_args = 0
 145              	.LVL8:
 146 0000 38B5     		push	{r3, r4, r5, lr}
 147              	.LCFI2:
 148              		.cfi_def_cfa_offset 16
 149              		.cfi_offset 3, -16
 150              		.cfi_offset 4, -12
 151              		.cfi_offset 5, -8
 152              		.cfi_offset 14, -4
 153              		.loc 1 110 0
 154 0002 0446     		mov	r4, r0
 155              		.loc 1 114 0
 156 0004 C368     		ldr	r3, [r0, #12]
 157              		.loc 1 116 0
 158 0006 0068     		ldr	r0, [r0, #0]
 159              	.LVL9:
 160              		.loc 1 114 0
 161 0008 6361     		str	r3, [r4, #20]
 162 000a A361     		str	r3, [r4, #24]
 163              		.loc 1 115 0
 164 000c 0023     		movs	r3, #0
 165              		.loc 1 116 0
 166 000e A042     		cmp	r0, r4
 167              		.loc 1 115 0
 168 0010 A360     		str	r3, [r4, #8]
 169              		.loc 1 116 0
 170 0012 0AD0     		beq	.L7
 171              		.loc 1 117 0
ARM GAS  /tmp/ccHkckWl.s 			page 4


 172 0014 6FF00105 		mvn	r5, #1
 173              	.L11:
 174              	.LVL10:
 175              	.LBB16:
 176              	.LBB17:
 177              		.loc 2 55 0
 178 0018 0368     		ldr	r3, [r0, #0]
 179 001a 2360     		str	r3, [r4, #0]
 180 001c 5C60     		str	r4, [r3, #4]
 181              	.LBE17:
 182              	.LBE16:
 183              		.loc 1 117 0
 184 001e FFF7FEFF 		bl	chSchReadyI
 185              	.LVL11:
 186 0022 4562     		str	r5, [r0, #36]
 187              		.loc 1 116 0
 188 0024 2068     		ldr	r0, [r4, #0]
 189 0026 A042     		cmp	r0, r4
 190 0028 F6D1     		bne	.L11
 191              	.LVL12:
 192              	.L7:
 193 002a 38BD     		pop	{r3, r4, r5, pc}
 194              		.cfi_endproc
 195              	.LFE9:
 196              		.size	chIQResetI, .-chIQResetI
 197 002c AFF30080 		.section	.text.chIQPutI,"ax",%progbits
 198              		.align	2
 199              		.p2align 4,,15
 200              		.global	chIQPutI
 201              		.thumb
 202              		.thumb_func
 203              		.type	chIQPutI, %function
 204              	chIQPutI:
 205              	.LFB10:
 206              		.loc 1 133 0
 207              		.cfi_startproc
 208              		@ args = 0, pretend = 0, frame = 0
 209              		@ frame_needed = 0, uses_anonymous_args = 0
 210              	.LVL13:
 211              		.loc 1 137 0
 212 0000 4269     		ldr	r2, [r0, #20]
 213              		.loc 1 133 0
 214 0002 08B5     		push	{r3, lr}
 215              	.LCFI3:
 216              		.cfi_def_cfa_offset 8
 217              		.cfi_offset 3, -8
 218              		.cfi_offset 14, -4
 219              		.loc 1 133 0
 220 0004 0346     		mov	r3, r0
 221              		.loc 1 137 0
 222 0006 8069     		ldr	r0, [r0, #24]
 223              	.LVL14:
 224 0008 8242     		cmp	r2, r0
 225 000a 9868     		ldr	r0, [r3, #8]
 226 000c 1AD0     		beq	.L22
 227              	.L16:
 228              		.loc 1 140 0
ARM GAS  /tmp/ccHkckWl.s 			page 5


 229 000e 0130     		adds	r0, r0, #1
 230 0010 9860     		str	r0, [r3, #8]
 231              		.loc 1 141 0
 232 0012 02F8011B 		strb	r1, [r2], #1
 233              		.loc 1 142 0
 234 0016 1969     		ldr	r1, [r3, #16]
 235              	.LVL15:
 236              		.loc 1 141 0
 237 0018 5A61     		str	r2, [r3, #20]
 238              		.loc 1 142 0
 239 001a 8A42     		cmp	r2, r1
 240 001c 0BD2     		bcs	.L17
 241              		.loc 1 145 0
 242 001e 1868     		ldr	r0, [r3, #0]
 243 0020 9842     		cmp	r0, r3
 244 0022 0DD0     		beq	.L20
 245              	.L23:
 246              	.LVL16:
 247              	.LBB18:
 248              	.LBB19:
 249              		.loc 2 55 0
 250 0024 0268     		ldr	r2, [r0, #0]
 251 0026 1A60     		str	r2, [r3, #0]
 252 0028 5360     		str	r3, [r2, #4]
 253              	.LBE19:
 254              	.LBE18:
 255              		.loc 1 146 0
 256 002a FFF7FEFF 		bl	chSchReadyI
 257              	.LVL17:
 258 002e 0023     		movs	r3, #0
 259 0030 4362     		str	r3, [r0, #36]
 260              		.loc 1 148 0
 261 0032 1846     		mov	r0, r3
 262 0034 08BD     		pop	{r3, pc}
 263              	.LVL18:
 264              	.L17:
 265              		.loc 1 145 0
 266 0036 1868     		ldr	r0, [r3, #0]
 267              		.loc 1 143 0
 268 0038 DA68     		ldr	r2, [r3, #12]
 269              		.loc 1 145 0
 270 003a 9842     		cmp	r0, r3
 271              		.loc 1 143 0
 272 003c 5A61     		str	r2, [r3, #20]
 273              		.loc 1 145 0
 274 003e F1D1     		bne	.L23
 275              	.L20:
 276              		.loc 1 148 0
 277 0040 0020     		movs	r0, #0
 278 0042 08BD     		pop	{r3, pc}
 279              	.LVL19:
 280              	.L22:
 281              		.loc 1 137 0 discriminator 1
 282 0044 0028     		cmp	r0, #0
 283 0046 E2D0     		beq	.L16
 284              		.loc 1 138 0
 285 0048 6FF00300 		mvn	r0, #3
ARM GAS  /tmp/ccHkckWl.s 			page 6


 286 004c 08BD     		pop	{r3, pc}
 287              		.cfi_endproc
 288              	.LFE10:
 289              		.size	chIQPutI, .-chIQPutI
 290 004e 00BF     		.section	.text.chIQGetTimeout,"ax",%progbits
 291              		.align	2
 292              		.p2align 4,,15
 293              		.global	chIQGetTimeout
 294              		.thumb
 295              		.thumb_func
 296              		.type	chIQGetTimeout, %function
 297              	chIQGetTimeout:
 298              	.LFB11:
 299              		.loc 1 171 0
 300              		.cfi_startproc
 301              		@ args = 0, pretend = 0, frame = 0
 302              		@ frame_needed = 0, uses_anonymous_args = 0
 303              	.LVL20:
 304 0000 70B5     		push	{r4, r5, r6, lr}
 305              	.LCFI4:
 306              		.cfi_def_cfa_offset 16
 307              		.cfi_offset 4, -16
 308              		.cfi_offset 5, -12
 309              		.cfi_offset 6, -8
 310              		.cfi_offset 14, -4
 311              	.LBB20:
 312              		.loc 1 174 0
 313 0002 2023     		movs	r3, #32
 314              	.LVL21:
 315              	.LBE20:
 316              		.loc 1 171 0
 317 0004 0446     		mov	r4, r0
 318 0006 0E46     		mov	r6, r1
 319              	.LBB21:
 320              		.loc 1 174 0
 321              	@ 174 "/home/dpeter/devel/sources/ChibiOS-RT/os/kernel/src/chqueues.c" 1
 322 0008 83F31188 		msr     BASEPRI, r3
 323              	@ 0 "" 2
 324              	.LVL22:
 325              		.thumb
 326              	.LBE21:
 327              		.loc 1 175 0
 328 000c C369     		ldr	r3, [r0, #28]
 329              	.LVL23:
 330 000e 03B1     		cbz	r3, .L32
 331              		.loc 1 176 0
 332 0010 9847     		blx	r3
 333              	.LVL24:
 334              	.L32:
 335              		.loc 1 178 0 discriminator 1
 336 0012 A568     		ldr	r5, [r4, #8]
 337              	.LBB22:
 338              		.loc 1 180 0 discriminator 1
 339 0014 2046     		mov	r0, r4
 340 0016 3146     		mov	r1, r6
 341              	.LBE22:
 342              		.loc 1 178 0 discriminator 1
ARM GAS  /tmp/ccHkckWl.s 			page 7


 343 0018 3DB9     		cbnz	r5, .L35
 344              	.LVL25:
 345              	.LBB24:
 346              		.loc 1 180 0
 347 001a FFF7FEFF 		bl	qwait
 348              	.LVL26:
 349 001e 0028     		cmp	r0, #0
 350 0020 F7DA     		bge	.L32
 351              	.LBB23:
 352              		.loc 1 181 0
 353 0022 2B46     		mov	r3, r5
 354              	.LVL27:
 355              	@ 181 "/home/dpeter/devel/sources/ChibiOS-RT/os/kernel/src/chqueues.c" 1
 356 0024 83F31188 		msr     BASEPRI, r3
 357              	@ 0 "" 2
 358              	.LVL28:
 359              		.thumb
 360              	.LBE23:
 361              		.loc 1 182 0
 362 0028 70BD     		pop	{r4, r5, r6, pc}
 363              	.LVL29:
 364              	.L35:
 365              	.LBE24:
 366              		.loc 1 187 0
 367 002a A369     		ldr	r3, [r4, #24]
 368              		.loc 1 188 0
 369 002c 2269     		ldr	r2, [r4, #16]
 370              		.loc 1 186 0
 371 002e 013D     		subs	r5, r5, #1
 372 0030 A560     		str	r5, [r4, #8]
 373              		.loc 1 187 0
 374 0032 13F8010B 		ldrb	r0, [r3], #1	@ zero_extendqisi2
 375              	.LVL30:
 376              		.loc 1 188 0
 377 0036 9342     		cmp	r3, r2
 378              		.loc 1 187 0
 379 0038 A361     		str	r3, [r4, #24]
 380              		.loc 1 189 0
 381 003a 24BF     		itt	cs
 382 003c E368     		ldrcs	r3, [r4, #12]
 383 003e A361     		strcs	r3, [r4, #24]
 384              	.LBB25:
 385              		.loc 1 191 0
 386 0040 0023     		movs	r3, #0
 387              	.LVL31:
 388              	@ 191 "/home/dpeter/devel/sources/ChibiOS-RT/os/kernel/src/chqueues.c" 1
 389 0042 83F31188 		msr     BASEPRI, r3
 390              	@ 0 "" 2
 391              	.LVL32:
 392              		.thumb
 393              	.LBE25:
 394              		.loc 1 193 0
 395 0046 70BD     		pop	{r4, r5, r6, pc}
 396              		.cfi_endproc
 397              	.LFE11:
 398              		.size	chIQGetTimeout, .-chIQGetTimeout
 399 0048 AFF30080 		.section	.text.chIQReadTimeout,"ax",%progbits
ARM GAS  /tmp/ccHkckWl.s 			page 8


 399      AFF30080 
 400              		.align	2
 401              		.p2align 4,,15
 402              		.global	chIQReadTimeout
 403              		.thumb
 404              		.thumb_func
 405              		.type	chIQReadTimeout, %function
 406              	chIQReadTimeout:
 407              	.LFB12:
 408              		.loc 1 220 0
 409              		.cfi_startproc
 410              		@ args = 0, pretend = 0, frame = 0
 411              		@ frame_needed = 0, uses_anonymous_args = 0
 412              	.LVL33:
 413 0000 2DE9F047 		push	{r4, r5, r6, r7, r8, r9, sl, lr}
 414              	.LCFI5:
 415              		.cfi_def_cfa_offset 32
 416              		.cfi_offset 4, -32
 417              		.cfi_offset 5, -28
 418              		.cfi_offset 6, -24
 419              		.cfi_offset 7, -20
 420              		.cfi_offset 8, -16
 421              		.cfi_offset 9, -12
 422              		.cfi_offset 10, -8
 423              		.cfi_offset 14, -4
 424              		.loc 1 220 0
 425 0004 1E46     		mov	r6, r3
 426 0006 0446     		mov	r4, r0
 427              		.loc 1 221 0
 428 0008 C769     		ldr	r7, [r0, #28]
 429              	.LVL34:
 430              	.LBB26:
 431              		.loc 1 226 0
 432 000a 2023     		movs	r3, #32
 433              	.LVL35:
 434              	@ 226 "/home/dpeter/devel/sources/ChibiOS-RT/os/kernel/src/chqueues.c" 1
 435 000c 83F31188 		msr     BASEPRI, r3
 436              	@ 0 "" 2
 437              	.LVL36:
 438              		.thumb
 439              	.LBE26:
 440              		.loc 1 222 0
 441 0010 4FF00008 		mov	r8, #0
 442              	.LBB27:
 443              		.loc 1 219 0
 444 0014 01F10109 		add	r9, r1, #1
 445 0018 01EB020A 		add	sl, r1, r2
 446              	.LVL37:
 447              	.L42:
 448              	.LBE27:
 449              		.loc 1 228 0
 450 001c 0FB1     		cbz	r7, .L47
 451              		.loc 1 229 0
 452 001e 2046     		mov	r0, r4
 453              	.LVL38:
 454 0020 B847     		blx	r7
 455              	.LVL39:
ARM GAS  /tmp/ccHkckWl.s 			page 9


 456              	.L47:
 457              		.loc 1 231 0 discriminator 1
 458 0022 A568     		ldr	r5, [r4, #8]
 459              		.loc 1 232 0 discriminator 1
 460 0024 2046     		mov	r0, r4
 461 0026 3146     		mov	r1, r6
 462              		.loc 1 231 0 discriminator 1
 463 0028 4DB9     		cbnz	r5, .L51
 464              	.LVL40:
 465              		.loc 1 232 0
 466 002a FFF7FEFF 		bl	qwait
 467              	.LVL41:
 468 002e 0028     		cmp	r0, #0
 469 0030 F7D0     		beq	.L47
 470              	.LBB28:
 471              		.loc 1 233 0
 472 0032 2B46     		mov	r3, r5
 473              	.LVL42:
 474              	@ 233 "/home/dpeter/devel/sources/ChibiOS-RT/os/kernel/src/chqueues.c" 1
 475 0034 83F31188 		msr     BASEPRI, r3
 476              	@ 0 "" 2
 477              	.LVL43:
 478              		.thumb
 479              	.L39:
 480              	.LBE28:
 481              		.loc 1 250 0
 482 0038 4046     		mov	r0, r8
 483 003a BDE8F087 		pop	{r4, r5, r6, r7, r8, r9, sl, pc}
 484              	.LVL44:
 485              	.L51:
 486              		.loc 1 239 0
 487 003e A369     		ldr	r3, [r4, #24]
 488              	.LVL45:
 489              		.loc 1 238 0
 490 0040 013D     		subs	r5, r5, #1
 491 0042 A560     		str	r5, [r4, #8]
 492              		.loc 1 239 0
 493 0044 13F8012B 		ldrb	r2, [r3], #1	@ zero_extendqisi2
 494 0048 09F8012C 		strb	r2, [r9, #-1]
 495              		.loc 1 240 0
 496 004c 2269     		ldr	r2, [r4, #16]
 497              		.loc 1 239 0
 498 004e A361     		str	r3, [r4, #24]
 499              		.loc 1 240 0
 500 0050 9342     		cmp	r3, r2
 501              		.loc 1 241 0
 502 0052 24BF     		itt	cs
 503 0054 E368     		ldrcs	r3, [r4, #12]
 504 0056 A361     		strcs	r3, [r4, #24]
 505              	.LBB29:
 506              		.loc 1 243 0
 507 0058 0023     		movs	r3, #0
 508              	@ 243 "/home/dpeter/devel/sources/ChibiOS-RT/os/kernel/src/chqueues.c" 1
 509 005a 83F31188 		msr     BASEPRI, r3
 510              	@ 0 "" 2
 511              	.LVL46:
 512              		.thumb
ARM GAS  /tmp/ccHkckWl.s 			page 10


 513              	.LBE29:
 514              		.loc 1 245 0
 515 005e D145     		cmp	r9, sl
 516              		.loc 1 244 0
 517 0060 08F10108 		add	r8, r8, #1
 518              	.LVL47:
 519              		.loc 1 245 0
 520 0064 E8D0     		beq	.L39
 521              	.LBB30:
 522              		.loc 1 248 0
 523 0066 2023     		movs	r3, #32
 524              	.LVL48:
 525              	@ 248 "/home/dpeter/devel/sources/ChibiOS-RT/os/kernel/src/chqueues.c" 1
 526 0068 83F31188 		msr     BASEPRI, r3
 527              	@ 0 "" 2
 528              	.LVL49:
 529              		.thumb
 530 006c 09F10109 		add	r9, r9, #1
 531              	.LBE30:
 532              		.loc 1 249 0
 533 0070 D4E7     		b	.L42
 534              		.cfi_endproc
 535              	.LFE12:
 536              		.size	chIQReadTimeout, .-chIQReadTimeout
 537 0072 00BFAFF3 		.section	.text.chOQInit,"ax",%progbits
 537      0080AFF3 
 537      0080AFF3 
 537      0080
 538              		.align	2
 539              		.p2align 4,,15
 540              		.global	chOQInit
 541              		.thumb
 542              		.thumb_func
 543              		.type	chOQInit, %function
 544              	chOQInit:
 545              	.LFB13:
 546              		.loc 1 269 0
 547              		.cfi_startproc
 548              		@ args = 4, pretend = 0, frame = 0
 549              		@ frame_needed = 0, uses_anonymous_args = 0
 550              		@ link register save eliminated.
 551              	.LVL50:
 552 0000 10B4     		push	{r4}
 553              	.LCFI6:
 554              		.cfi_def_cfa_offset 4
 555              		.cfi_offset 4, -4
 556              		.loc 1 275 0
 557 0002 C361     		str	r3, [r0, #28]
 558              		.loc 1 276 0
 559 0004 019B     		ldr	r3, [sp, #4]
 560              	.LVL51:
 561              		.loc 1 271 0
 562 0006 4060     		str	r0, [r0, #4]
 563              		.loc 1 274 0
 564 0008 8C18     		adds	r4, r1, r2
 565              		.loc 1 271 0
 566 000a 0060     		str	r0, [r0, #0]
ARM GAS  /tmp/ccHkckWl.s 			page 11


 567              		.loc 1 272 0
 568 000c 8260     		str	r2, [r0, #8]
 569              		.loc 1 273 0
 570 000e 4161     		str	r1, [r0, #20]
 571 0010 8161     		str	r1, [r0, #24]
 572 0012 C160     		str	r1, [r0, #12]
 573              		.loc 1 274 0
 574 0014 0461     		str	r4, [r0, #16]
 575              		.loc 1 276 0
 576 0016 0362     		str	r3, [r0, #32]
 577              		.loc 1 277 0
 578 0018 10BC     		pop	{r4}
 579 001a 7047     		bx	lr
 580              		.cfi_endproc
 581              	.LFE13:
 582              		.size	chOQInit, .-chOQInit
 583 001c AFF30080 		.section	.text.chOQResetI,"ax",%progbits
 584              		.align	2
 585              		.p2align 4,,15
 586              		.global	chOQResetI
 587              		.thumb
 588              		.thumb_func
 589              		.type	chOQResetI, %function
 590              	chOQResetI:
 591              	.LFB14:
 592              		.loc 1 290 0
 593              		.cfi_startproc
 594              		@ args = 0, pretend = 0, frame = 0
 595              		@ frame_needed = 0, uses_anonymous_args = 0
 596              	.LVL52:
 597 0000 38B5     		push	{r3, r4, r5, lr}
 598              	.LCFI7:
 599              		.cfi_def_cfa_offset 16
 600              		.cfi_offset 3, -16
 601              		.cfi_offset 4, -12
 602              		.cfi_offset 5, -8
 603              		.cfi_offset 14, -4
 604              		.loc 1 295 0
 605 0002 0269     		ldr	r2, [r0, #16]
 606              		.loc 1 294 0
 607 0004 C368     		ldr	r3, [r0, #12]
 608              		.loc 1 290 0
 609 0006 0446     		mov	r4, r0
 610              		.loc 1 296 0
 611 0008 0068     		ldr	r0, [r0, #0]
 612              	.LVL53:
 613              		.loc 1 294 0
 614 000a 6361     		str	r3, [r4, #20]
 615              		.loc 1 295 0
 616 000c D21A     		subs	r2, r2, r3
 617              		.loc 1 296 0
 618 000e A042     		cmp	r0, r4
 619              		.loc 1 294 0
 620 0010 A361     		str	r3, [r4, #24]
 621              		.loc 1 295 0
 622 0012 A260     		str	r2, [r4, #8]
 623              		.loc 1 296 0
ARM GAS  /tmp/ccHkckWl.s 			page 12


 624 0014 0AD0     		beq	.L53
 625              		.loc 1 297 0
 626 0016 6FF00105 		mvn	r5, #1
 627              	.L57:
 628              	.LVL54:
 629              	.LBB31:
 630              	.LBB32:
 631              		.loc 2 55 0
 632 001a 0368     		ldr	r3, [r0, #0]
 633 001c 2360     		str	r3, [r4, #0]
 634 001e 5C60     		str	r4, [r3, #4]
 635              	.LBE32:
 636              	.LBE31:
 637              		.loc 1 297 0
 638 0020 FFF7FEFF 		bl	chSchReadyI
 639              	.LVL55:
 640 0024 4562     		str	r5, [r0, #36]
 641              		.loc 1 296 0
 642 0026 2068     		ldr	r0, [r4, #0]
 643 0028 A042     		cmp	r0, r4
 644 002a F6D1     		bne	.L57
 645              	.LVL56:
 646              	.L53:
 647 002c 38BD     		pop	{r3, r4, r5, pc}
 648              		.cfi_endproc
 649              	.LFE14:
 650              		.size	chOQResetI, .-chOQResetI
 651 002e 00BF     		.section	.text.chOQPutTimeout,"ax",%progbits
 652              		.align	2
 653              		.p2align 4,,15
 654              		.global	chOQPutTimeout
 655              		.thumb
 656              		.thumb_func
 657              		.type	chOQPutTimeout, %function
 658              	chOQPutTimeout:
 659              	.LFB15:
 660              		.loc 1 322 0
 661              		.cfi_startproc
 662              		@ args = 0, pretend = 0, frame = 0
 663              		@ frame_needed = 0, uses_anonymous_args = 0
 664              	.LVL57:
 665 0000 F8B5     		push	{r3, r4, r5, r6, r7, lr}
 666              	.LCFI8:
 667              		.cfi_def_cfa_offset 24
 668              		.cfi_offset 3, -24
 669              		.cfi_offset 4, -20
 670              		.cfi_offset 5, -16
 671              		.cfi_offset 6, -12
 672              		.cfi_offset 7, -8
 673              		.cfi_offset 14, -4
 674              		.loc 1 322 0
 675 0002 0446     		mov	r4, r0
 676 0004 0F46     		mov	r7, r1
 677 0006 1646     		mov	r6, r2
 678              	.LBB33:
 679              		.loc 1 324 0
 680 0008 2023     		movs	r3, #32
ARM GAS  /tmp/ccHkckWl.s 			page 13


 681              	.LVL58:
 682              	@ 324 "/home/dpeter/devel/sources/ChibiOS-RT/os/kernel/src/chqueues.c" 1
 683 000a 83F31188 		msr     BASEPRI, r3
 684              	@ 0 "" 2
 685              	.LVL59:
 686              		.thumb
 687              	.L60:
 688              	.LBE33:
 689              		.loc 1 325 0 discriminator 1
 690 000e A568     		ldr	r5, [r4, #8]
 691              	.LBB34:
 692              		.loc 1 328 0 discriminator 1
 693 0010 2046     		mov	r0, r4
 694 0012 3146     		mov	r1, r6
 695              	.LBE34:
 696              		.loc 1 325 0 discriminator 1
 697 0014 3DB9     		cbnz	r5, .L69
 698              	.LVL60:
 699              	.LBB36:
 700              		.loc 1 328 0
 701 0016 FFF7FEFF 		bl	qwait
 702              	.LVL61:
 703 001a 0028     		cmp	r0, #0
 704 001c F7DA     		bge	.L60
 705              	.LBB35:
 706              		.loc 1 329 0
 707 001e 2B46     		mov	r3, r5
 708              	.LVL62:
 709              	@ 329 "/home/dpeter/devel/sources/ChibiOS-RT/os/kernel/src/chqueues.c" 1
 710 0020 83F31188 		msr     BASEPRI, r3
 711              	@ 0 "" 2
 712              	.LVL63:
 713              		.thumb
 714              	.LBE35:
 715              		.loc 1 330 0
 716 0024 F8BD     		pop	{r3, r4, r5, r6, r7, pc}
 717              	.LVL64:
 718              	.L69:
 719              	.LBE36:
 720              		.loc 1 335 0
 721 0026 6369     		ldr	r3, [r4, #20]
 722              	.LVL65:
 723              		.loc 1 334 0
 724 0028 013D     		subs	r5, r5, #1
 725 002a A560     		str	r5, [r4, #8]
 726              		.loc 1 335 0
 727 002c 03F8017B 		strb	r7, [r3], #1
 728              		.loc 1 336 0
 729 0030 2269     		ldr	r2, [r4, #16]
 730              		.loc 1 335 0
 731 0032 6361     		str	r3, [r4, #20]
 732              		.loc 1 336 0
 733 0034 9342     		cmp	r3, r2
 734              		.loc 1 337 0
 735 0036 24BF     		itt	cs
 736 0038 E368     		ldrcs	r3, [r4, #12]
 737 003a 6361     		strcs	r3, [r4, #20]
ARM GAS  /tmp/ccHkckWl.s 			page 14


 738              		.loc 1 339 0
 739 003c E369     		ldr	r3, [r4, #28]
 740 003e 0BB1     		cbz	r3, .L64
 741              		.loc 1 340 0
 742 0040 2046     		mov	r0, r4
 743              	.LVL66:
 744 0042 9847     		blx	r3
 745              	.LVL67:
 746              	.L64:
 747              	.LBB37:
 748              		.loc 1 342 0
 749 0044 0023     		movs	r3, #0
 750              	.LVL68:
 751              	@ 342 "/home/dpeter/devel/sources/ChibiOS-RT/os/kernel/src/chqueues.c" 1
 752 0046 83F31188 		msr     BASEPRI, r3
 753              	@ 0 "" 2
 754              	.LVL69:
 755              		.thumb
 756              	.LBE37:
 757              		.loc 1 343 0
 758 004a 1846     		mov	r0, r3
 759              		.loc 1 344 0
 760 004c F8BD     		pop	{r3, r4, r5, r6, r7, pc}
 761              		.cfi_endproc
 762              	.LFE15:
 763              		.size	chOQPutTimeout, .-chOQPutTimeout
 764 004e 00BF     		.section	.text.chOQGetI,"ax",%progbits
 765              		.align	2
 766              		.p2align 4,,15
 767              		.global	chOQGetI
 768              		.thumb
 769              		.thumb_func
 770              		.type	chOQGetI, %function
 771              	chOQGetI:
 772              	.LFB16:
 773              		.loc 1 356 0
 774              		.cfi_startproc
 775              		@ args = 0, pretend = 0, frame = 0
 776              		@ frame_needed = 0, uses_anonymous_args = 0
 777              	.LVL70:
 778              		.loc 1 361 0
 779 0000 4169     		ldr	r1, [r0, #20]
 780 0002 8269     		ldr	r2, [r0, #24]
 781 0004 9142     		cmp	r1, r2
 782              		.loc 1 356 0
 783 0006 10B5     		push	{r4, lr}
 784              	.LCFI9:
 785              		.cfi_def_cfa_offset 8
 786              		.cfi_offset 4, -8
 787              		.cfi_offset 14, -4
 788              		.loc 1 356 0
 789 0008 0346     		mov	r3, r0
 790              		.loc 1 361 0
 791 000a 8168     		ldr	r1, [r0, #8]
 792 000c 16D0     		beq	.L79
 793              	.L73:
 794              		.loc 1 364 0
ARM GAS  /tmp/ccHkckWl.s 			page 15


 795 000e 0131     		adds	r1, r1, #1
 796 0010 9960     		str	r1, [r3, #8]
 797              		.loc 1 365 0
 798 0012 12F8014B 		ldrb	r4, [r2], #1	@ zero_extendqisi2
 799              	.LVL71:
 800              		.loc 1 366 0
 801 0016 1969     		ldr	r1, [r3, #16]
 802              		.loc 1 365 0
 803 0018 9A61     		str	r2, [r3, #24]
 804              		.loc 1 366 0
 805 001a 8A42     		cmp	r2, r1
 806 001c 0BD2     		bcs	.L75
 807              	.L76:
 808              		.loc 1 369 0
 809 001e 1868     		ldr	r0, [r3, #0]
 810              	.LVL72:
 811 0020 9842     		cmp	r0, r3
 812 0022 06D0     		beq	.L74
 813              	.LVL73:
 814              	.LBB38:
 815              	.LBB39:
 816              		.loc 2 55 0
 817 0024 0268     		ldr	r2, [r0, #0]
 818 0026 1A60     		str	r2, [r3, #0]
 819 0028 5360     		str	r3, [r2, #4]
 820              	.LBE39:
 821              	.LBE38:
 822              		.loc 1 370 0
 823 002a FFF7FEFF 		bl	chSchReadyI
 824              	.LVL74:
 825 002e 0023     		movs	r3, #0
 826 0030 4362     		str	r3, [r0, #36]
 827              	.LVL75:
 828              	.L74:
 829              		.loc 1 372 0
 830 0032 2046     		mov	r0, r4
 831 0034 10BD     		pop	{r4, pc}
 832              	.LVL76:
 833              	.L75:
 834              		.loc 1 367 0
 835 0036 DA68     		ldr	r2, [r3, #12]
 836 0038 9A61     		str	r2, [r3, #24]
 837 003a F0E7     		b	.L76
 838              	.LVL77:
 839              	.L79:
 840              		.loc 1 361 0 discriminator 1
 841 003c 0029     		cmp	r1, #0
 842 003e E6D0     		beq	.L73
 843              		.loc 1 362 0
 844 0040 6FF00200 		mvn	r0, #2
 845              	.LVL78:
 846 0044 10BD     		pop	{r4, pc}
 847              		.cfi_endproc
 848              	.LFE16:
 849              		.size	chOQGetI, .-chOQGetI
 850 0046 00BFAFF3 		.section	.text.chOQWriteTimeout,"ax",%progbits
 850      0080AFF3 
ARM GAS  /tmp/ccHkckWl.s 			page 16


 850      0080
 851              		.align	2
 852              		.p2align 4,,15
 853              		.global	chOQWriteTimeout
 854              		.thumb
 855              		.thumb_func
 856              		.type	chOQWriteTimeout, %function
 857              	chOQWriteTimeout:
 858              	.LFB17:
 859              		.loc 1 400 0
 860              		.cfi_startproc
 861              		@ args = 0, pretend = 0, frame = 0
 862              		@ frame_needed = 0, uses_anonymous_args = 0
 863              	.LVL79:
 864 0000 2DE9F047 		push	{r4, r5, r6, r7, r8, r9, sl, lr}
 865              	.LCFI10:
 866              		.cfi_def_cfa_offset 32
 867              		.cfi_offset 4, -32
 868              		.cfi_offset 5, -28
 869              		.cfi_offset 6, -24
 870              		.cfi_offset 7, -20
 871              		.cfi_offset 8, -16
 872              		.cfi_offset 9, -12
 873              		.cfi_offset 10, -8
 874              		.cfi_offset 14, -4
 875              		.loc 1 400 0
 876 0004 9A46     		mov	sl, r3
 877 0006 0446     		mov	r4, r0
 878 0008 8846     		mov	r8, r1
 879 000a 1646     		mov	r6, r2
 880              		.loc 1 401 0
 881 000c D0F81C90 		ldr	r9, [r0, #28]
 882              	.LVL80:
 883              	.LBB40:
 884              		.loc 1 406 0
 885 0010 2023     		movs	r3, #32
 886              	.LVL81:
 887              	@ 406 "/home/dpeter/devel/sources/ChibiOS-RT/os/kernel/src/chqueues.c" 1
 888 0012 83F31188 		msr     BASEPRI, r3
 889              	@ 0 "" 2
 890              	.LVL82:
 891              		.loc 1 402 0
 892              		.thumb
 893 0016 0027     		movs	r7, #0
 894              	.LVL83:
 895              	.L98:
 896              	.LBE40:
 897              		.loc 1 408 0 discriminator 1
 898 0018 A568     		ldr	r5, [r4, #8]
 899              		.loc 1 420 0 discriminator 1
 900 001a 2046     		mov	r0, r4
 901              		.loc 1 414 0 discriminator 1
 902 001c 6B1E     		subs	r3, r5, #1
 903              	.LVL84:
 904              		.loc 1 408 0 discriminator 1
 905 001e EDB1     		cbz	r5, .L84
 906              	.LVL85:
ARM GAS  /tmp/ccHkckWl.s 			page 17


 907              	.L99:
 908              		.loc 1 414 0
 909 0020 A360     		str	r3, [r4, #8]
 910              		.loc 1 415 0
 911 0022 18F8013B 		ldrb	r3, [r8], #1	@ zero_extendqisi2
 912              	.LVL86:
 913 0026 6569     		ldr	r5, [r4, #20]
 914 0028 05F8013B 		strb	r3, [r5], #1
 915              		.loc 1 416 0
 916 002c 2369     		ldr	r3, [r4, #16]
 917              		.loc 1 415 0
 918 002e 6561     		str	r5, [r4, #20]
 919              	.LVL87:
 920              		.loc 1 416 0
 921 0030 9D42     		cmp	r5, r3
 922              		.loc 1 417 0
 923 0032 24BF     		itt	cs
 924 0034 E368     		ldrcs	r3, [r4, #12]
 925 0036 6361     		strcs	r3, [r4, #20]
 926              		.loc 1 419 0
 927 0038 B9F1000F 		cmp	r9, #0
 928 003c 00D0     		beq	.L86
 929              		.loc 1 420 0
 930 003e C847     		blx	r9
 931              	.LVL88:
 932              	.L86:
 933              	.LBB41:
 934              		.loc 1 422 0
 935 0040 0023     		movs	r3, #0
 936              	.LVL89:
 937              	@ 422 "/home/dpeter/devel/sources/ChibiOS-RT/os/kernel/src/chqueues.c" 1
 938 0042 83F31188 		msr     BASEPRI, r3
 939              	@ 0 "" 2
 940              	.LVL90:
 941              		.thumb
 942              	.LBE41:
 943              		.loc 1 423 0
 944 0046 0137     		adds	r7, r7, #1
 945              	.LVL91:
 946              		.loc 1 424 0
 947 0048 013E     		subs	r6, r6, #1
 948              	.LVL92:
 949 004a 10D0     		beq	.L83
 950              	.LBB42:
 951              		.loc 1 426 0
 952 004c 2023     		movs	r3, #32
 953              	.LVL93:
 954              	@ 426 "/home/dpeter/devel/sources/ChibiOS-RT/os/kernel/src/chqueues.c" 1
 955 004e 83F31188 		msr     BASEPRI, r3
 956              	@ 0 "" 2
 957              	.LVL94:
 958              		.thumb
 959              	.LBE42:
 960              		.loc 1 408 0
 961 0052 A568     		ldr	r5, [r4, #8]
 962              		.loc 1 420 0
 963 0054 2046     		mov	r0, r4
ARM GAS  /tmp/ccHkckWl.s 			page 18


 964              		.loc 1 414 0
 965 0056 6B1E     		subs	r3, r5, #1
 966              	.LVL95:
 967              		.loc 1 408 0
 968 0058 002D     		cmp	r5, #0
 969 005a E1D1     		bne	.L99
 970              	.LVL96:
 971              	.L84:
 972              		.loc 1 409 0
 973 005c 2046     		mov	r0, r4
 974              	.LVL97:
 975 005e 5146     		mov	r1, sl
 976 0060 FFF7FEFF 		bl	qwait
 977              	.LVL98:
 978 0064 0028     		cmp	r0, #0
 979 0066 D7D0     		beq	.L98
 980              	.LBB43:
 981              		.loc 1 410 0
 982 0068 2B46     		mov	r3, r5
 983              	.LVL99:
 984              	@ 410 "/home/dpeter/devel/sources/ChibiOS-RT/os/kernel/src/chqueues.c" 1
 985 006a 83F31188 		msr     BASEPRI, r3
 986              	@ 0 "" 2
 987              	.LVL100:
 988              		.thumb
 989              	.L83:
 990              	.LBE43:
 991              		.loc 1 428 0
 992 006e 3846     		mov	r0, r7
 993 0070 BDE8F087 		pop	{r4, r5, r6, r7, r8, r9, sl, pc}
 994              		.cfi_endproc
 995              	.LFE17:
 996              		.size	chOQWriteTimeout, .-chOQWriteTimeout
 997 0074 AFF30080 		.text
 997      AFF30080 
 997      AFF30080 
 998              	.Letext0:
 999              		.file 3 "/home/dpeter/CodeSourcery/Sourcery_CodeBench_Lite_for_ARM_EABI/bin/../lib/gcc/arm-none-ea
 1000              		.file 4 "/home/dpeter/CodeSourcery/Sourcery_CodeBench_Lite_for_ARM_EABI/bin/../lib/gcc/arm-none-ea
 1001              		.file 5 "/home/dpeter/devel/sources/ChibiOS-RT/os/ports/GCC/ARMCMx/chtypes.h"
 1002              		.file 6 "/home/dpeter/devel/sources/ChibiOS-RT/os/kernel/include/chlists.h"
 1003              		.file 7 "/home/dpeter/devel/sources/ChibiOS-RT/os/kernel/include/chthreads.h"
 1004              		.file 8 "/home/dpeter/devel/sources/ChibiOS-RT/os/ports/GCC/ARMCMx/chcore_v7m.h"
 1005              		.file 9 "/home/dpeter/devel/sources/ChibiOS-RT/os/kernel/include/chschd.h"
 1006              		.file 10 "/home/dpeter/devel/sources/ChibiOS-RT/os/kernel/include/chmtx.h"
 1007              		.file 11 "/home/dpeter/devel/sources/ChibiOS-RT/os/kernel/include/chqueues.h"