ARM GAS  /tmp/ccxHkL6V.s 			page 1


   1              		.syntax unified
   2              		.cpu cortex-m4
   3              		.fpu softvfp
   4              		.eabi_attribute 20, 1
   5              		.eabi_attribute 21, 1
   6              		.eabi_attribute 23, 3
   7              		.eabi_attribute 24, 1
   8              		.eabi_attribute 25, 1
   9              		.eabi_attribute 26, 1
  10              		.eabi_attribute 30, 2
  11              		.eabi_attribute 34, 1
  12              		.eabi_attribute 18, 4
  13              		.thumb
  14              		.file	"chschd.c"
  15              		.text
  16              	.Ltext0:
  17              		.cfi_sections	.debug_frame
  18              		.section	.text.wakeup,"ax",%progbits
  19              		.align	2
  20              		.p2align 4,,15
  21              		.thumb
  22              		.thumb_func
  23              		.type	wakeup, %function
  24              	wakeup:
  25              	.LFB10:
  26              		.file 1 "/home/dpeter/devel/sources/ChibiOS-RT/os/kernel/src/chschd.c"
  27              		.loc 1 129 0
  28              		.cfi_startproc
  29              		@ args = 0, pretend = 0, frame = 0
  30              		@ frame_needed = 0, uses_anonymous_args = 0
  31              		@ link register save eliminated.
  32              	.LVL0:
  33              	.LBB22:
  34              		.loc 1 132 0
  35 0000 2023     		movs	r3, #32
  36              	.LVL1:
  37              	@ 132 "/home/dpeter/devel/sources/ChibiOS-RT/os/kernel/src/chschd.c" 1
  38 0002 83F31188 		msr     BASEPRI, r3
  39              	@ 0 "" 2
  40              	.LVL2:
  41              		.thumb
  42              	.LBE22:
  43              		.loc 1 133 0
  44 0006 037F     		ldrb	r3, [r0, #28]	@ zero_extendqisi2
  45              	.LVL3:
  46 0008 0D2B     		cmp	r3, #13
  47 000a 11D8     		bhi	.L2
  48 000c DFE803F0 		tbb	[pc, r3]
  49              	.L6:
  50 0010 20       		.byte	(.L10-.L6)/2
  51 0011 10       		.byte	(.L2-.L6)/2
  52 0012 10       		.byte	(.L2-.L6)/2
  53 0013 07       		.byte	(.L4-.L6)/2
  54 0014 10       		.byte	(.L2-.L6)/2
  55 0015 0B       		.byte	(.L5-.L6)/2
  56 0016 10       		.byte	(.L2-.L6)/2
  57 0017 10       		.byte	(.L2-.L6)/2
ARM GAS  /tmp/ccxHkL6V.s 			page 2


  58 0018 10       		.byte	(.L2-.L6)/2
  59 0019 10       		.byte	(.L2-.L6)/2
  60 001a 10       		.byte	(.L2-.L6)/2
  61 001b 10       		.byte	(.L2-.L6)/2
  62 001c 10       		.byte	(.L2-.L6)/2
  63 001d 0B       		.byte	(.L5-.L6)/2
  64              		.align	1
  65              	.L4:
  66              		.loc 1 143 0
  67 001e 436A     		ldr	r3, [r0, #36]
  68 0020 9A68     		ldr	r2, [r3, #8]
  69 0022 0132     		adds	r2, r2, #1
  70 0024 9A60     		str	r2, [r3, #8]
  71              	.L5:
  72              	.LVL4:
  73              	.LBB23:
  74              	.LBB24:
  75              		.file 2 "/home/dpeter/devel/sources/ChibiOS-RT/os/kernel/include/chinline.h"
  76              		.loc 2 68 0
  77 0026 90E80C00 		ldmia	r0, {r2, r3}
  78 002a 1A60     		str	r2, [r3, #0]
  79              		.loc 2 69 0
  80 002c 0268     		ldr	r2, [r0, #0]
  81 002e 5360     		str	r3, [r2, #4]
  82              	.LVL5:
  83              	.L2:
  84              	.LBE24:
  85              	.LBE23:
  86              		.loc 1 156 0
  87 0030 4FF0FF32 		mov	r2, #-1
  88 0034 4262     		str	r2, [r0, #36]
  89              	.LVL6:
  90 0036 8168     		ldr	r1, [r0, #8]
  91              	.LBB25:
  92              	.LBB26:
  93              		.loc 1 86 0
  94 0038 074B     		ldr	r3, .L12
  95              		.loc 1 85 0
  96 003a 0022     		movs	r2, #0
  97 003c 0277     		strb	r2, [r0, #28]
  98              	.LVL7:
  99              	.L8:
 100              		.loc 1 88 0
 101 003e 1B68     		ldr	r3, [r3, #0]
 102              	.LVL8:
 103              		.loc 1 89 0
 104 0040 9A68     		ldr	r2, [r3, #8]
 105 0042 8A42     		cmp	r2, r1
 106 0044 FBD2     		bcs	.L8
 107              		.loc 1 92 0
 108 0046 5A68     		ldr	r2, [r3, #4]
 109              		.loc 1 91 0
 110 0048 0360     		str	r3, [r0, #0]
 111              		.loc 1 92 0
 112 004a 4260     		str	r2, [r0, #4]
 113              		.loc 1 93 0
 114 004c 1060     		str	r0, [r2, #0]
ARM GAS  /tmp/ccxHkL6V.s 			page 3


 115 004e 5860     		str	r0, [r3, #4]
 116              	.LVL9:
 117              	.L10:
 118              	.LBE26:
 119              	.LBE25:
 120              	.LBB27:
 121              		.loc 1 158 0
 122 0050 0023     		movs	r3, #0
 123              	.LVL10:
 124              	@ 158 "/home/dpeter/devel/sources/ChibiOS-RT/os/kernel/src/chschd.c" 1
 125 0052 83F31188 		msr     BASEPRI, r3
 126              	@ 0 "" 2
 127              	.LVL11:
 128              		.thumb
 129 0056 7047     		bx	lr
 130              	.L13:
 131              		.align	2
 132              	.L12:
 133 0058 00000000 		.word	.LANCHOR0
 134              	.LBE27:
 135              		.cfi_endproc
 136              	.LFE10:
 137              		.size	wakeup, .-wakeup
 138 005c AFF30080 		.section	.text._scheduler_init,"ax",%progbits
 139              		.align	2
 140              		.p2align 4,,15
 141              		.global	_scheduler_init
 142              		.thumb
 143              		.thumb_func
 144              		.type	_scheduler_init, %function
 145              	_scheduler_init:
 146              	.LFB7:
 147              		.loc 1 48 0
 148              		.cfi_startproc
 149              		@ args = 0, pretend = 0, frame = 0
 150              		@ frame_needed = 0, uses_anonymous_args = 0
 151              		@ link register save eliminated.
 152              		.loc 1 50 0
 153 0000 034B     		ldr	r3, .L15
 154              		.loc 1 51 0
 155 0002 0022     		movs	r2, #0
 156              		.loc 1 50 0
 157 0004 5B60     		str	r3, [r3, #4]
 158 0006 1B60     		str	r3, [r3, #0]
 159              		.loc 1 51 0
 160 0008 9A60     		str	r2, [r3, #8]
 161              		.loc 1 53 0
 162 000a 5B61     		str	r3, [r3, #20]
 163 000c 1B61     		str	r3, [r3, #16]
 164 000e 7047     		bx	lr
 165              	.L16:
 166              		.align	2
 167              	.L15:
 168 0010 00000000 		.word	.LANCHOR0
 169              		.cfi_endproc
 170              	.LFE7:
 171              		.size	_scheduler_init, .-_scheduler_init
ARM GAS  /tmp/ccxHkL6V.s 			page 4


 172 0014 AFF30080 		.section	.text.chSchReadyI,"ax",%progbits
 172      AFF30080 
 172      AFF30080 
 173              		.align	2
 174              		.p2align 4,,15
 175              		.global	chSchReadyI
 176              		.thumb
 177              		.thumb_func
 178              		.type	chSchReadyI, %function
 179              	chSchReadyI:
 180              	.LFB8:
 181              		.loc 1 74 0
 182              		.cfi_startproc
 183              		@ args = 0, pretend = 0, frame = 0
 184              		@ frame_needed = 0, uses_anonymous_args = 0
 185              		@ link register save eliminated.
 186              	.LVL12:
 187              		.loc 1 85 0
 188 0000 0022     		movs	r2, #0
 189 0002 8168     		ldr	r1, [r0, #8]
 190              		.loc 1 86 0
 191 0004 054B     		ldr	r3, .L20
 192              		.loc 1 85 0
 193 0006 0277     		strb	r2, [r0, #28]
 194              	.LVL13:
 195              	.L18:
 196              		.loc 1 88 0 discriminator 1
 197 0008 1B68     		ldr	r3, [r3, #0]
 198              	.LVL14:
 199              		.loc 1 89 0 discriminator 1
 200 000a 9A68     		ldr	r2, [r3, #8]
 201 000c 8A42     		cmp	r2, r1
 202 000e FBD2     		bcs	.L18
 203              		.loc 1 92 0
 204 0010 5A68     		ldr	r2, [r3, #4]
 205              		.loc 1 91 0
 206 0012 0360     		str	r3, [r0, #0]
 207              		.loc 1 92 0
 208 0014 4260     		str	r2, [r0, #4]
 209              		.loc 1 93 0
 210 0016 1060     		str	r0, [r2, #0]
 211 0018 5860     		str	r0, [r3, #4]
 212              		.loc 1 95 0
 213 001a 7047     		bx	lr
 214              	.L21:
 215              		.align	2
 216              	.L20:
 217 001c 00000000 		.word	.LANCHOR0
 218              		.cfi_endproc
 219              	.LFE8:
 220              		.size	chSchReadyI, .-chSchReadyI
 221              		.section	.text.chSchGoSleepS,"ax",%progbits
 222              		.align	2
 223              		.p2align 4,,15
 224              		.global	chSchGoSleepS
 225              		.thumb
 226              		.thumb_func
ARM GAS  /tmp/ccxHkL6V.s 			page 5


 227              		.type	chSchGoSleepS, %function
 228              	chSchGoSleepS:
 229              	.LFB9:
 230              		.loc 1 108 0
 231              		.cfi_startproc
 232              		@ args = 0, pretend = 0, frame = 0
 233              		@ frame_needed = 0, uses_anonymous_args = 0
 234              		@ link register save eliminated.
 235              	.LVL15:
 236              		.loc 1 113 0
 237 0000 084B     		ldr	r3, .L23
 238              		.loc 1 108 0
 239 0002 10B4     		push	{r4}
 240              	.LCFI0:
 241              		.cfi_def_cfa_offset 4
 242              		.cfi_offset 4, -4
 243              		.loc 1 113 0
 244 0004 9969     		ldr	r1, [r3, #24]
 245              	.LVL16:
 246              	.LBB28:
 247              	.LBB29:
 248              		.loc 2 53 0
 249 0006 1A68     		ldr	r2, [r3, #0]
 250              	.LBE29:
 251              	.LBE28:
 252              		.loc 1 113 0
 253 0008 0877     		strb	r0, [r1, #28]
 254              		.loc 1 117 0
 255 000a 1420     		movs	r0, #20
 256              	.LVL17:
 257              	.LBB32:
 258              	.LBB30:
 259              		.loc 2 55 0
 260 000c 1468     		ldr	r4, [r2, #0]
 261              	.LBE30:
 262              	.LBE32:
 263              		.loc 1 117 0
 264 000e C877     		strb	r0, [r1, #31]
 265              	.LVL18:
 266              		.loc 1 120 0
 267 0010 0120     		movs	r0, #1
 268 0012 1077     		strb	r0, [r2, #28]
 269              		.loc 1 121 0
 270 0014 1046     		mov	r0, r2
 271              	.LBB33:
 272              	.LBB31:
 273              		.loc 2 55 0
 274 0016 6360     		str	r3, [r4, #4]
 275 0018 1C60     		str	r4, [r3, #0]
 276              	.LBE31:
 277              	.LBE33:
 278              		.loc 1 119 0
 279 001a 9A61     		str	r2, [r3, #24]
 280              		.loc 1 122 0
 281 001c 10BC     		pop	{r4}
 282              		.loc 1 121 0
 283 001e FFF7FEBF 		b	_port_switch
ARM GAS  /tmp/ccxHkL6V.s 			page 6


 284              	.LVL19:
 285              	.L24:
 286 0022 00BF     		.align	2
 287              	.L23:
 288 0024 00000000 		.word	.LANCHOR0
 289              		.cfi_endproc
 290              	.LFE9:
 291              		.size	chSchGoSleepS, .-chSchGoSleepS
 292 0028 AFF30080 		.section	.text.chSchGoSleepTimeoutS,"ax",%progbits
 292      AFF30080 
 293              		.align	2
 294              		.p2align 4,,15
 295              		.global	chSchGoSleepTimeoutS
 296              		.thumb
 297              		.thumb_func
 298              		.type	chSchGoSleepTimeoutS, %function
 299              	chSchGoSleepTimeoutS:
 300              	.LFB11:
 301              		.loc 1 182 0
 302              		.cfi_startproc
 303              		@ args = 0, pretend = 0, frame = 24
 304              		@ frame_needed = 0, uses_anonymous_args = 0
 305              	.LVL20:
 306 0000 30B5     		push	{r4, r5, lr}
 307              	.LCFI1:
 308              		.cfi_def_cfa_offset 12
 309              		.cfi_offset 4, -12
 310              		.cfi_offset 5, -8
 311              		.cfi_offset 14, -4
 312              		.loc 1 186 0
 313 0002 4B1C     		adds	r3, r1, #1
 314              		.loc 1 182 0
 315 0004 87B0     		sub	sp, sp, #28
 316              	.LCFI2:
 317              		.cfi_def_cfa_offset 40
 318              		.loc 1 182 0
 319 0006 0546     		mov	r5, r0
 320              		.loc 1 186 0
 321 0008 11D0     		beq	.L26
 322              	.LBB34:
 323              		.loc 1 189 0
 324 000a 0B4C     		ldr	r4, .L32
 325 000c 0B4A     		ldr	r2, .L32+4
 326 000e A369     		ldr	r3, [r4, #24]
 327 0010 01A8     		add	r0, sp, #4
 328              	.LVL21:
 329 0012 FFF7FEFF 		bl	chVTSetI
 330              	.LVL22:
 331              		.loc 1 190 0
 332 0016 2846     		mov	r0, r5
 333 0018 FFF7FEFF 		bl	chSchGoSleepS
 334              	.LVL23:
 335              		.loc 1 191 0
 336 001c 049B     		ldr	r3, [sp, #16]
 337 001e 13B1     		cbz	r3, .L28
 338              		.loc 1 192 0
 339 0020 01A8     		add	r0, sp, #4
ARM GAS  /tmp/ccxHkL6V.s 			page 7


 340 0022 FFF7FEFF 		bl	chVTResetI
 341              	.LVL24:
 342              	.L28:
 343              	.LBE34:
 344              		.loc 1 196 0
 345 0026 A369     		ldr	r3, [r4, #24]
 346              		.loc 1 197 0
 347 0028 586A     		ldr	r0, [r3, #36]
 348 002a 07B0     		add	sp, sp, #28
 349 002c 30BD     		pop	{r4, r5, pc}
 350              	.LVL25:
 351              	.L26:
 352              		.loc 1 195 0
 353 002e FFF7FEFF 		bl	chSchGoSleepS
 354              	.LVL26:
 355 0032 014C     		ldr	r4, .L32
 356 0034 F7E7     		b	.L28
 357              	.L33:
 358 0036 00BF     		.align	2
 359              	.L32:
 360 0038 00000000 		.word	.LANCHOR0
 361 003c 00000000 		.word	wakeup
 362              		.cfi_endproc
 363              	.LFE11:
 364              		.size	chSchGoSleepTimeoutS, .-chSchGoSleepTimeoutS
 365              		.section	.text.chSchWakeupS,"ax",%progbits
 366              		.align	2
 367              		.p2align 4,,15
 368              		.global	chSchWakeupS
 369              		.thumb
 370              		.thumb_func
 371              		.type	chSchWakeupS, %function
 372              	chSchWakeupS:
 373              	.LFB12:
 374              		.loc 1 218 0
 375              		.cfi_startproc
 376              		@ args = 0, pretend = 0, frame = 0
 377              		@ frame_needed = 0, uses_anonymous_args = 0
 378              		@ link register save eliminated.
 379              	.LVL27:
 380 0000 F0B4     		push	{r4, r5, r6, r7}
 381              	.LCFI3:
 382              		.cfi_def_cfa_offset 16
 383              		.cfi_offset 4, -16
 384              		.cfi_offset 5, -12
 385              		.cfi_offset 6, -8
 386              		.cfi_offset 7, -4
 387              		.loc 1 227 0
 388 0002 144F     		ldr	r7, .L42
 389 0004 8568     		ldr	r5, [r0, #8]
 390 0006 BE69     		ldr	r6, [r7, #24]
 391              		.loc 1 218 0
 392 0008 0446     		mov	r4, r0
 393              		.loc 1 227 0
 394 000a B068     		ldr	r0, [r6, #8]
 395              	.LVL28:
 396              		.loc 1 222 0
ARM GAS  /tmp/ccxHkL6V.s 			page 8


 397 000c 6162     		str	r1, [r4, #36]
 398              	.LBB35:
 399              	.LBB36:
 400              		.loc 1 85 0
 401 000e 0023     		movs	r3, #0
 402              	.LBE36:
 403              	.LBE35:
 404              		.loc 1 227 0
 405 0010 8542     		cmp	r5, r0
 406 0012 0CD8     		bhi	.L35
 407              	.LVL29:
 408              	.LBB38:
 409              	.LBB37:
 410              		.loc 1 85 0
 411 0014 2377     		strb	r3, [r4, #28]
 412              	.LVL30:
 413              		.loc 1 86 0
 414 0016 3B46     		mov	r3, r7
 415              	.LVL31:
 416              	.L36:
 417              		.loc 1 88 0
 418 0018 1B68     		ldr	r3, [r3, #0]
 419              	.LVL32:
 420              		.loc 1 89 0
 421 001a 9A68     		ldr	r2, [r3, #8]
 422 001c 9542     		cmp	r5, r2
 423 001e FBD9     		bls	.L36
 424              		.loc 1 92 0
 425 0020 5A68     		ldr	r2, [r3, #4]
 426              		.loc 1 91 0
 427 0022 2360     		str	r3, [r4, #0]
 428              		.loc 1 92 0
 429 0024 6260     		str	r2, [r4, #4]
 430              		.loc 1 93 0
 431 0026 1460     		str	r4, [r2, #0]
 432 0028 5C60     		str	r4, [r3, #4]
 433              	.LBE37:
 434              	.LBE38:
 435              		.loc 1 235 0
 436 002a F0BC     		pop	{r4, r5, r6, r7}
 437 002c 7047     		bx	lr
 438              	.LVL33:
 439              	.L35:
 440              	.LBB39:
 441              	.LBB40:
 442              	.LBB41:
 443              		.loc 1 85 0
 444 002e 3377     		strb	r3, [r6, #28]
 445              	.LVL34:
 446              		.loc 1 86 0
 447 0030 3B46     		mov	r3, r7
 448              	.LVL35:
 449              	.L38:
 450              		.loc 1 88 0
 451 0032 1B68     		ldr	r3, [r3, #0]
 452              	.LVL36:
 453              		.loc 1 89 0
ARM GAS  /tmp/ccxHkL6V.s 			page 9


 454 0034 9A68     		ldr	r2, [r3, #8]
 455 0036 9042     		cmp	r0, r2
 456 0038 FBD9     		bls	.L38
 457              		.loc 1 92 0
 458 003a 5A68     		ldr	r2, [r3, #4]
 459              		.loc 1 91 0
 460 003c 3360     		str	r3, [r6, #0]
 461              		.loc 1 92 0
 462 003e 7260     		str	r2, [r6, #4]
 463              	.LBE41:
 464              	.LBE40:
 465              		.loc 1 233 0
 466 0040 2046     		mov	r0, r4
 467              	.LBB44:
 468              	.LBB42:
 469              		.loc 1 93 0
 470 0042 5E60     		str	r6, [r3, #4]
 471              	.LBE42:
 472              	.LBE44:
 473              		.loc 1 233 0
 474 0044 3146     		mov	r1, r6
 475              	.LVL37:
 476              		.loc 1 232 0
 477 0046 0123     		movs	r3, #1
 478              	.LVL38:
 479              	.LBB45:
 480              	.LBB43:
 481              		.loc 1 93 0
 482 0048 1660     		str	r6, [r2, #0]
 483              	.LBE43:
 484              	.LBE45:
 485              		.loc 1 232 0
 486 004a 2377     		strb	r3, [r4, #28]
 487              		.loc 1 231 0
 488 004c BC61     		str	r4, [r7, #24]
 489              	.LBE39:
 490              		.loc 1 235 0
 491 004e F0BC     		pop	{r4, r5, r6, r7}
 492              	.LBB46:
 493              		.loc 1 233 0
 494 0050 FFF7FEBF 		b	_port_switch
 495              	.LVL39:
 496              	.L43:
 497              		.align	2
 498              	.L42:
 499 0054 00000000 		.word	.LANCHOR0
 500              	.LBE46:
 501              		.cfi_endproc
 502              	.LFE12:
 503              		.size	chSchWakeupS, .-chSchWakeupS
 504 0058 AFF30080 		.section	.text.chSchDoRescheduleBehind,"ax",%progbits
 504      AFF30080 
 505              		.align	2
 506              		.p2align 4,,15
 507              		.global	chSchDoRescheduleBehind
 508              		.thumb
 509              		.thumb_func
ARM GAS  /tmp/ccxHkL6V.s 			page 10


 510              		.type	chSchDoRescheduleBehind, %function
 511              	chSchDoRescheduleBehind:
 512              	.LFB14:
 513              		.loc 1 297 0
 514              		.cfi_startproc
 515              		@ args = 0, pretend = 0, frame = 0
 516              		@ frame_needed = 0, uses_anonymous_args = 0
 517              		@ link register save eliminated.
 518              		.loc 1 300 0
 519 0000 0E4B     		ldr	r3, .L48
 520              	.LBB47:
 521              	.LBB48:
 522              		.loc 2 53 0
 523 0002 1868     		ldr	r0, [r3, #0]
 524              	.LBE48:
 525              	.LBE47:
 526              		.loc 1 300 0
 527 0004 9969     		ldr	r1, [r3, #24]
 528              	.LVL40:
 529              	.LBB51:
 530              	.LBB49:
 531              		.loc 2 55 0
 532 0006 0268     		ldr	r2, [r0, #0]
 533              	.LBE49:
 534              	.LBE51:
 535              		.loc 1 297 0
 536 0008 30B4     		push	{r4, r5}
 537              	.LCFI4:
 538              		.cfi_def_cfa_offset 8
 539              		.cfi_offset 4, -8
 540              		.cfi_offset 5, -4
 541              	.LBB52:
 542              	.LBB50:
 543              		.loc 2 55 0
 544 000a 5360     		str	r3, [r2, #4]
 545 000c 8C68     		ldr	r4, [r1, #8]
 546 000e 1A60     		str	r2, [r3, #0]
 547              	.LBE50:
 548              	.LBE52:
 549              		.loc 1 302 0
 550 0010 9861     		str	r0, [r3, #24]
 551              		.loc 1 305 0
 552 0012 1423     		movs	r3, #20
 553              		.loc 1 303 0
 554 0014 0125     		movs	r5, #1
 555              		.loc 1 305 0
 556 0016 CB77     		strb	r3, [r1, #31]
 557              	.LVL41:
 558              	.LBB53:
 559              	.LBB54:
 560              		.loc 1 85 0
 561 0018 0023     		movs	r3, #0
 562              	.LBE54:
 563              	.LBE53:
 564              		.loc 1 303 0
 565 001a 0577     		strb	r5, [r0, #28]
 566              	.LBB56:
ARM GAS  /tmp/ccxHkL6V.s 			page 11


 567              	.LBB55:
 568              		.loc 1 85 0
 569 001c 0B77     		strb	r3, [r1, #28]
 570              	.LVL42:
 571 001e 0346     		mov	r3, r0
 572 0020 00E0     		b	.L46
 573              	.LVL43:
 574              	.L47:
 575 0022 1B68     		ldr	r3, [r3, #0]
 576              	.LVL44:
 577              	.L46:
 578              		.loc 1 89 0
 579 0024 9A68     		ldr	r2, [r3, #8]
 580 0026 A242     		cmp	r2, r4
 581 0028 FBD2     		bcs	.L47
 582              		.loc 1 92 0
 583 002a 5A68     		ldr	r2, [r3, #4]
 584              		.loc 1 91 0
 585 002c 0B60     		str	r3, [r1, #0]
 586              		.loc 1 92 0
 587 002e 4A60     		str	r2, [r1, #4]
 588              		.loc 1 93 0
 589 0030 1160     		str	r1, [r2, #0]
 590 0032 5960     		str	r1, [r3, #4]
 591              	.LBE55:
 592              	.LBE56:
 593              		.loc 1 309 0
 594 0034 30BC     		pop	{r4, r5}
 595              		.loc 1 308 0
 596 0036 FFF7FEBF 		b	_port_switch
 597              	.LVL45:
 598              	.L49:
 599 003a 00BF     		.align	2
 600              	.L48:
 601 003c 00000000 		.word	.LANCHOR0
 602              		.cfi_endproc
 603              	.LFE14:
 604              		.size	chSchDoRescheduleBehind, .-chSchDoRescheduleBehind
 605              		.section	.text.chSchDoRescheduleAhead,"ax",%progbits
 606              		.align	2
 607              		.p2align 4,,15
 608              		.global	chSchDoRescheduleAhead
 609              		.thumb
 610              		.thumb_func
 611              		.type	chSchDoRescheduleAhead, %function
 612              	chSchDoRescheduleAhead:
 613              	.LFB15:
 614              		.loc 1 322 0
 615              		.cfi_startproc
 616              		@ args = 0, pretend = 0, frame = 0
 617              		@ frame_needed = 0, uses_anonymous_args = 0
 618              		@ link register save eliminated.
 619              		.loc 1 325 0
 620 0000 0D4B     		ldr	r3, .L54
 621              	.LBB57:
 622              	.LBB58:
 623              		.loc 2 53 0
ARM GAS  /tmp/ccxHkL6V.s 			page 12


 624 0002 1868     		ldr	r0, [r3, #0]
 625              	.LBE58:
 626              	.LBE57:
 627              		.loc 1 325 0
 628 0004 9969     		ldr	r1, [r3, #24]
 629              	.LVL46:
 630              	.LBB61:
 631              	.LBB59:
 632              		.loc 2 55 0
 633 0006 0268     		ldr	r2, [r0, #0]
 634              	.LBE59:
 635              	.LBE61:
 636              		.loc 1 322 0
 637 0008 30B4     		push	{r4, r5}
 638              	.LCFI5:
 639              		.cfi_def_cfa_offset 8
 640              		.cfi_offset 4, -8
 641              		.cfi_offset 5, -4
 642              	.LBB62:
 643              	.LBB60:
 644              		.loc 2 55 0
 645 000a 5360     		str	r3, [r2, #4]
 646 000c 8C68     		ldr	r4, [r1, #8]
 647 000e 1A60     		str	r2, [r3, #0]
 648              	.LBE60:
 649              	.LBE62:
 650              		.loc 1 328 0
 651 0010 0125     		movs	r5, #1
 652              		.loc 1 327 0
 653 0012 9861     		str	r0, [r3, #24]
 654              		.loc 1 330 0
 655 0014 0023     		movs	r3, #0
 656              		.loc 1 328 0
 657 0016 0577     		strb	r5, [r0, #28]
 658              		.loc 1 330 0
 659 0018 0B77     		strb	r3, [r1, #28]
 660              	.LVL47:
 661 001a 0346     		mov	r3, r0
 662 001c 00E0     		b	.L52
 663              	.LVL48:
 664              	.L53:
 665 001e 1B68     		ldr	r3, [r3, #0]
 666              	.LVL49:
 667              	.L52:
 668              		.loc 1 334 0 discriminator 1
 669 0020 9A68     		ldr	r2, [r3, #8]
 670 0022 A242     		cmp	r2, r4
 671 0024 FBD8     		bhi	.L53
 672              		.loc 1 337 0
 673 0026 5A68     		ldr	r2, [r3, #4]
 674              		.loc 1 336 0
 675 0028 0B60     		str	r3, [r1, #0]
 676              		.loc 1 337 0
 677 002a 4A60     		str	r2, [r1, #4]
 678              		.loc 1 338 0
 679 002c 1160     		str	r1, [r2, #0]
 680 002e 5960     		str	r1, [r3, #4]
ARM GAS  /tmp/ccxHkL6V.s 			page 13


 681              		.loc 1 341 0
 682 0030 30BC     		pop	{r4, r5}
 683              		.loc 1 340 0
 684 0032 FFF7FEBF 		b	_port_switch
 685              	.LVL50:
 686              	.L55:
 687 0036 00BF     		.align	2
 688              	.L54:
 689 0038 00000000 		.word	.LANCHOR0
 690              		.cfi_endproc
 691              	.LFE15:
 692              		.size	chSchDoRescheduleAhead, .-chSchDoRescheduleAhead
 693 003c AFF30080 		.section	.text.chSchRescheduleS,"ax",%progbits
 694              		.align	2
 695              		.p2align 4,,15
 696              		.global	chSchRescheduleS
 697              		.thumb
 698              		.thumb_func
 699              		.type	chSchRescheduleS, %function
 700              	chSchRescheduleS:
 701              	.LFB13:
 702              		.loc 1 246 0
 703              		.cfi_startproc
 704              		@ args = 0, pretend = 0, frame = 0
 705              		@ frame_needed = 0, uses_anonymous_args = 0
 706              		@ link register save eliminated.
 707              		.loc 1 250 0
 708 0000 044B     		ldr	r3, .L59
 709 0002 1A68     		ldr	r2, [r3, #0]
 710 0004 9B69     		ldr	r3, [r3, #24]
 711 0006 9268     		ldr	r2, [r2, #8]
 712 0008 9B68     		ldr	r3, [r3, #8]
 713 000a 9A42     		cmp	r2, r3
 714 000c 00D8     		bhi	.L58
 715 000e 7047     		bx	lr
 716              	.L58:
 717              		.loc 1 252 0
 718              		.loc 1 251 0
 719 0010 FFF7FEBF 		b	chSchDoRescheduleAhead
 720              	.LVL51:
 721              	.L60:
 722              		.align	2
 723              	.L59:
 724 0014 00000000 		.word	.LANCHOR0
 725              		.cfi_endproc
 726              	.LFE13:
 727              		.size	chSchRescheduleS, .-chSchRescheduleS
 728 0018 AFF30080 		.section	.text.chSchDoReschedule,"ax",%progbits
 728      AFF30080 
 729              		.align	2
 730              		.p2align 4,,15
 731              		.global	chSchDoReschedule
 732              		.thumb
 733              		.thumb_func
 734              		.type	chSchDoReschedule, %function
 735              	chSchDoReschedule:
 736              	.LFB16:
ARM GAS  /tmp/ccxHkL6V.s 			page 14


 737              		.loc 1 355 0
 738              		.cfi_startproc
 739              		@ args = 0, pretend = 0, frame = 0
 740              		@ frame_needed = 0, uses_anonymous_args = 0
 741              		@ link register save eliminated.
 742              		.loc 1 360 0
 743 0000 034B     		ldr	r3, .L64
 744 0002 9B69     		ldr	r3, [r3, #24]
 745 0004 DB7F     		ldrb	r3, [r3, #31]	@ zero_extendqisi2
 746 0006 0BB1     		cbz	r3, .L63
 747              		.loc 1 375 0
 748              		.loc 1 368 0
 749 0008 FFF7FEBF 		b	chSchDoRescheduleAhead
 750              	.LVL52:
 751              	.L63:
 752              		.loc 1 375 0
 753              		.loc 1 363 0
 754 000c FFF7FEBF 		b	chSchDoRescheduleBehind
 755              	.LVL53:
 756              	.L65:
 757              		.align	2
 758              	.L64:
 759 0010 00000000 		.word	.LANCHOR0
 760              		.cfi_endproc
 761              	.LFE16:
 762              		.size	chSchDoReschedule, .-chSchDoReschedule
 763              		.global	rlist
 764 0014 AFF30080 		.section	.bss.rlist,"aw",%nobits
 764      AFF30080 
 764      AFF30080 
 765              		.align	2
 766              		.set	.LANCHOR0,. + 0
 767              		.type	rlist, %object
 768              		.size	rlist, 28
 769              	rlist:
 770 0000 00000000 		.space	28
 770      00000000 
 770      00000000 
 770      00000000 
 770      00000000 
 771              		.text
 772              	.Letext0:
 773              		.file 3 "/home/dpeter/CodeSourcery/Sourcery_CodeBench_Lite_for_ARM_EABI/bin/../lib/gcc/arm-none-ea
 774              		.file 4 "/home/dpeter/devel/sources/ChibiOS-RT/os/ports/GCC/ARMCMx/chtypes.h"
 775              		.file 5 "/home/dpeter/devel/sources/ChibiOS-RT/os/kernel/include/chlists.h"
 776              		.file 6 "/home/dpeter/devel/sources/ChibiOS-RT/os/kernel/include/chthreads.h"
 777              		.file 7 "/home/dpeter/devel/sources/ChibiOS-RT/os/ports/GCC/ARMCMx/chcore_v7m.h"
 778              		.file 8 "/home/dpeter/devel/sources/ChibiOS-RT/os/kernel/include/chvt.h"
 779              		.file 9 "/home/dpeter/devel/sources/ChibiOS-RT/os/kernel/include/chschd.h"
 780              		.file 10 "/home/dpeter/devel/sources/ChibiOS-RT/os/kernel/include/chsem.h"
 781              		.file 11 "/home/dpeter/devel/sources/ChibiOS-RT/os/kernel/include/chmtx.h"