ARM GAS  /tmp/cccTei8u.s 			page 1


   1              		.syntax unified
   2              		.cpu cortex-m4
   3              		.fpu softvfp
   4              		.eabi_attribute 20, 1
   5              		.eabi_attribute 21, 1
   6              		.eabi_attribute 23, 3
   7              		.eabi_attribute 24, 1
   8              		.eabi_attribute 25, 1
   9              		.eabi_attribute 26, 1
  10              		.eabi_attribute 30, 2
  11              		.eabi_attribute 34, 1
  12              		.eabi_attribute 18, 4
  13              		.thumb
  14              		.file	"hal.c"
  15              		.text
  16              	.Ltext0:
  17              		.cfi_sections	.debug_frame
  18              		.section	.text.halInit,"ax",%progbits
  19              		.align	2
  20              		.p2align 4,,15
  21              		.global	halInit
  22              		.thumb
  23              		.thumb_func
  24              		.type	halInit, %function
  25              	halInit:
  26              	.LFB118:
  27              		.file 1 "/home/dpeter/devel/sources/ChibiOS-RT/os/hal/src/hal.c"
  28              		.loc 1 61 0
  29              		.cfi_startproc
  30              		@ args = 0, pretend = 0, frame = 0
  31              		@ frame_needed = 0, uses_anonymous_args = 0
  32 0000 08B5     		push	{r3, lr}
  33              	.LCFI0:
  34              		.cfi_def_cfa_offset 8
  35              		.cfi_offset 3, -8
  36              		.cfi_offset 14, -4
  37              		.loc 1 63 0
  38 0002 FFF7FEFF 		bl	hal_lld_init
  39              	.LVL0:
  40              		.loc 1 69 0
  41 0006 0848     		ldr	r0, .L2
  42 0008 FFF7FEFF 		bl	_pal_lld_init
  43              	.LVL1:
  44              		.loc 1 93 0
  45 000c FFF7FEFF 		bl	pwmInit
  46              	.LVL2:
  47              		.loc 1 96 0
  48 0010 FFF7FEFF 		bl	sdInit
  49              	.LVL3:
  50              		.loc 1 102 0
  51 0014 FFF7FEFF 		bl	spiInit
  52              	.LVL4:
  53              		.loc 1 108 0
  54 0018 FFF7FEFF 		bl	usbInit
  55              	.LVL5:
  56              		.loc 1 114 0
  57 001c FFF7FEFF 		bl	sduInit
ARM GAS  /tmp/cccTei8u.s 			page 2


  58              	.LVL6:
  59              		.loc 1 121 0
  60 0020 BDE80840 		pop	{r3, lr}
  61              		.loc 1 120 0
  62 0024 FFF7FEBF 		b	boardInit
  63              	.LVL7:
  64              	.L3:
  65              		.align	2
  66              	.L2:
  67 0028 00000000 		.word	pal_default_config
  68              		.cfi_endproc
  69              	.LFE118:
  70              		.size	halInit, .-halInit
  71 002c AFF30080 		.section	.text.halIsCounterWithin,"ax",%progbits
  72              		.align	2
  73              		.p2align 4,,15
  74              		.global	halIsCounterWithin
  75              		.thumb
  76              		.thumb_func
  77              		.type	halIsCounterWithin, %function
  78              	halIsCounterWithin:
  79              	.LFB119:
  80              		.loc 1 167 0
  81              		.cfi_startproc
  82              		@ args = 0, pretend = 0, frame = 0
  83              		@ frame_needed = 0, uses_anonymous_args = 0
  84              		@ link register save eliminated.
  85              	.LVL8:
  86              		.loc 1 168 0
  87 0000 084B     		ldr	r3, .L13
  88              		.loc 1 170 0
  89 0002 8142     		cmp	r1, r0
  90              		.loc 1 168 0
  91 0004 5B68     		ldr	r3, [r3, #4]
  92              	.LVL9:
  93              		.loc 1 170 0
  94 0006 06D9     		bls	.L5
  95              		.loc 1 170 0 is_stmt 0 discriminator 1
  96 0008 8342     		cmp	r3, r0
  97 000a 08D3     		bcc	.L9
  98              	.L11:
  99              		.loc 1 171 0 is_stmt 1 discriminator 2
 100 000c 8B42     		cmp	r3, r1
 101 000e 2CBF     		ite	cs
 102 0010 0020     		movcs	r0, #0
 103              	.LVL10:
 104 0012 0120     		movcc	r0, #1
 105 0014 7047     		bx	lr
 106              	.LVL11:
 107              	.L5:
 108              		.loc 1 171 0 is_stmt 0
 109 0016 8342     		cmp	r3, r0
 110 0018 F8D3     		bcc	.L11
 111 001a 0120     		movs	r0, #1
 112              	.LVL12:
 113              		.loc 1 172 0 is_stmt 1
 114 001c 7047     		bx	lr
ARM GAS  /tmp/cccTei8u.s 			page 3


 115              	.LVL13:
 116              	.L9:
 117              		.loc 1 170 0
 118 001e 0020     		movs	r0, #0
 119              	.LVL14:
 120 0020 7047     		bx	lr
 121              	.L14:
 122 0022 00BF     		.align	2
 123              	.L13:
 124 0024 001000E0 		.word	-536866816
 125              		.cfi_endproc
 126              	.LFE119:
 127              		.size	halIsCounterWithin, .-halIsCounterWithin
 128 0028 AFF30080 		.section	.text.halPolledDelay,"ax",%progbits
 128      AFF30080 
 129              		.align	2
 130              		.p2align 4,,15
 131              		.global	halPolledDelay
 132              		.thumb
 133              		.thumb_func
 134              		.type	halPolledDelay, %function
 135              	halPolledDelay:
 136              	.LFB120:
 137              		.loc 1 186 0
 138              		.cfi_startproc
 139              		@ args = 0, pretend = 0, frame = 0
 140              		@ frame_needed = 0, uses_anonymous_args = 0
 141              		@ link register save eliminated.
 142              	.LVL15:
 143              		.loc 1 187 0
 144 0000 0849     		ldr	r1, .L27
 145 0002 4A68     		ldr	r2, [r1, #4]
 146              	.LVL16:
 147              		.loc 1 188 0
 148 0004 8018     		adds	r0, r0, r2
 149              	.LVL17:
 150              	.L25:
 151              	.LBB4:
 152              	.LBB5:
 153              		.loc 1 170 0 discriminator 1
 154 0006 8242     		cmp	r2, r0
 155              		.loc 1 168 0 discriminator 1
 156 0008 4B68     		ldr	r3, [r1, #4]
 157              	.LVL18:
 158              		.loc 1 170 0 discriminator 1
 159 000a 02D2     		bcs	.L16
 160              		.loc 1 170 0 is_stmt 0
 161 000c 9A42     		cmp	r2, r3
 162 000e 02D9     		bls	.L26
 163 0010 7047     		bx	lr
 164              	.L16:
 165              		.loc 1 171 0 is_stmt 1
 166 0012 9A42     		cmp	r2, r3
 167 0014 F7D9     		bls	.L25
 168              	.L26:
 169 0016 9842     		cmp	r0, r3
 170 0018 94BF     		ite	ls
ARM GAS  /tmp/cccTei8u.s 			page 4


 171 001a 0023     		movls	r3, #0
 172              	.LVL19:
 173 001c 0123     		movhi	r3, #1
 174              	.LBE5:
 175              	.LBE4:
 176              		.loc 1 189 0
 177 001e 002B     		cmp	r3, #0
 178 0020 F1D1     		bne	.L25
 179 0022 7047     		bx	lr
 180              	.L28:
 181              		.align	2
 182              	.L27:
 183 0024 001000E0 		.word	-536866816
 184              		.cfi_endproc
 185              	.LFE120:
 186              		.size	halPolledDelay, .-halPolledDelay
 187 0028 AFF30080 		.text
 187      AFF30080 
 188              	.Letext0:
 189              		.file 2 "/home/dpeter/CodeSourcery/Sourcery_CodeBench_Lite_for_ARM_EABI/bin/../lib/gcc/arm-none-ea
 190              		.file 3 "/home/dpeter/devel/sources/ChibiOS-RT/os/ports/GCC/ARMCMx/chtypes.h"
 191              		.file 4 "/home/dpeter/devel/sources/ChibiOS-RT/os/ports/common/ARMCMx/nvic.h"
 192              		.file 5 "/home/dpeter/devel/sources/ChibiOS-RT/os/hal/platforms/STM32F4xx/hal_lld.h"
 193              		.file 6 "/home/dpeter/devel/sources/ChibiOS-RT/os/hal/platforms/STM32/GPIOv2/pal_lld.h"
 194              		.file 7 "/home/dpeter/devel/sources/ChibiOS-RT/os/ports/common/ARMCMx/CMSIS/include/core_cm4.h"
 195              		.file 8 "/home/dpeter/devel/sources/ChibiOS-RT/os/hal/include/pwm.h"
 196              		.file 9 "/home/dpeter/devel/sources/ChibiOS-RT/os/hal/include/serial.h"
 197              		.file 10 "/home/dpeter/devel/sources/ChibiOS-RT/os/hal/include/spi.h"
 198              		.file 11 "/home/dpeter/devel/sources/ChibiOS-RT/os/hal/include/usb.h"
 199              		.file 12 "/home/dpeter/devel/sources/ChibiOS-RT/os/hal/include/serial_usb.h"
 200              		.file 13 "/home/dpeter/devel/sources/ChibiOS-RT/boards/ST_STM32F4_DISCOVERY/board.h"