ARM GAS  /tmp/ccZ2UjWI.s 			page 1


   1              		.syntax unified
   2              		.cpu cortex-m4
   3              		.fpu softvfp
   4              		.eabi_attribute 20, 1
   5              		.eabi_attribute 21, 1
   6              		.eabi_attribute 23, 3
   7              		.eabi_attribute 24, 1
   8              		.eabi_attribute 25, 1
   9              		.eabi_attribute 26, 1
  10              		.eabi_attribute 30, 2
  11              		.eabi_attribute 34, 1
  12              		.eabi_attribute 18, 4
  13              		.thumb
  14              		.file	"hal_lld.c"
  15              		.text
  16              	.Ltext0:
  17              		.cfi_sections	.debug_frame
  18              		.section	.text.hal_lld_init,"ax",%progbits
  19              		.align	2
  20              		.p2align 4,,15
  21              		.global	hal_lld_init
  22              		.thumb
  23              		.thumb_func
  24              		.type	hal_lld_init, %function
  25              	hal_lld_init:
  26              	.LFB119:
  27              		.file 1 "/home/dpeter/devel/sources/ChibiOS-RT/os/hal/platforms/STM32F4xx/hal_lld.c"
  28              		.loc 1 105 0
  29              		.cfi_startproc
  30              		@ args = 0, pretend = 0, frame = 0
  31              		@ frame_needed = 0, uses_anonymous_args = 0
  32              		@ link register save eliminated.
  33              		.loc 1 109 0
  34 0000 1E4B     		ldr	r3, .L7
  35              		.loc 1 115 0
  36 0002 1F49     		ldr	r1, .L7+4
  37              		.loc 1 109 0
  38 0004 1A69     		ldr	r2, [r3, #16]
  39 0006 4FF0FF30 		mov	r0, #-1
  40 000a 0022     		movs	r2, #0
  41              		.loc 1 105 0
  42 000c F0B4     		push	{r4, r5, r6, r7}
  43              	.LCFI0:
  44              		.cfi_def_cfa_offset 16
  45              		.cfi_offset 4, -16
  46              		.cfi_offset 5, -12
  47              		.cfi_offset 6, -8
  48              		.cfi_offset 7, -4
  49              		.loc 1 109 0
  50 000e 1861     		str	r0, [r3, #16]
  51 0010 1A61     		str	r2, [r3, #16]
  52              		.loc 1 110 0
  53 0012 5F69     		ldr	r7, [r3, #20]
  54 0014 5861     		str	r0, [r3, #20]
  55 0016 5A61     		str	r2, [r3, #20]
  56              		.loc 1 111 0
  57 0018 1F6A     		ldr	r7, [r3, #32]
ARM GAS  /tmp/ccZ2UjWI.s 			page 2


  58              		.loc 1 122 0
  59 001a 1A4E     		ldr	r6, .L7+8
  60              		.loc 1 123 0
  61 001c 1A4D     		ldr	r5, .L7+12
  62              	.LBB4:
  63              	.LBB5:
  64              		.loc 1 54 0
  65 001e 1B4C     		ldr	r4, .L7+16
  66              	.LBE5:
  67              	.LBE4:
  68              		.loc 1 111 0
  69 0020 67F08057 		orn	r7, r7, #268435456
  70 0024 1F62     		str	r7, [r3, #32]
  71 0026 1A62     		str	r2, [r3, #32]
  72              		.loc 1 112 0
  73 0028 5F6A     		ldr	r7, [r3, #36]
  74 002a 5862     		str	r0, [r3, #36]
  75              		.loc 1 115 0
  76 002c 1848     		ldr	r0, .L7+20
  77              		.loc 1 112 0
  78 002e 5A62     		str	r2, [r3, #36]
  79              		.loc 1 115 0
  80 0030 4860     		str	r0, [r1, #4]
  81              		.loc 1 117 0
  82 0032 0720     		movs	r0, #7
  83              		.loc 1 116 0
  84 0034 8A60     		str	r2, [r1, #8]
  85              		.loc 1 117 0
  86 0036 0860     		str	r0, [r1, #0]
  87              		.loc 1 122 0
  88 0038 F168     		ldr	r1, [r6, #12]
  89 003a 41F08071 		orr	r1, r1, #16777216
  90 003e F160     		str	r1, [r6, #12]
  91              		.loc 1 123 0
  92 0040 2968     		ldr	r1, [r5, #0]
  93 0042 41F00101 		orr	r1, r1, #1
  94 0046 2960     		str	r1, [r5, #0]
  95              		.loc 1 126 0
  96 0048 196C     		ldr	r1, [r3, #64]
  97 004a 41F08051 		orr	r1, r1, #268435456
  98 004e 1964     		str	r1, [r3, #64]
  99              	.LBB7:
 100              	.LBB6:
 101              		.loc 1 54 0
 102 0050 2168     		ldr	r1, [r4, #0]
 103 0052 41F48071 		orr	r1, r1, #256
 104 0056 2160     		str	r1, [r4, #0]
 105              		.loc 1 57 0
 106 0058 196F     		ldr	r1, [r3, #112]
 107 005a 01F44071 		and	r1, r1, #768
 108 005e B1F5007F 		cmp	r1, #512
 109 0062 03D0     		beq	.L2
 110              		.loc 1 59 0
 111 0064 4FF48031 		mov	r1, #65536
 112 0068 1967     		str	r1, [r3, #112]
 113              		.loc 1 60 0
 114 006a 1A67     		str	r2, [r3, #112]
ARM GAS  /tmp/ccZ2UjWI.s 			page 3


 115              	.L2:
 116              		.loc 1 88 0
 117 006c 074B     		ldr	r3, .L7+16
 118 006e 5A68     		ldr	r2, [r3, #4]
 119 0070 22F40072 		bic	r2, r2, #512
 120 0074 5A60     		str	r2, [r3, #4]
 121              	.LBE6:
 122              	.LBE7:
 123              		.loc 1 139 0
 124 0076 F0BC     		pop	{r4, r5, r6, r7}
 125              		.loc 1 132 0
 126 0078 FFF7FEBF 		b	dmaInit
 127              	.LVL0:
 128              	.L8:
 129              		.align	2
 130              	.L7:
 131 007c 00380240 		.word	1073887232
 132 0080 10E000E0 		.word	-536813552
 133 0084 F0ED00E0 		.word	-536810000
 134 0088 001000E0 		.word	-536866816
 135 008c 00700040 		.word	1073770496
 136 0090 3F900200 		.word	167999
 137              		.cfi_endproc
 138              	.LFE119:
 139              		.size	hal_lld_init, .-hal_lld_init
 140 0094 AFF30080 		.section	.text.stm32_clock_init,"ax",%progbits
 140      AFF30080 
 140      AFF30080 
 141              		.align	2
 142              		.p2align 4,,15
 143              		.global	stm32_clock_init
 144              		.thumb
 145              		.thumb_func
 146              		.type	stm32_clock_init, %function
 147              	stm32_clock_init:
 148              	.LFB120:
 149              		.loc 1 148 0
 150              		.cfi_startproc
 151              		@ args = 0, pretend = 0, frame = 0
 152              		@ frame_needed = 0, uses_anonymous_args = 0
 153              		@ link register save eliminated.
 154              		.loc 1 152 0
 155 0000 2549     		ldr	r1, .L38
 156 0002 4FF08053 		mov	r3, #268435456
 157 0006 0B64     		str	r3, [r1, #64]
 158              		.loc 1 156 0
 159 0008 244B     		ldr	r3, .L38+4
 160 000a 4FF44042 		mov	r2, #49152
 161 000e 1A60     		str	r2, [r3, #0]
 162              		.loc 1 163 0
 163 0010 0B68     		ldr	r3, [r1, #0]
 164 0012 43F00103 		orr	r3, r3, #1
 165 0016 0B60     		str	r3, [r1, #0]
 166              	.L10:
 167              		.loc 1 164 0 discriminator 1
 168 0018 0B68     		ldr	r3, [r1, #0]
 169 001a 1F4A     		ldr	r2, .L38
ARM GAS  /tmp/ccZ2UjWI.s 			page 4


 170 001c 9807     		lsls	r0, r3, #30
 171 001e FBD5     		bpl	.L10
 172              		.loc 1 174 0
 173 0020 1368     		ldr	r3, [r2, #0]
 174 0022 43F48033 		orr	r3, r3, #65536
 175 0026 1360     		str	r3, [r2, #0]
 176              		.loc 1 176 0
 177 0028 1146     		mov	r1, r2
 178              	.L11:
 179              		.loc 1 176 0 is_stmt 0 discriminator 1
 180 002a 0B68     		ldr	r3, [r1, #0]
 181 002c 1A4A     		ldr	r2, .L38
 182 002e 9B03     		lsls	r3, r3, #14
 183 0030 FBD5     		bpl	.L11
 184              		.loc 1 182 0 is_stmt 1
 185 0032 536F     		ldr	r3, [r2, #116]
 186 0034 43F00103 		orr	r3, r3, #1
 187 0038 5367     		str	r3, [r2, #116]
 188              		.loc 1 183 0
 189 003a 1146     		mov	r1, r2
 190              	.L12:
 191              		.loc 1 183 0 is_stmt 0 discriminator 1
 192 003c 4B6F     		ldr	r3, [r1, #116]
 193 003e 164A     		ldr	r2, .L38
 194 0040 9807     		lsls	r0, r3, #30
 195 0042 FBD5     		bpl	.L12
 196              		.loc 1 189 0 is_stmt 1
 197 0044 164B     		ldr	r3, .L38+8
 198              		.loc 1 195 0
 199 0046 1549     		ldr	r1, .L38+4
 200              		.loc 1 189 0
 201 0048 5360     		str	r3, [r2, #4]
 202              		.loc 1 191 0
 203 004a 1368     		ldr	r3, [r2, #0]
 204 004c 43F08073 		orr	r3, r3, #16777216
 205 0050 1360     		str	r3, [r2, #0]
 206              	.L13:
 207              		.loc 1 195 0 discriminator 1
 208 0052 4B68     		ldr	r3, [r1, #4]
 209 0054 5A04     		lsls	r2, r3, #17
 210 0056 FCD5     		bpl	.L13
 211              		.loc 1 211 0
 212 0058 0F49     		ldr	r1, .L38
 213              	.L26:
 214 005a 0B68     		ldr	r3, [r1, #0]
 215 005c 0E4A     		ldr	r2, .L38
 216 005e 9B01     		lsls	r3, r3, #6
 217 0060 FBD5     		bpl	.L26
 218              		.loc 1 226 0
 219 0062 9168     		ldr	r1, [r2, #8]
 220 0064 0F4B     		ldr	r3, .L38+12
 221 0066 0B43     		orrs	r3, r3, r1
 222 0068 9360     		str	r3, [r2, #8]
 223              		.loc 1 239 0
 224 006a 0F4B     		ldr	r3, .L38+16
 225 006c 40F20571 		movw	r1, #1797
 226 0070 1960     		str	r1, [r3, #0]
ARM GAS  /tmp/ccZ2UjWI.s 			page 5


 227              		.loc 1 245 0
 228 0072 9368     		ldr	r3, [r2, #8]
 229 0074 43F00203 		orr	r3, r3, #2
 230 0078 9360     		str	r3, [r2, #8]
 231              	.L15:
 232              		.loc 1 246 0 discriminator 1
 233 007a 9368     		ldr	r3, [r2, #8]
 234 007c 0649     		ldr	r1, .L38
 235 007e 03F00C03 		and	r3, r3, #12
 236 0082 082B     		cmp	r3, #8
 237 0084 F9D1     		bne	.L15
 238              		.loc 1 253 0
 239 0086 4B6C     		ldr	r3, [r1, #68]
 240 0088 43F48043 		orr	r3, r3, #16384
 241 008c 4B64     		str	r3, [r1, #68]
 242 008e 4B6E     		ldr	r3, [r1, #100]
 243 0090 43F48043 		orr	r3, r3, #16384
 244 0094 4B66     		str	r3, [r1, #100]
 245 0096 7047     		bx	lr
 246              	.L39:
 247              		.align	2
 248              	.L38:
 249 0098 00380240 		.word	1073887232
 250 009c 00700040 		.word	1073770496
 251 00a0 08544007 		.word	121656328
 252 00a4 00940838 		.word	940086272
 253 00a8 003C0240 		.word	1073888256
 254              		.cfi_endproc
 255              	.LFE120:
 256              		.size	stm32_clock_init, .-stm32_clock_init
 257 00ac AFF30080 		.text
 258              	.Letext0:
 259              		.file 2 "/home/dpeter/CodeSourcery/Sourcery_CodeBench_Lite_for_ARM_EABI/bin/../lib/gcc/arm-none-ea
 260              		.file 3 "/home/dpeter/devel/sources/ChibiOS-RT/os/ports/common/ARMCMx/nvic.h"
 261              		.file 4 "/home/dpeter/devel/sources/ChibiOS-RT/os/ports/common/ARMCMx/CMSIS/include/core_cm4.h"
 262              		.file 5 "/home/dpeter/devel/sources/ChibiOS-RT/os/hal/platforms/STM32F4xx/stm32f4xx.h"
 263              		.file 6 "/home/dpeter/devel/sources/ChibiOS-RT/os/hal/platforms/STM32F4xx/stm32_dma.h"