ARM GAS  /tmp/cckr1VF3.s 			page 1


   1              		.syntax unified
   2              		.cpu cortex-m4
   3              		.fpu softvfp
   4              		.eabi_attribute 20, 1
   5              		.eabi_attribute 21, 1
   6              		.eabi_attribute 23, 3
   7              		.eabi_attribute 24, 1
   8              		.eabi_attribute 25, 1
   9              		.eabi_attribute 26, 1
  10              		.eabi_attribute 30, 2
  11              		.eabi_attribute 34, 1
  12              		.eabi_attribute 18, 4
  13              		.thumb
  14              		.file	"main.c"
  15              		.text
  16              	.Ltext0:
  17              		.cfi_sections	.debug_frame
  18              		.section	.text.BtRead,"ax",%progbits
  19              		.align	2
  20              		.p2align 4,,15
  21              		.thumb
  22              		.thumb_func
  23              		.type	BtRead, %function
  24              	BtRead:
  25              	.LFB122:
  26              		.file 1 "main.c"
  27              		.loc 1 121 0
  28              		.cfi_startproc
  29              		@ args = 0, pretend = 0, frame = 0
  30              		@ frame_needed = 0, uses_anonymous_args = 0
  31              	.LVL0:
  32 0000 08B5     		push	{r3, lr}
  33              	.LCFI0:
  34              		.cfi_def_cfa_offset 8
  35              		.cfi_offset 3, -8
  36              		.cfi_offset 14, -4
  37              		.loc 1 122 0
  38 0002 044B     		ldr	r3, .L4
  39 0004 044A     		ldr	r2, .L4+4
  40 0006 9B69     		ldr	r3, [r3, #24]
  41 0008 9A61     		str	r2, [r3, #24]
  42              	.LVL1:
  43              	.L2:
  44              		.loc 1 129 0 discriminator 1
  45 000a 4FF4FA70 		mov	r0, #500
  46 000e FFF7FEFF 		bl	chThdSleep
  47              	.LVL2:
  48 0012 FAE7     		b	.L2
  49              	.L5:
  50              		.align	2
  51              	.L4:
  52 0014 00000000 		.word	rlist
  53 0018 00000000 		.word	.LC0
  54              		.cfi_endproc
  55              	.LFE122:
  56              		.size	BtRead, .-BtRead
  57 001c AFF30080 		.section	.text.cmd_btread,"ax",%progbits
ARM GAS  /tmp/cckr1VF3.s 			page 2


  58              		.align	2
  59              		.p2align 4,,15
  60              		.thumb
  61              		.thumb_func
  62              		.type	cmd_btread, %function
  63              	cmd_btread:
  64              	.LFB121:
  65              		.loc 1 93 0
  66              		.cfi_startproc
  67              		@ args = 0, pretend = 0, frame = 0
  68              		@ frame_needed = 0, uses_anonymous_args = 0
  69              	.LVL3:
  70 0000 10B5     		push	{r4, lr}
  71              	.LCFI1:
  72              		.cfi_def_cfa_offset 8
  73              		.cfi_offset 4, -8
  74              		.cfi_offset 14, -4
  75              		.loc 1 95 0
  76 0002 0B46     		mov	r3, r1
  77              		.loc 1 93 0
  78 0004 0446     		mov	r4, r0
  79              		.loc 1 95 0
  80 0006 59B9     		cbnz	r1, .L8
  81              	.LVL4:
  82              	.LBB4:
  83              	.LBB5:
  84              		.loc 1 99 0
  85 0008 2022     		movs	r2, #32
  86              	.LVL5:
  87 000a 0849     		ldr	r1, .L9
  88              	.LVL6:
  89 000c 0848     		ldr	r0, .L9+4
  90              	.LVL7:
  91 000e FFF7FEFF 		bl	chIQReadTimeout
  92              	.LVL8:
  93              		.loc 1 100 0
  94 0012 0849     		ldr	r1, .L9+8
  95 0014 054A     		ldr	r2, .L9
  96 0016 2046     		mov	r0, r4
  97              	.LBE5:
  98              	.LBE4:
  99              		.loc 1 103 0
 100 0018 BDE81040 		pop	{r4, lr}
 101              	.LBB7:
 102              	.LBB6:
 103              		.loc 1 100 0
 104 001c FFF7FEBF 		b	chprintf
 105              	.LVL9:
 106              	.L8:
 107              	.LBE6:
 108              	.LBE7:
 109              		.loc 1 96 0
 110 0020 0549     		ldr	r1, .L9+12
 111              	.LVL10:
 112              		.loc 1 103 0
 113 0022 BDE81040 		pop	{r4, lr}
 114              		.loc 1 96 0
ARM GAS  /tmp/cckr1VF3.s 			page 3


 115 0026 FFF7FEBF 		b	chprintf
 116              	.LVL11:
 117              	.L10:
 118 002a 00BF     		.align	2
 119              	.L9:
 120 002c 00000000 		.word	.LANCHOR0
 121 0030 0C000000 		.word	SD2+12
 122 0034 18000000 		.word	.LC2
 123 0038 08000000 		.word	.LC1
 124              		.cfi_endproc
 125              	.LFE121:
 126              		.size	cmd_btread, .-cmd_btread
 127              		.section	.text.cmd_btsend,"ax",%progbits
 128              		.align	2
 129              		.p2align 4,,15
 130              		.thumb
 131              		.thumb_func
 132              		.type	cmd_btsend, %function
 133              	cmd_btsend:
 134              	.LFB120:
 135              		.loc 1 80 0
 136              		.cfi_startproc
 137              		@ args = 0, pretend = 0, frame = 0
 138              		@ frame_needed = 0, uses_anonymous_args = 0
 139              	.LVL12:
 140              		.loc 1 82 0
 141 0000 0129     		cmp	r1, #1
 142              		.loc 1 80 0
 143 0002 10B5     		push	{r4, lr}
 144              	.LCFI2:
 145              		.cfi_def_cfa_offset 8
 146              		.cfi_offset 4, -8
 147              		.cfi_offset 14, -4
 148              		.loc 1 82 0
 149 0004 04D0     		beq	.L12
 150              		.loc 1 83 0
 151 0006 0849     		ldr	r1, .L13
 152              	.LVL13:
 153              		.loc 1 89 0
 154 0008 BDE81040 		pop	{r4, lr}
 155              		.loc 1 83 0
 156 000c FFF7FEBF 		b	chprintf
 157              	.LVL14:
 158              	.L12:
 159              	.LBB10:
 160              	.LBB11:
 161              		.loc 1 86 0
 162 0010 5468     		ldr	r4, [r2, #4]
 163 0012 2046     		mov	r0, r4
 164              	.LVL15:
 165 0014 FFF7FEFF 		bl	strlen
 166              	.LVL16:
 167 0018 0246     		mov	r2, r0
 168 001a 0448     		ldr	r0, .L13+4
 169 001c 2146     		mov	r1, r4
 170 001e 0023     		movs	r3, #0
 171              	.LBE11:
ARM GAS  /tmp/cckr1VF3.s 			page 4


 172              	.LBE10:
 173              		.loc 1 89 0
 174 0020 BDE81040 		pop	{r4, lr}
 175              	.LBB13:
 176              	.LBB12:
 177              		.loc 1 86 0
 178 0024 FFF7FEBF 		b	chOQWriteTimeout
 179              	.LVL17:
 180              	.L14:
 181              		.align	2
 182              	.L13:
 183 0028 28000000 		.word	.LC3
 184 002c 30000000 		.word	SD2+48
 185              	.LBE12:
 186              	.LBE13:
 187              		.cfi_endproc
 188              	.LFE120:
 189              		.size	cmd_btsend, .-cmd_btsend
 190              		.section	.text.cmd_threads,"ax",%progbits
 191              		.align	2
 192              		.p2align 4,,15
 193              		.thumb
 194              		.thumb_func
 195              		.type	cmd_threads, %function
 196              	cmd_threads:
 197              	.LFB119:
 198              		.loc 1 60 0
 199              		.cfi_startproc
 200              		@ args = 0, pretend = 0, frame = 0
 201              		@ frame_needed = 0, uses_anonymous_args = 0
 202              	.LVL18:
 203 0000 F0B5     		push	{r4, r5, r6, r7, lr}
 204              	.LCFI3:
 205              		.cfi_def_cfa_offset 20
 206              		.cfi_offset 4, -20
 207              		.cfi_offset 5, -16
 208              		.cfi_offset 6, -12
 209              		.cfi_offset 7, -8
 210              		.cfi_offset 14, -4
 211              		.loc 1 65 0
 212 0002 0029     		cmp	r1, #0
 213              		.loc 1 60 0
 214 0004 85B0     		sub	sp, sp, #20
 215              	.LCFI4:
 216              		.cfi_def_cfa_offset 40
 217              		.loc 1 60 0
 218 0006 0646     		mov	r6, r0
 219              		.loc 1 65 0
 220 0008 05DD     		ble	.L16
 221              		.loc 1 66 0
 222 000a 1349     		ldr	r1, .L19
 223              	.LVL19:
 224              		.loc 1 78 0
 225 000c 05B0     		add	sp, sp, #20
 226 000e BDE8F040 		pop	{r4, r5, r6, r7, lr}
 227              		.loc 1 66 0
 228 0012 FFF7FEBF 		b	chprintf
ARM GAS  /tmp/cckr1VF3.s 			page 5


 229              	.LVL20:
 230              	.L16:
 231              	.LBB16:
 232              	.LBB17:
 233              		.loc 1 69 0
 234 0016 1149     		ldr	r1, .L19+4
 235              	.LVL21:
 236 0018 114F     		ldr	r7, .L19+8
 237 001a FFF7FEFF 		bl	chprintf
 238              	.LVL22:
 239              		.loc 1 70 0
 240 001e FFF7FEFF 		bl	chRegFirstThread
 241              	.LVL23:
 242 0022 0446     		mov	r4, r0
 243              	.LVL24:
 244              	.L17:
 245              		.loc 1 72 0
 246 0024 A268     		ldr	r2, [r4, #8]
 247 0026 E368     		ldr	r3, [r4, #12]
 248 0028 256A     		ldr	r5, [r4, #32]
 249 002a 0092     		str	r2, [sp, #0]
 250              		.loc 1 74 0
 251 002c A27F     		ldrb	r2, [r4, #30]	@ zero_extendqisi2
 252              		.loc 1 72 0
 253 002e 0D49     		ldr	r1, .L19+12
 254              		.loc 1 74 0
 255 0030 013A     		subs	r2, r2, #1
 256              		.loc 1 72 0
 257 0032 0192     		str	r2, [sp, #4]
 258 0034 227F     		ldrb	r2, [r4, #28]	@ zero_extendqisi2
 259 0036 0395     		str	r5, [sp, #12]
 260 0038 57F82250 		ldr	r5, [r7, r2, lsl #2]
 261 003c 3046     		mov	r0, r6
 262              	.LVL25:
 263 003e 2246     		mov	r2, r4
 264 0040 0295     		str	r5, [sp, #8]
 265 0042 FFF7FEFF 		bl	chprintf
 266              	.LVL26:
 267              		.loc 1 76 0
 268 0046 2046     		mov	r0, r4
 269 0048 FFF7FEFF 		bl	chRegNextThread
 270              	.LVL27:
 271              		.loc 1 77 0
 272 004c 0446     		mov	r4, r0
 273 004e 0028     		cmp	r0, #0
 274 0050 E8D1     		bne	.L17
 275              	.LBE17:
 276              	.LBE16:
 277              		.loc 1 78 0
 278 0052 05B0     		add	sp, sp, #20
 279 0054 F0BD     		pop	{r4, r5, r6, r7, pc}
 280              	.L20:
 281 0056 00BF     		.align	2
 282              	.L19:
 283 0058 40000000 		.word	.LC4
 284 005c 54000000 		.word	.LC5
 285 0060 00000000 		.word	.LANCHOR1
ARM GAS  /tmp/cckr1VF3.s 			page 6


 286 0064 84000000 		.word	.LC6
 287              		.cfi_endproc
 288              	.LFE119:
 289              		.size	cmd_threads, .-cmd_threads
 290 0068 AFF30080 		.section	.text.cmd_mem,"ax",%progbits
 290      AFF30080 
 291              		.align	2
 292              		.p2align 4,,15
 293              		.thumb
 294              		.thumb_func
 295              		.type	cmd_mem, %function
 296              	cmd_mem:
 297              	.LFB118:
 298              		.loc 1 46 0
 299              		.cfi_startproc
 300              		@ args = 0, pretend = 0, frame = 8
 301              		@ frame_needed = 0, uses_anonymous_args = 0
 302              	.LVL28:
 303 0000 30B5     		push	{r4, r5, lr}
 304              	.LCFI5:
 305              		.cfi_def_cfa_offset 12
 306              		.cfi_offset 4, -12
 307              		.cfi_offset 5, -8
 308              		.cfi_offset 14, -4
 309              		.loc 1 50 0
 310 0002 0029     		cmp	r1, #0
 311              		.loc 1 46 0
 312 0004 83B0     		sub	sp, sp, #12
 313              	.LCFI6:
 314              		.cfi_def_cfa_offset 24
 315              		.loc 1 46 0
 316 0006 0446     		mov	r4, r0
 317              		.loc 1 50 0
 318 0008 04DD     		ble	.L22
 319              		.loc 1 51 0
 320 000a 0E49     		ldr	r1, .L24
 321              	.LVL29:
 322 000c FFF7FEFF 		bl	chprintf
 323              	.LVL30:
 324              	.L21:
 325              		.loc 1 58 0
 326 0010 03B0     		add	sp, sp, #12
 327 0012 30BD     		pop	{r4, r5, pc}
 328              	.LVL31:
 329              	.L22:
 330              	.LBB20:
 331              	.LBB21:
 332              		.loc 1 54 0
 333 0014 01A9     		add	r1, sp, #4
 334              	.LVL32:
 335 0016 0020     		movs	r0, #0
 336              	.LVL33:
 337 0018 FFF7FEFF 		bl	chHeapStatus
 338              	.LVL34:
 339 001c 0546     		mov	r5, r0
 340              	.LVL35:
 341              		.loc 1 55 0
ARM GAS  /tmp/cckr1VF3.s 			page 7


 342 001e FFF7FEFF 		bl	chCoreStatus
 343              	.LVL36:
 344 0022 0949     		ldr	r1, .L24+4
 345 0024 0246     		mov	r2, r0
 346 0026 2046     		mov	r0, r4
 347 0028 FFF7FEFF 		bl	chprintf
 348              	.LVL37:
 349              		.loc 1 56 0
 350 002c 2046     		mov	r0, r4
 351 002e 2A46     		mov	r2, r5
 352 0030 0649     		ldr	r1, .L24+8
 353 0032 FFF7FEFF 		bl	chprintf
 354              	.LVL38:
 355              		.loc 1 57 0
 356 0036 2046     		mov	r0, r4
 357 0038 0549     		ldr	r1, .L24+12
 358              	.LVL39:
 359 003a 019A     		ldr	r2, [sp, #4]
 360 003c FFF7FEFF 		bl	chprintf
 361              	.LVL40:
 362 0040 E6E7     		b	.L21
 363              	.L25:
 364 0042 00BF     		.align	2
 365              	.L24:
 366 0044 A4000000 		.word	.LC7
 367 0048 B4000000 		.word	.LC8
 368 004c D4000000 		.word	.LC9
 369 0050 EC000000 		.word	.LC10
 370              	.LBE21:
 371              	.LBE20:
 372              		.cfi_endproc
 373              	.LFE118:
 374              		.size	cmd_mem, .-cmd_mem
 375 0054 AFF30080 		.section	.text.startup.main,"ax",%progbits
 375      AFF30080 
 375      AFF30080 
 376              		.align	2
 377              		.p2align 4,,15
 378              		.global	main
 379              		.thumb
 380              		.thumb_func
 381              		.type	main, %function
 382              	main:
 383              	.LFB123:
 384              		.loc 1 143 0
 385              		.cfi_startproc
 386              		@ args = 0, pretend = 0, frame = 0
 387              		@ frame_needed = 0, uses_anonymous_args = 0
 388              	.LVL41:
 389 0000 30B5     		push	{r4, r5, lr}
 390              	.LCFI7:
 391              		.cfi_def_cfa_offset 12
 392              		.cfi_offset 4, -12
 393              		.cfi_offset 5, -8
 394              		.cfi_offset 14, -4
 395 0002 2D4D     		ldr	r5, .L32
 396              		.loc 1 165 0
ARM GAS  /tmp/cckr1VF3.s 			page 8


 397 0004 2D4C     		ldr	r4, .L32+4
 398              		.loc 1 143 0
 399 0006 83B0     		sub	sp, sp, #12
 400              	.LCFI8:
 401              		.cfi_def_cfa_offset 24
 402              		.loc 1 153 0
 403 0008 FFF7FEFF 		bl	halInit
 404              	.LVL42:
 405              		.loc 1 154 0
 406 000c FFF7FEFF 		bl	chSysInit
 407              	.LVL43:
 408              		.loc 1 159 0
 409 0010 FFF7FEFF 		bl	shellInit
 410              	.LVL44:
 411              		.loc 1 164 0
 412 0014 2846     		mov	r0, r5
 413 0016 FFF7FEFF 		bl	sduObjectInit
 414              	.LVL45:
 415              		.loc 1 165 0
 416 001a 2146     		mov	r1, r4
 417 001c 2846     		mov	r0, r5
 418 001e FFF7FEFF 		bl	sduStart
 419              	.LVL46:
 420              		.loc 1 172 0
 421 0022 2368     		ldr	r3, [r4, #0]
 422 0024 1B6D     		ldr	r3, [r3, #80]
 423 0026 9A6B     		ldr	r2, [r3, #56]
 424 0028 22F40022 		bic	r2, r2, #524288
 425 002c 9A63     		str	r2, [r3, #56]
 426              		.loc 1 173 0
 427 002e 4FF47A70 		mov	r0, #1000
 428 0032 FFF7FEFF 		bl	chThdSleep
 429              	.LVL47:
 430              		.loc 1 174 0
 431 0036 2068     		ldr	r0, [r4, #0]
 432 0038 2149     		ldr	r1, .L32+8
 433 003a FFF7FEFF 		bl	usbStart
 434              	.LVL48:
 435              		.loc 1 175 0
 436 003e 2368     		ldr	r3, [r4, #0]
 437              		.loc 1 181 0
 438 0040 2048     		ldr	r0, .L32+12
 439              		.loc 1 175 0
 440 0042 1B6D     		ldr	r3, [r3, #80]
 441 0044 9A6B     		ldr	r2, [r3, #56]
 442 0046 42F40022 		orr	r2, r2, #524288
 443 004a 9A63     		str	r2, [r3, #56]
 444              		.loc 1 181 0
 445 004c 0021     		movs	r1, #0
 446 004e FFF7FEFF 		bl	sdStart
 447              	.LVL49:
 448              		.loc 1 182 0
 449 0052 1D48     		ldr	r0, .L32+16
 450 0054 0421     		movs	r1, #4
 451 0056 40F28232 		movw	r2, #898
 452 005a FFF7FEFF 		bl	_pal_lld_setgroupmode
 453              	.LVL50:
ARM GAS  /tmp/cckr1VF3.s 			page 9


 454              		.loc 1 186 0
 455 005e 0024     		movs	r4, #0
 456              		.loc 1 183 0
 457 0060 1948     		ldr	r0, .L32+16
 458 0062 0821     		movs	r1, #8
 459 0064 40F28232 		movw	r2, #898
 460 0068 FFF7FEFF 		bl	_pal_lld_setgroupmode
 461              	.LVL51:
 462              		.loc 1 186 0
 463 006c 0094     		str	r4, [sp, #0]
 464 006e 1748     		ldr	r0, .L32+20
 465 0070 174B     		ldr	r3, .L32+24
 466 0072 4FF49871 		mov	r1, #304
 467 0076 4A22     		movs	r2, #74
 468 0078 FFF7FEFF 		bl	chThdCreateStatic
 469              	.LVL52:
 470              		.loc 1 194 0
 471 007c 44B1     		cbz	r4, .L30
 472              	.L27:
 473              		.loc 1 202 0
 474 007e 237F     		ldrb	r3, [r4, #28]	@ zero_extendqisi2
 475 0080 0E2B     		cmp	r3, #14
 476 0082 13D0     		beq	.L31
 477              	.LVL53:
 478              	.L28:
 479              		.loc 1 208 0
 480 0084 4FF4FA70 		mov	r0, #500
 481 0088 FFF7FEFF 		bl	chThdSleep
 482              	.LVL54:
 483              		.loc 1 194 0
 484 008c 002C     		cmp	r4, #0
 485 008e F6D1     		bne	.L27
 486              	.L30:
 487              		.loc 1 195 0
 488 0090 D5F85432 		ldr	r3, [r5, #596]
 489 0094 1B68     		ldr	r3, [r3, #0]
 490 0096 1B78     		ldrb	r3, [r3, #0]	@ zero_extendqisi2
 491 0098 042B     		cmp	r3, #4
 492 009a F3D1     		bne	.L28
 493              		.loc 1 197 0
 494 009c 0D48     		ldr	r0, .L32+28
 495 009e 4FF40B61 		mov	r1, #2224
 496 00a2 4022     		movs	r2, #64
 497 00a4 FFF7FEFF 		bl	shellCreate
 498              	.LVL55:
 499 00a8 0446     		mov	r4, r0
 500              	.LVL56:
 501 00aa EBE7     		b	.L28
 502              	.LVL57:
 503              	.L31:
 504              		.loc 1 204 0
 505 00ac 2046     		mov	r0, r4
 506 00ae FFF7FEFF 		bl	chThdRelease
 507              	.LVL58:
 508              		.loc 1 205 0
 509 00b2 0024     		movs	r4, #0
 510 00b4 E6E7     		b	.L28
ARM GAS  /tmp/cckr1VF3.s 			page 10


 511              	.L33:
 512 00b6 00BF     		.align	2
 513              	.L32:
 514 00b8 00000000 		.word	.LANCHOR2
 515 00bc 00000000 		.word	serusbcfg
 516 00c0 00000000 		.word	usbcfg
 517 00c4 00000000 		.word	SD2
 518 00c8 00000240 		.word	1073872896
 519 00cc 00000000 		.word	.LANCHOR3
 520 00d0 00000000 		.word	BtRead
 521 00d4 00000000 		.word	.LANCHOR4
 522              		.cfi_endproc
 523              	.LFE123:
 524              		.size	main, .-main
 525              		.global	mySerialDriver
 526              		.global	SDU1
 527              		.global	serialBuffer
 528 00d8 AFF30080 		.section	.bss.SDU1,"aw",%nobits
 528      AFF30080 
 529              		.align	2
 530              		.set	.LANCHOR2,. + 0
 531              		.type	SDU1, %object
 532              		.size	SDU1, 600
 533              	SDU1:
 534 0000 00000000 		.space	600
 534      00000000 
 534      00000000 
 534      00000000 
 534      00000000 
 535              		.section	.rodata.states.7498,"a",%progbits
 536              		.align	2
 537              		.set	.LANCHOR1,. + 0
 538              		.type	states.7498, %object
 539              		.size	states.7498, 60
 540              	states.7498:
 541 0000 0C010000 		.word	.LC11
 542 0004 14010000 		.word	.LC12
 543 0008 1C010000 		.word	.LC13
 544 000c 28010000 		.word	.LC14
 545 0010 30010000 		.word	.LC15
 546 0014 38010000 		.word	.LC16
 547 0018 40010000 		.word	.LC17
 548 001c 4C010000 		.word	.LC18
 549 0020 54010000 		.word	.LC19
 550 0024 5C010000 		.word	.LC20
 551 0028 68010000 		.word	.LC21
 552 002c 70010000 		.word	.LC22
 553 0030 78010000 		.word	.LC23
 554 0034 80010000 		.word	.LC24
 555 0038 88010000 		.word	.LC25
 556              		.section	.data.mySerialDriver,"aw",%progbits
 557              		.align	2
 558              		.type	mySerialDriver, %object
 559              		.size	mySerialDriver, 120
 560              	mySerialDriver:
 561 0000 80250000 		.word	9600
 562 0004 00000000 		.space	116
ARM GAS  /tmp/cckr1VF3.s 			page 11


 562      00000000 
 562      00000000 
 562      00000000 
 562      00000000 
 563              		.section	.bss.serialBuffer,"aw",%nobits
 564              		.align	2
 565              		.set	.LANCHOR0,. + 0
 566              		.type	serialBuffer, %object
 567              		.size	serialBuffer, 32
 568              	serialBuffer:
 569 0000 00000000 		.space	32
 569      00000000 
 569      00000000 
 569      00000000 
 569      00000000 
 570              		.section	.rodata.commands,"a",%progbits
 571              		.align	2
 572              		.type	commands, %object
 573              		.size	commands, 40
 574              	commands:
 575 0000 90010000 		.word	.LC26
 576 0004 00000000 		.word	cmd_mem
 577 0008 94010000 		.word	.LC27
 578 000c 00000000 		.word	cmd_threads
 579 0010 9C010000 		.word	.LC28
 580 0014 00000000 		.word	cmd_btsend
 581 0018 A4010000 		.word	.LC29
 582 001c 00000000 		.word	cmd_btread
 583 0020 00000000 		.word	0
 584 0024 00000000 		.word	0
 585              		.section	.rodata.str1.4,"aMS",%progbits,1
 586              		.align	2
 587              	.LC0:
 588 0000 72656164 		.ascii	"reader\000"
 588      657200
 589 0007 00       		.space	1
 590              	.LC1:
 591 0008 55736167 		.ascii	"Usage: btread\015\012\000"
 591      653A2062 
 591      74726561 
 591      640D0A00 
 592              	.LC2:
 593 0018 46726F6D 		.ascii	"From bt: %s\015\012\000"
 593      2062743A 
 593      2025730D 
 593      0A00
 594 0026 0000     		.space	2
 595              	.LC3:
 596 0028 55736167 		.ascii	"Usage: btsend string\015\012\000"
 596      653A2062 
 596      7473656E 
 596      64207374 
 596      72696E67 
 597 003f 00       		.space	1
 598              	.LC4:
 599 0040 55736167 		.ascii	"Usage: threads\015\012\000"
 599      653A2074 
ARM GAS  /tmp/cckr1VF3.s 			page 12


 599      68726561 
 599      64730D0A 
 599      00
 600 0051 000000   		.space	3
 601              	.LC5:
 602 0054 20202020 		.ascii	"    addr    stack prio refs     state time\015\012\000"
 602      61646472 
 602      20202020 
 602      73746163 
 602      6B207072 
 603 0081 000000   		.space	3
 604              	.LC6:
 605 0084 252E386C 		.ascii	"%.8lx %.8lx %4lu %4lu %9s %lu\015\012\000"
 605      7820252E 
 605      386C7820 
 605      25346C75 
 605      2025346C 
 606              	.LC7:
 607 00a4 55736167 		.ascii	"Usage: mem\015\012\000"
 607      653A206D 
 607      656D0D0A 
 607      00
 608 00b1 000000   		.space	3
 609              	.LC8:
 610 00b4 636F7265 		.ascii	"core free memory : %u bytes\015\012\000"
 610      20667265 
 610      65206D65 
 610      6D6F7279 
 610      203A2025 
 611 00d2 0000     		.space	2
 612              	.LC9:
 613 00d4 68656170 		.ascii	"heap fragments   : %u\015\012\000"
 613      20667261 
 613      676D656E 
 613      74732020 
 613      203A2025 
 614              	.LC10:
 615 00ec 68656170 		.ascii	"heap free total  : %u bytes\015\012\000"
 615      20667265 
 615      6520746F 
 615      74616C20 
 615      203A2025 
 616 010a 0000     		.space	2
 617              	.LC11:
 618 010c 52454144 		.ascii	"READY\000"
 618      5900
 619 0112 0000     		.space	2
 620              	.LC12:
 621 0114 43555252 		.ascii	"CURRENT\000"
 621      454E5400 
 622              	.LC13:
 623 011c 53555350 		.ascii	"SUSPENDED\000"
 623      454E4445 
 623      4400
 624 0126 0000     		.space	2
 625              	.LC14:
 626 0128 57545345 		.ascii	"WTSEM\000"
ARM GAS  /tmp/cckr1VF3.s 			page 13


 626      4D00
 627 012e 0000     		.space	2
 628              	.LC15:
 629 0130 57544D54 		.ascii	"WTMTX\000"
 629      5800
 630 0136 0000     		.space	2
 631              	.LC16:
 632 0138 5754434F 		.ascii	"WTCOND\000"
 632      4E4400
 633 013f 00       		.space	1
 634              	.LC17:
 635 0140 534C4545 		.ascii	"SLEEPING\000"
 635      50494E47 
 635      00
 636 0149 000000   		.space	3
 637              	.LC18:
 638 014c 57544558 		.ascii	"WTEXIT\000"
 638      495400
 639 0153 00       		.space	1
 640              	.LC19:
 641 0154 57544F52 		.ascii	"WTOREVT\000"
 641      45565400 
 642              	.LC20:
 643 015c 5754414E 		.ascii	"WTANDEVT\000"
 643      44455654 
 643      00
 644 0165 000000   		.space	3
 645              	.LC21:
 646 0168 534E444D 		.ascii	"SNDMSGQ\000"
 646      53475100 
 647              	.LC22:
 648 0170 534E444D 		.ascii	"SNDMSG\000"
 648      534700
 649 0177 00       		.space	1
 650              	.LC23:
 651 0178 57544D53 		.ascii	"WTMSG\000"
 651      4700
 652 017e 0000     		.space	2
 653              	.LC24:
 654 0180 57545155 		.ascii	"WTQUEUE\000"
 654      45554500 
 655              	.LC25:
 656 0188 46494E41 		.ascii	"FINAL\000"
 656      4C00
 657 018e 0000     		.space	2
 658              	.LC26:
 659 0190 6D656D00 		.ascii	"mem\000"
 660              	.LC27:
 661 0194 74687265 		.ascii	"threads\000"
 661      61647300 
 662              	.LC28:
 663 019c 62747365 		.ascii	"btsend\000"
 663      6E6400
 664 01a3 00       		.space	1
 665              	.LC29:
 666 01a4 62747265 		.ascii	"btread\000"
 666      616400
ARM GAS  /tmp/cckr1VF3.s 			page 14


 667 01ab 00       		.section	.rodata.shell_cfg1,"a",%progbits
 668              		.align	2
 669              		.set	.LANCHOR4,. + 0
 670              		.type	shell_cfg1, %object
 671              		.size	shell_cfg1, 8
 672              	shell_cfg1:
 673 0000 00000000 		.word	SDU1
 674 0004 00000000 		.word	commands
 675              		.section	.bss.waBtRead,"aw",%nobits
 676              		.align	3
 677              		.set	.LANCHOR3,. + 0
 678              		.type	waBtRead, %object
 679              		.size	waBtRead, 304
 680              	waBtRead:
 681 0000 00000000 		.space	304
 681      00000000 
 681      00000000 
 681      00000000 
 681      00000000 
 682              		.text
 683              	.Letext0:
 684              		.file 2 "/home/dpeter/CodeSourcery/Sourcery_CodeBench_Lite_for_ARM_EABI/bin/../lib/gcc/arm-none-ea
 685              		.file 3 "/home/dpeter/CodeSourcery/Sourcery_CodeBench_Lite_for_ARM_EABI/bin/../lib/gcc/arm-none-ea
 686              		.file 4 "/home/dpeter/devel/sources/ChibiOS-RT/os/ports/GCC/ARMCMx/chtypes.h"
 687              		.file 5 "/home/dpeter/devel/sources/ChibiOS-RT/os/kernel/include/chlists.h"
 688              		.file 6 "/home/dpeter/devel/sources/ChibiOS-RT/os/kernel/include/chthreads.h"
 689              		.file 7 "/home/dpeter/devel/sources/ChibiOS-RT/os/ports/GCC/ARMCMx/chcore_v7m.h"
 690              		.file 8 "/home/dpeter/devel/sources/ChibiOS-RT/os/kernel/include/chschd.h"
 691              		.file 9 "/home/dpeter/devel/sources/ChibiOS-RT/os/kernel/include/chmtx.h"
 692              		.file 10 "/home/dpeter/devel/sources/ChibiOS-RT/os/kernel/include/chevents.h"
 693              		.file 11 "/home/dpeter/devel/sources/ChibiOS-RT/os/kernel/include/chmemcore.h"
 694              		.file 12 "/home/dpeter/devel/sources/ChibiOS-RT/os/kernel/include/chheap.h"
 695              		.file 13 "/home/dpeter/devel/sources/ChibiOS-RT/os/kernel/include/chqueues.h"
 696              		.file 14 "/home/dpeter/devel/sources/ChibiOS-RT/os/kernel/include/chstreams.h"
 697              		.file 15 "/home/dpeter/devel/sources/ChibiOS-RT/os/hal/platforms/STM32F4xx/stm32f4xx.h"
 698              		.file 16 "/home/dpeter/devel/sources/ChibiOS-RT/os/hal/platforms/STM32/GPIOv2/pal_lld.h"
 699              		.file 17 "/home/dpeter/devel/sources/ChibiOS-RT/os/hal/include/serial.h"
 700              		.file 18 "/home/dpeter/devel/sources/ChibiOS-RT/os/hal/platforms/STM32/USARTv1/serial_lld.h"
 701              		.file 19 "/home/dpeter/devel/sources/ChibiOS-RT/os/hal/include/usb.h"
 702              		.file 20 "/home/dpeter/devel/sources/ChibiOS-RT/os/hal/platforms/STM32/OTGv1/usb_lld.h"
 703              		.file 21 "/home/dpeter/devel/sources/ChibiOS-RT/os/hal/platforms/STM32/OTGv1/stm32_otg.h"
 704              		.file 22 "/home/dpeter/devel/sources/ChibiOS-RT/os/hal/include/serial_usb.h"
 705              		.file 23 "/home/dpeter/devel/sources/ChibiOS-RT/os/various/shell.h"
 706              		.file 24 "/home/dpeter/devel/sources/ChibiOS-RT/os/ports/common/ARMCMx/CMSIS/include/core_cm4.h"
 707              		.file 25 "usbcfg.h"
 708              		.file 26 "/home/dpeter/devel/sources/ChibiOS-RT/os/various/chprintf.h"
 709              		.file 27 "/home/dpeter/CodeSourcery/Sourcery_CodeBench_Lite_for_ARM_EABI/bin/../lib/gcc/arm-none-e
 710              		.file 28 "/home/dpeter/devel/sources/ChibiOS-RT/os/kernel/include/chregistry.h"
 711              		.file 29 "/home/dpeter/devel/sources/ChibiOS-RT/os/hal/include/hal.h"
 712              		.file 30 "/home/dpeter/devel/sources/ChibiOS-RT/os/kernel/include/chsys.h"
 713              		.file 31 "/home/dpeter/devel/sources/ChibiOS-RT/os/kernel/include/chdynamic.h"