ARM GAS  /tmp/ccAb3m9h.s 			page 1


   1              		.syntax unified
   2              		.cpu cortex-m4
   3              		.fpu softvfp
   4              		.eabi_attribute 20, 1
   5              		.eabi_attribute 21, 1
   6              		.eabi_attribute 23, 3
   7              		.eabi_attribute 24, 1
   8              		.eabi_attribute 25, 1
   9              		.eabi_attribute 26, 1
  10              		.eabi_attribute 30, 2
  11              		.eabi_attribute 34, 1
  12              		.eabi_attribute 18, 4
  13              		.thumb
  14              		.file	"pwm_lld.c"
  15              		.text
  16              	.Ltext0:
  17              		.cfi_sections	.debug_frame
  18              		.section	.text.VectorB8,"ax",%progbits
  19              		.align	2
  20              		.p2align 4,,15
  21              		.global	VectorB8
  22              		.thumb
  23              		.thumb_func
  24              		.type	VectorB8, %function
  25              	VectorB8:
  26              	.LFB119:
  27              		.file 1 "/home/dpeter/devel/sources/ChibiOS-RT/os/hal/platforms/STM32/TIMv1/pwm_lld.c"
  28              		.loc 1 235 0
  29              		.cfi_startproc
  30              		@ args = 0, pretend = 0, frame = 0
  31              		@ frame_needed = 0, uses_anonymous_args = 0
  32              	.LVL0:
  33 0000 38B5     		push	{r3, r4, r5, lr}
  34              	.LCFI0:
  35              		.cfi_def_cfa_offset 16
  36              		.cfi_offset 3, -16
  37              		.cfi_offset 4, -12
  38              		.cfi_offset 5, -8
  39              		.cfi_offset 14, -4
  40              	.LBB4:
  41              	.LBB5:
  42              		.loc 1 115 0
  43 0002 1C4D     		ldr	r5, .L27
  44 0004 2B69     		ldr	r3, [r5, #16]
  45 0006 1A69     		ldr	r2, [r3, #16]
  46              	.LVL1:
  47              		.loc 1 116 0
  48 0008 DC68     		ldr	r4, [r3, #12]
  49 000a 1440     		ands	r4, r4, r2
  50 000c A4B2     		uxth	r4, r4
  51              	.LVL2:
  52              		.loc 1 117 0
  53 000e E1B2     		uxtb	r1, r4
  54              		.loc 1 118 0
  55 0010 04F00202 		and	r2, r4, #2
  56              		.loc 1 117 0
  57 0014 C943     		mvns	r1, r1
ARM GAS  /tmp/ccAb3m9h.s 			page 2


  58              		.loc 1 118 0
  59 0016 92B2     		uxth	r2, r2
  60              		.loc 1 117 0
  61 0018 1961     		str	r1, [r3, #16]
  62              		.loc 1 118 0
  63 001a 002A     		cmp	r2, #0
  64 001c 24D1     		bne	.L23
  65              	.L2:
  66              		.loc 1 120 0
  67 001e 04F00403 		and	r3, r4, #4
  68 0022 9BB2     		uxth	r3, r3
  69 0024 DBB9     		cbnz	r3, .L24
  70              	.L3:
  71              		.loc 1 122 0
  72 0026 04F00803 		and	r3, r4, #8
  73 002a 9BB2     		uxth	r3, r3
  74 002c 93B9     		cbnz	r3, .L25
  75              	.L4:
  76              		.loc 1 124 0
  77 002e 04F01003 		and	r3, r4, #16
  78 0032 9BB2     		uxth	r3, r3
  79 0034 4BB9     		cbnz	r3, .L26
  80              	.L5:
  81              		.loc 1 126 0
  82 0036 E307     		lsls	r3, r4, #31
  83 0038 03D5     		bpl	.L6
  84              		.loc 1 127 0
  85 003a 6B68     		ldr	r3, [r5, #4]
  86 003c 0D48     		ldr	r0, .L27
  87 003e 9B68     		ldr	r3, [r3, #8]
  88 0040 9847     		blx	r3
  89              	.LVL3:
  90              	.L6:
  91              	.LBE5:
  92              	.LBE4:
  93              		.loc 1 242 0
  94 0042 BDE83840 		pop	{r3, r4, r5, lr}
  95              		.loc 1 241 0
  96 0046 FFF7FEBF 		b	_port_irq_epilogue
  97              	.LVL4:
  98              	.L26:
  99              	.LBB7:
 100              	.LBB6:
 101              		.loc 1 125 0
 102 004a 6B68     		ldr	r3, [r5, #4]
 103 004c 0948     		ldr	r0, .L27
 104 004e 9B6A     		ldr	r3, [r3, #40]
 105 0050 9847     		blx	r3
 106              	.LVL5:
 107 0052 F0E7     		b	.L5
 108              	.L25:
 109              		.loc 1 123 0
 110 0054 6B68     		ldr	r3, [r5, #4]
 111 0056 0748     		ldr	r0, .L27
 112 0058 1B6A     		ldr	r3, [r3, #32]
 113 005a 9847     		blx	r3
 114              	.LVL6:
ARM GAS  /tmp/ccAb3m9h.s 			page 3


 115 005c E7E7     		b	.L4
 116              	.L24:
 117              		.loc 1 121 0
 118 005e 6B68     		ldr	r3, [r5, #4]
 119 0060 0448     		ldr	r0, .L27
 120 0062 9B69     		ldr	r3, [r3, #24]
 121 0064 9847     		blx	r3
 122              	.LVL7:
 123 0066 DEE7     		b	.L3
 124              	.L23:
 125              		.loc 1 119 0
 126 0068 6B68     		ldr	r3, [r5, #4]
 127 006a 2846     		mov	r0, r5
 128 006c 1B69     		ldr	r3, [r3, #16]
 129 006e 9847     		blx	r3
 130              	.LVL8:
 131 0070 D5E7     		b	.L2
 132              	.L28:
 133 0072 00BF     		.align	2
 134              	.L27:
 135 0074 00000000 		.word	.LANCHOR0
 136              	.LBE6:
 137              	.LBE7:
 138              		.cfi_endproc
 139              	.LFE119:
 140              		.size	VectorB8, .-VectorB8
 141 0078 AFF30080 		.section	.text.pwm_lld_init,"ax",%progbits
 141      AFF30080 
 142              		.align	2
 143              		.p2align 4,,15
 144              		.global	pwm_lld_init
 145              		.thumb
 146              		.thumb_func
 147              		.type	pwm_lld_init, %function
 148              	pwm_lld_init:
 149              	.LFB120:
 150              		.loc 1 345 0
 151              		.cfi_startproc
 152              		@ args = 0, pretend = 0, frame = 0
 153              		@ frame_needed = 0, uses_anonymous_args = 0
 154 0000 10B5     		push	{r4, lr}
 155              	.LCFI1:
 156              		.cfi_def_cfa_offset 8
 157              		.cfi_offset 4, -8
 158              		.cfi_offset 14, -4
 159              		.loc 1 367 0
 160 0002 034C     		ldr	r4, .L30
 161 0004 2046     		mov	r0, r4
 162 0006 FFF7FEFF 		bl	pwmObjectInit
 163              	.LVL9:
 164              		.loc 1 368 0
 165 000a 024B     		ldr	r3, .L30+4
 166 000c 2361     		str	r3, [r4, #16]
 167 000e 10BD     		pop	{r4, pc}
 168              	.L31:
 169              		.align	2
 170              	.L30:
ARM GAS  /tmp/ccAb3m9h.s 			page 4


 171 0010 00000000 		.word	.LANCHOR0
 172 0014 00080040 		.word	1073743872
 173              		.cfi_endproc
 174              	.LFE120:
 175              		.size	pwm_lld_init, .-pwm_lld_init
 176 0018 AFF30080 		.section	.text.pwm_lld_start,"ax",%progbits
 176      AFF30080 
 177              		.align	2
 178              		.p2align 4,,15
 179              		.global	pwm_lld_start
 180              		.thumb
 181              		.thumb_func
 182              		.type	pwm_lld_start, %function
 183              	pwm_lld_start:
 184              	.LFB121:
 185              		.loc 1 399 0
 186              		.cfi_startproc
 187              		@ args = 0, pretend = 0, frame = 0
 188              		@ frame_needed = 0, uses_anonymous_args = 0
 189              	.LVL10:
 190              		.loc 1 403 0
 191 0000 0378     		ldrb	r3, [r0, #0]	@ zero_extendqisi2
 192 0002 012B     		cmp	r3, #1
 193              		.loc 1 399 0
 194 0004 70B5     		push	{r4, r5, r6, lr}
 195              	.LCFI2:
 196              		.cfi_def_cfa_offset 16
 197              		.cfi_offset 4, -16
 198              		.cfi_offset 5, -12
 199              		.cfi_offset 6, -8
 200              		.cfi_offset 14, -4
 201              		.loc 1 399 0
 202 0006 0446     		mov	r4, r0
 203              		.loc 1 403 0
 204 0008 65D0     		beq	.L59
 205              		.loc 1 484 0
 206 000a 4268     		ldr	r2, [r0, #4]
 207              		.loc 1 483 0
 208 000c 0369     		ldr	r3, [r0, #16]
 209              		.loc 1 484 0
 210 000e 106B     		ldr	r0, [r2, #48]
 211              	.LVL11:
 212              		.loc 1 483 0
 213 0010 0021     		movs	r1, #0
 214              		.loc 1 484 0
 215 0012 20F0FF00 		bic	r0, r0, #255
 216              		.loc 1 483 0
 217 0016 1960     		str	r1, [r3, #0]
 218              		.loc 1 484 0
 219 0018 D860     		str	r0, [r3, #12]
 220              		.loc 1 486 0
 221 001a 1961     		str	r1, [r3, #16]
 222              		.loc 1 487 0
 223 001c 5963     		str	r1, [r3, #52]
 224              		.loc 1 488 0
 225 001e 9963     		str	r1, [r3, #56]
 226              		.loc 1 489 0
ARM GAS  /tmp/ccAb3m9h.s 			page 5


 227 0020 D963     		str	r1, [r3, #60]
 228              		.loc 1 490 0
 229 0022 1964     		str	r1, [r3, #64]
 230              		.loc 1 491 0
 231 0024 5962     		str	r1, [r3, #36]
 232              	.L35:
 233              	.LVL12:
 234              		.loc 1 495 0
 235 0026 E668     		ldr	r6, [r4, #12]
 236 0028 1568     		ldr	r5, [r2, #0]
 237              		.loc 1 500 0
 238 002a 2489     		ldrh	r4, [r4, #8]
 239              	.LVL13:
 240              		.loc 1 505 0
 241 002c D168     		ldr	r1, [r2, #12]
 242              		.loc 1 501 0
 243 002e D06A     		ldr	r0, [r2, #44]
 244              		.loc 1 495 0
 245 0030 B6FBF5F5 		udiv	r5, r6, r5
 246 0034 013D     		subs	r5, r5, #1
 247              	.LVL14:
 248              		.loc 1 500 0
 249 0036 013C     		subs	r4, r4, #1
 250              		.loc 1 505 0
 251 0038 01F00F01 		and	r1, r1, #15
 252              		.loc 1 499 0
 253 003c ADB2     		uxth	r5, r5
 254              	.LVL15:
 255              		.loc 1 500 0
 256 003e A4B2     		uxth	r4, r4
 257              		.loc 1 505 0
 258 0040 0129     		cmp	r1, #1
 259              		.loc 1 499 0
 260 0042 9D62     		str	r5, [r3, #40]
 261              		.loc 1 500 0
 262 0044 DC62     		str	r4, [r3, #44]
 263              		.loc 1 501 0
 264 0046 5860     		str	r0, [r3, #4]
 265              	.LVL16:
 266              		.loc 1 505 0
 267 0048 03D0     		beq	.L36
 268              		.loc 1 504 0
 269 004a 0229     		cmp	r1, #2
 270 004c 0CBF     		ite	eq
 271 004e 0321     		moveq	r1, #3
 272 0050 0021     		movne	r1, #0
 273              	.L36:
 274              	.LVL17:
 275              		.loc 1 513 0
 276 0052 5069     		ldr	r0, [r2, #20]
 277 0054 00F00F00 		and	r0, r0, #15
 278 0058 0128     		cmp	r0, #1
 279 005a 21D0     		beq	.L40
 280 005c 0228     		cmp	r0, #2
 281 005e 1DD0     		beq	.L60
 282              		.loc 1 521 0
 283 0060 D069     		ldr	r0, [r2, #28]
ARM GAS  /tmp/ccAb3m9h.s 			page 6


 284 0062 00F00F00 		and	r0, r0, #15
 285 0066 0128     		cmp	r0, #1
 286 0068 21D0     		beq	.L43
 287              	.LVL18:
 288              	.L63:
 289 006a 0228     		cmp	r0, #2
 290 006c 2ED0     		beq	.L61
 291              	.LVL19:
 292              		.loc 1 529 0
 293 006e 506A     		ldr	r0, [r2, #36]
 294 0070 00F00F00 		and	r0, r0, #15
 295 0074 0128     		cmp	r0, #1
 296 0076 21D0     		beq	.L46
 297              	.LVL20:
 298              	.L64:
 299 0078 0228     		cmp	r0, #2
 300 007a 22D0     		beq	.L62
 301              	.L45:
 302              	.LVL21:
 303              		.loc 1 574 0
 304 007c 1962     		str	r1, [r3, #32]
 305              		.loc 1 575 0
 306 007e 0121     		movs	r1, #1
 307              	.LVL22:
 308 0080 5961     		str	r1, [r3, #20]
 309              		.loc 1 576 0
 310 0082 D968     		ldr	r1, [r3, #12]
 311 0084 9268     		ldr	r2, [r2, #8]
 312              	.LVL23:
 313 0086 002A     		cmp	r2, #0
 314 0088 0CBF     		ite	eq
 315 008a 0A46     		moveq	r2, r1
 316 008c 41F00102 		orrne	r2, r1, #1
 317 0090 DA60     		str	r2, [r3, #12]
 318              		.loc 1 577 0
 319 0092 0022     		movs	r2, #0
 320 0094 1A61     		str	r2, [r3, #16]
 321              		.loc 1 586 0
 322 0096 8522     		movs	r2, #133
 323 0098 1A60     		str	r2, [r3, #0]
 324 009a 70BD     		pop	{r4, r5, r6, pc}
 325              	.LVL24:
 326              	.L60:
 327              		.loc 1 515 0
 328 009c 41F02001 		orr	r1, r1, #32
 329              	.LVL25:
 330              	.L40:
 331              		.loc 1 521 0
 332 00a0 D069     		ldr	r0, [r2, #28]
 333 00a2 00F00F00 		and	r0, r0, #15
 334 00a6 0128     		cmp	r0, #1
 335              		.loc 1 517 0
 336 00a8 41F01001 		orr	r1, r1, #16
 337              	.LVL26:
 338              		.loc 1 521 0
 339 00ac DDD1     		bne	.L63
 340              	.LVL27:
ARM GAS  /tmp/ccAb3m9h.s 			page 7


 341              	.L43:
 342              		.loc 1 525 0
 343 00ae 41F48071 		orr	r1, r1, #256
 344              	.LVL28:
 345              	.L65:
 346              		.loc 1 529 0
 347 00b2 506A     		ldr	r0, [r2, #36]
 348 00b4 00F00F00 		and	r0, r0, #15
 349 00b8 0128     		cmp	r0, #1
 350 00ba DDD1     		bne	.L64
 351              	.LVL29:
 352              	.L46:
 353              		.loc 1 533 0
 354 00bc 41F48051 		orr	r1, r1, #4096
 355              	.LVL30:
 356 00c0 DCE7     		b	.L45
 357              	.LVL31:
 358              	.L62:
 359              		.loc 1 531 0
 360 00c2 41F40051 		orr	r1, r1, #8192
 361              	.LVL32:
 362              		.loc 1 533 0
 363 00c6 41F48051 		orr	r1, r1, #4096
 364              	.LVL33:
 365 00ca D7E7     		b	.L45
 366              	.LVL34:
 367              	.L61:
 368              		.loc 1 523 0
 369 00cc 41F40071 		orr	r1, r1, #512
 370              	.LVL35:
 371              		.loc 1 525 0
 372 00d0 41F48071 		orr	r1, r1, #256
 373              	.LVL36:
 374 00d4 EDE7     		b	.L65
 375              	.LVL37:
 376              	.L59:
 377              		.loc 1 435 0
 378 00d6 0D4B     		ldr	r3, .L67
 379 00d8 9842     		cmp	r0, r3
 380 00da 05D0     		beq	.L66
 381              	.LVL38:
 382              	.L34:
 383              		.loc 1 476 0
 384 00dc 2369     		ldr	r3, [r4, #16]
 385 00de 0C49     		ldr	r1, .L67+4
 386 00e0 6268     		ldr	r2, [r4, #4]
 387 00e2 9961     		str	r1, [r3, #24]
 388              		.loc 1 478 0
 389 00e4 D961     		str	r1, [r3, #28]
 390 00e6 9EE7     		b	.L35
 391              	.LVL39:
 392              	.L66:
 393              		.loc 1 436 0
 394 00e8 0A4B     		ldr	r3, .L67+8
 395 00ea 1A6C     		ldr	r2, [r3, #64]
 396 00ec 42F00402 		orr	r2, r2, #4
 397 00f0 1A64     		str	r2, [r3, #64]
ARM GAS  /tmp/ccAb3m9h.s 			page 8


 398              		.loc 1 437 0
 399 00f2 1A6A     		ldr	r2, [r3, #32]
 400 00f4 42F00402 		orr	r2, r2, #4
 401 00f8 1A62     		str	r2, [r3, #32]
 402 00fa 0022     		movs	r2, #0
 403 00fc 1A62     		str	r2, [r3, #32]
 404              		.loc 1 438 0
 405 00fe 1E20     		movs	r0, #30
 406              	.LVL40:
 407 0100 7021     		movs	r1, #112
 408 0102 FFF7FEFF 		bl	nvicEnableVector
 409              	.LVL41:
 410              		.loc 1 440 0
 411 0106 044B     		ldr	r3, .L67+12
 412 0108 E360     		str	r3, [r4, #12]
 413 010a E7E7     		b	.L34
 414              	.L68:
 415              		.align	2
 416              	.L67:
 417 010c 00000000 		.word	.LANCHOR0
 418 0110 68680101 		.word	16869480
 419 0114 00380240 		.word	1073887232
 420 0118 00BD0105 		.word	84000000
 421              		.cfi_endproc
 422              	.LFE121:
 423              		.size	pwm_lld_start, .-pwm_lld_start
 424 011c AFF30080 		.section	.text.pwm_lld_stop,"ax",%progbits
 425              		.align	2
 426              		.p2align 4,,15
 427              		.global	pwm_lld_stop
 428              		.thumb
 429              		.thumb_func
 430              		.type	pwm_lld_stop, %function
 431              	pwm_lld_stop:
 432              	.LFB122:
 433              		.loc 1 597 0
 434              		.cfi_startproc
 435              		@ args = 0, pretend = 0, frame = 0
 436              		@ frame_needed = 0, uses_anonymous_args = 0
 437              	.LVL42:
 438 0000 08B5     		push	{r3, lr}
 439              	.LCFI3:
 440              		.cfi_def_cfa_offset 8
 441              		.cfi_offset 3, -8
 442              		.cfi_offset 14, -4
 443              		.loc 1 600 0
 444 0002 0378     		ldrb	r3, [r0, #0]	@ zero_extendqisi2
 445 0004 022B     		cmp	r3, #2
 446 0006 00D0     		beq	.L73
 447              	.LVL43:
 448              	.L69:
 449 0008 08BD     		pop	{r3, pc}
 450              	.LVL44:
 451              	.L73:
 452              		.loc 1 601 0
 453 000a 0369     		ldr	r3, [r0, #16]
 454 000c 0022     		movs	r2, #0
ARM GAS  /tmp/ccAb3m9h.s 			page 9


 455 000e 1A60     		str	r2, [r3, #0]
 456              		.loc 1 602 0
 457 0010 DA60     		str	r2, [r3, #12]
 458              		.loc 1 603 0
 459 0012 1A61     		str	r2, [r3, #16]
 460              		.loc 1 628 0
 461 0014 054B     		ldr	r3, .L74
 462 0016 9842     		cmp	r0, r3
 463 0018 F6D1     		bne	.L69
 464              		.loc 1 629 0
 465 001a 1E20     		movs	r0, #30
 466              	.LVL45:
 467 001c FFF7FEFF 		bl	nvicDisableVector
 468              	.LVL46:
 469              		.loc 1 630 0
 470 0020 034B     		ldr	r3, .L74+4
 471 0022 1A6C     		ldr	r2, [r3, #64]
 472 0024 22F00402 		bic	r2, r2, #4
 473 0028 1A64     		str	r2, [r3, #64]
 474 002a EDE7     		b	.L69
 475              	.L75:
 476              		.align	2
 477              	.L74:
 478 002c 00000000 		.word	.LANCHOR0
 479 0030 00380240 		.word	1073887232
 480              		.cfi_endproc
 481              	.LFE122:
 482              		.size	pwm_lld_stop, .-pwm_lld_stop
 483 0034 AFF30080 		.section	.text.pwm_lld_enable_channel,"ax",%progbits
 483      AFF30080 
 483      AFF30080 
 484              		.align	2
 485              		.p2align 4,,15
 486              		.global	pwm_lld_enable_channel
 487              		.thumb
 488              		.thumb_func
 489              		.type	pwm_lld_enable_channel, %function
 490              	pwm_lld_enable_channel:
 491              	.LFB123:
 492              		.loc 1 669 0
 493              		.cfi_startproc
 494              		@ args = 0, pretend = 0, frame = 0
 495              		@ frame_needed = 0, uses_anonymous_args = 0
 496              		@ link register save eliminated.
 497              	.LVL47:
 498 0000 10B4     		push	{r4}
 499              	.LCFI4:
 500              		.cfi_def_cfa_offset 4
 501              		.cfi_offset 4, -4
 502              		.loc 1 674 0
 503 0002 4468     		ldr	r4, [r0, #4]
 504              		.loc 1 671 0
 505 0004 0369     		ldr	r3, [r0, #16]
 506              		.loc 1 674 0
 507 0006 04EBC100 		add	r0, r4, r1, lsl #3
 508              	.LVL48:
 509              		.loc 1 671 0
ARM GAS  /tmp/ccAb3m9h.s 			page 10


 510 000a 01F10C04 		add	r4, r1, #12
 511 000e 03EB8404 		add	r4, r3, r4, lsl #2
 512              		.loc 1 674 0
 513 0012 0069     		ldr	r0, [r0, #16]
 514              		.loc 1 671 0
 515 0014 6260     		str	r2, [r4, #4]
 516              		.loc 1 674 0
 517 0016 48B1     		cbz	r0, .L76
 518              	.LBB8:
 519              		.loc 1 678 0
 520 0018 0220     		movs	r0, #2
 521              		.loc 1 675 0
 522 001a DA68     		ldr	r2, [r3, #12]
 523              	.LVL49:
 524              		.loc 1 678 0
 525 001c 00FA01F1 		lsl	r1, r0, r1
 526              	.LVL50:
 527 0020 1142     		tst	r1, r2
 528 0022 03D1     		bne	.L76
 529              		.loc 1 679 0
 530 0024 0A43     		orrs	r2, r2, r1
 531              	.LVL51:
 532              		.loc 1 680 0
 533 0026 C943     		mvns	r1, r1
 534              		.loc 1 679 0
 535 0028 DA60     		str	r2, [r3, #12]
 536              		.loc 1 680 0
 537 002a 1961     		str	r1, [r3, #16]
 538              	.L76:
 539              	.LBE8:
 540              		.loc 1 683 0
 541 002c 10BC     		pop	{r4}
 542 002e 7047     		bx	lr
 543              		.cfi_endproc
 544              	.LFE123:
 545              		.size	pwm_lld_enable_channel, .-pwm_lld_enable_channel
 546              		.section	.text.pwm_lld_disable_channel,"ax",%progbits
 547              		.align	2
 548              		.p2align 4,,15
 549              		.global	pwm_lld_disable_channel
 550              		.thumb
 551              		.thumb_func
 552              		.type	pwm_lld_disable_channel, %function
 553              	pwm_lld_disable_channel:
 554              	.LFB124:
 555              		.loc 1 697 0
 556              		.cfi_startproc
 557              		@ args = 0, pretend = 0, frame = 0
 558              		@ frame_needed = 0, uses_anonymous_args = 0
 559              		@ link register save eliminated.
 560              	.LVL52:
 561              		.loc 1 699 0
 562 0000 0369     		ldr	r3, [r0, #16]
 563 0002 01F10C02 		add	r2, r1, #12
 564 0006 03EB8202 		add	r2, r3, r2, lsl #2
 565 000a 0020     		movs	r0, #0
 566              	.LVL53:
ARM GAS  /tmp/ccAb3m9h.s 			page 11


 567 000c 5060     		str	r0, [r2, #4]
 568              		.loc 1 700 0
 569 000e DA68     		ldr	r2, [r3, #12]
 570 0010 0220     		movs	r0, #2
 571 0012 00FA01F1 		lsl	r1, r0, r1
 572              	.LVL54:
 573 0016 22EA0101 		bic	r1, r2, r1
 574 001a D960     		str	r1, [r3, #12]
 575 001c 7047     		bx	lr
 576              		.cfi_endproc
 577              	.LFE124:
 578              		.size	pwm_lld_disable_channel, .-pwm_lld_disable_channel
 579              		.global	PWMD4
 580 001e 00BF     		.section	.bss.PWMD4,"aw",%nobits
 581              		.align	2
 582              		.set	.LANCHOR0,. + 0
 583              		.type	PWMD4, %object
 584              		.size	PWMD4, 20
 585              	PWMD4:
 586 0000 00000000 		.space	20
 586      00000000 
 586      00000000 
 586      00000000 
 586      00000000 
 587              		.text
 588              	.Letext0:
 589              		.file 2 "/home/dpeter/CodeSourcery/Sourcery_CodeBench_Lite_for_ARM_EABI/bin/../lib/gcc/arm-none-ea
 590              		.file 3 "/home/dpeter/devel/sources/ChibiOS-RT/os/hal/platforms/STM32F4xx/stm32f4xx.h"
 591              		.file 4 "/home/dpeter/devel/sources/ChibiOS-RT/os/hal/include/pwm.h"
 592              		.file 5 "/home/dpeter/devel/sources/ChibiOS-RT/os/hal/platforms/STM32/TIMv1/pwm_lld.h"
 593              		.file 6 "/home/dpeter/devel/sources/ChibiOS-RT/os/hal/platforms/STM32/TIMv1/stm32_tim.h"
 594              		.file 7 "/home/dpeter/devel/sources/ChibiOS-RT/os/ports/common/ARMCMx/CMSIS/include/core_cm4.h"
 595              		.file 8 "/home/dpeter/devel/sources/ChibiOS-RT/os/ports/common/ARMCMx/nvic.h"
 596              		.file 9 "/home/dpeter/devel/sources/ChibiOS-RT/os/ports/GCC/ARMCMx/chcore_v7m.h"