ARM GAS  /tmp/ccYb2YOQ.s 			page 1


   1              		.syntax unified
   2              		.cpu cortex-m4
   3              		.fpu softvfp
   4              		.eabi_attribute 20, 1
   5              		.eabi_attribute 21, 1
   6              		.eabi_attribute 23, 3
   7              		.eabi_attribute 24, 1
   8              		.eabi_attribute 25, 1
   9              		.eabi_attribute 26, 1
  10              		.eabi_attribute 30, 2
  11              		.eabi_attribute 34, 1
  12              		.eabi_attribute 18, 4
  13              		.thumb
  14              		.file	"shell.c"
  15              		.text
  16              	.Ltext0:
  17              		.cfi_sections	.debug_frame
  18              		.section	.text._strtok.constprop.2,"ax",%progbits
  19              		.align	2
  20              		.p2align 4,,15
  21              		.thumb
  22              		.thumb_func
  23              		.type	_strtok.constprop.2, %function
  24              	_strtok.constprop.2:
  25              	.LFB132:
  26              		.file 1 "/home/dpeter/devel/sources/ChibiOS-RT/os/various/shell.c"
  27              		.loc 1 37 0
  28              		.cfi_startproc
  29              		@ args = 0, pretend = 0, frame = 0
  30              		@ frame_needed = 0, uses_anonymous_args = 0
  31              	.LVL0:
  32 0000 38B5     		push	{r3, r4, r5, lr}
  33              	.LCFI0:
  34              		.cfi_def_cfa_offset 16
  35              		.cfi_offset 3, -16
  36              		.cfi_offset 4, -12
  37              		.cfi_offset 5, -8
  38              		.cfi_offset 14, -4
  39              		.loc 1 39 0
  40 0002 0446     		mov	r4, r0
  41              		.loc 1 37 0
  42 0004 0D46     		mov	r5, r1
  43              		.loc 1 39 0
  44 0006 98B1     		cbz	r0, .L2
  45              		.loc 1 40 0
  46 0008 2860     		str	r0, [r5, #0]
  47              	.LVL1:
  48              	.L3:
  49              		.loc 1 46 0
  50 000a 0C49     		ldr	r1, .L14
  51              	.LVL2:
  52 000c 2046     		mov	r0, r4
  53              	.LVL3:
  54 000e FFF7FEFF 		bl	strspn
  55              	.LVL4:
  56 0012 2418     		adds	r4, r4, r0
  57              	.LVL5:
ARM GAS  /tmp/ccYb2YOQ.s 			page 2


  58              		.loc 1 47 0
  59 0014 2046     		mov	r0, r4
  60 0016 0949     		ldr	r1, .L14
  61 0018 FFF7FEFF 		bl	strpbrk
  62              	.LVL6:
  63 001c 2860     		str	r0, [r5, #0]
  64              		.loc 1 48 0
  65 001e 18B1     		cbz	r0, .L5
  66              		.loc 1 49 0
  67 0020 0023     		movs	r3, #0
  68 0022 00F8013B 		strb	r3, [r0], #1
  69 0026 2860     		str	r0, [r5, #0]
  70              	.L5:
  71              		.loc 1 51 0
  72 0028 2378     		ldrb	r3, [r4, #0]	@ zero_extendqisi2
  73 002a 23B1     		cbz	r3, .L6
  74              		.loc 1 52 0
  75 002c 2046     		mov	r0, r4
  76 002e 38BD     		pop	{r3, r4, r5, pc}
  77              	.LVL7:
  78              	.L2:
  79              		.loc 1 41 0
  80 0030 0C68     		ldr	r4, [r1, #0]
  81              	.LVL8:
  82              		.loc 1 43 0
  83 0032 002C     		cmp	r4, #0
  84 0034 E9D1     		bne	.L3
  85              	.LVL9:
  86              	.L6:
  87              		.loc 1 44 0
  88 0036 0024     		movs	r4, #0
  89              	.LVL10:
  90              		.loc 1 52 0
  91 0038 2046     		mov	r0, r4
  92 003a 38BD     		pop	{r3, r4, r5, pc}
  93              	.L15:
  94              		.align	2
  95              	.L14:
  96 003c 00000000 		.word	.LC0
  97              		.cfi_endproc
  98              	.LFE132:
  99              		.size	_strtok.constprop.2, .-_strtok.constprop.2
 100              		.section	.text.cmd_systime,"ax",%progbits
 101              		.align	2
 102              		.p2align 4,,15
 103              		.thumb
 104              		.thumb_func
 105              		.type	cmd_systime, %function
 106              	cmd_systime:
 107              	.LFB122:
 108              		.loc 1 99 0
 109              		.cfi_startproc
 110              		@ args = 0, pretend = 0, frame = 0
 111              		@ frame_needed = 0, uses_anonymous_args = 0
 112              		@ link register save eliminated.
 113              	.LVL11:
 114              		.loc 1 102 0
ARM GAS  /tmp/ccYb2YOQ.s 			page 3


 115 0000 0029     		cmp	r1, #0
 116 0002 03DD     		ble	.L17
 117              	.LVL12:
 118              	.LBB6:
 119              	.LBB7:
 120              		.loc 1 56 0
 121 0004 0449     		ldr	r1, .L18
 122              	.LVL13:
 123 0006 054A     		ldr	r2, .L18+4
 124              	.LVL14:
 125              	.LBE7:
 126              	.LBE6:
 127              		.loc 1 107 0
 128              	.LBB9:
 129              	.LBB8:
 130              		.loc 1 56 0
 131 0008 FFF7FEBF 		b	chprintf
 132              	.LVL15:
 133              	.L17:
 134              	.LBE8:
 135              	.LBE9:
 136              	.LBB10:
 137              	.LBB11:
 138              		.loc 1 106 0
 139 000c 044B     		ldr	r3, .L18+8
 140 000e 0549     		ldr	r1, .L18+12
 141              	.LVL16:
 142 0010 DA68     		ldr	r2, [r3, #12]
 143              	.LVL17:
 144              	.LBE11:
 145              	.LBE10:
 146              		.loc 1 107 0
 147              	.LBB13:
 148              	.LBB12:
 149              		.loc 1 106 0
 150 0012 FFF7FEBF 		b	chprintf
 151              	.LVL18:
 152              	.L19:
 153 0016 00BF     		.align	2
 154              	.L18:
 155 0018 04000000 		.word	.LC1
 156 001c 10000000 		.word	.LC2
 157 0020 00000000 		.word	vtlist
 158 0024 18000000 		.word	.LC3
 159              	.LBE12:
 160              	.LBE13:
 161              		.cfi_endproc
 162              	.LFE122:
 163              		.size	cmd_systime, .-cmd_systime
 164 0028 AFF30080 		.section	.text.cmd_info,"ax",%progbits
 164      AFF30080 
 165              		.align	2
 166              		.p2align 4,,15
 167              		.thumb
 168              		.thumb_func
 169              		.type	cmd_info, %function
 170              	cmd_info:
ARM GAS  /tmp/ccYb2YOQ.s 			page 4


 171              	.LFB121:
 172              		.loc 1 67 0
 173              		.cfi_startproc
 174              		@ args = 0, pretend = 0, frame = 0
 175              		@ frame_needed = 0, uses_anonymous_args = 0
 176              	.LVL19:
 177 0000 10B5     		push	{r4, lr}
 178              	.LCFI1:
 179              		.cfi_def_cfa_offset 8
 180              		.cfi_offset 4, -8
 181              		.cfi_offset 14, -4
 182              		.loc 1 70 0
 183 0002 0029     		cmp	r1, #0
 184              		.loc 1 67 0
 185 0004 82B0     		sub	sp, sp, #8
 186              	.LCFI2:
 187              		.cfi_def_cfa_offset 16
 188              		.loc 1 67 0
 189 0006 0446     		mov	r4, r0
 190              		.loc 1 70 0
 191 0008 06DD     		ble	.L21
 192              	.LVL20:
 193              	.LBB18:
 194              	.LBB19:
 195              		.loc 1 56 0
 196 000a 1949     		ldr	r1, .L22
 197              	.LVL21:
 198 000c 194A     		ldr	r2, .L22+4
 199              	.LVL22:
 200              	.LBE19:
 201              	.LBE18:
 202              		.loc 1 97 0
 203 000e 02B0     		add	sp, sp, #8
 204 0010 BDE81040 		pop	{r4, lr}
 205              	.LBB21:
 206              	.LBB20:
 207              		.loc 1 56 0
 208 0014 FFF7FEBF 		b	chprintf
 209              	.LVL23:
 210              	.L21:
 211              	.LBE20:
 212              	.LBE21:
 213              	.LBB22:
 214              	.LBB23:
 215              		.loc 1 75 0
 216 0018 1749     		ldr	r1, .L22+8
 217              	.LVL24:
 218 001a 184A     		ldr	r2, .L22+12
 219              	.LVL25:
 220 001c FFF7FEFF 		bl	chprintf
 221              	.LVL26:
 222              		.loc 1 77 0
 223 0020 2046     		mov	r0, r4
 224 0022 1749     		ldr	r1, .L22+16
 225 0024 174A     		ldr	r2, .L22+20
 226 0026 FFF7FEFF 		bl	chprintf
 227              	.LVL27:
ARM GAS  /tmp/ccYb2YOQ.s 			page 5


 228              		.loc 1 79 0
 229 002a 2046     		mov	r0, r4
 230 002c 1649     		ldr	r1, .L22+24
 231 002e 174A     		ldr	r2, .L22+28
 232 0030 FFF7FEFF 		bl	chprintf
 233              	.LVL28:
 234              		.loc 1 81 0
 235 0034 2046     		mov	r0, r4
 236 0036 1649     		ldr	r1, .L22+32
 237 0038 164A     		ldr	r2, .L22+36
 238 003a FFF7FEFF 		bl	chprintf
 239              	.LVL29:
 240              		.loc 1 84 0
 241 003e 2046     		mov	r0, r4
 242 0040 1549     		ldr	r1, .L22+40
 243 0042 164A     		ldr	r2, .L22+44
 244 0044 FFF7FEFF 		bl	chprintf
 245              	.LVL30:
 246              		.loc 1 87 0
 247 0048 2046     		mov	r0, r4
 248 004a 1549     		ldr	r1, .L22+48
 249 004c 154A     		ldr	r2, .L22+52
 250 004e FFF7FEFF 		bl	chprintf
 251              	.LVL31:
 252              		.loc 1 90 0
 253 0052 2046     		mov	r0, r4
 254 0054 1449     		ldr	r1, .L22+56
 255 0056 154A     		ldr	r2, .L22+60
 256 0058 FFF7FEFF 		bl	chprintf
 257              	.LVL32:
 258              		.loc 1 94 0
 259 005c 144B     		ldr	r3, .L22+64
 260 005e 1549     		ldr	r1, .L22+68
 261 0060 0093     		str	r3, [sp, #0]
 262 0062 2046     		mov	r0, r4
 263 0064 144A     		ldr	r2, .L22+72
 264 0066 154B     		ldr	r3, .L22+76
 265 0068 FFF7FEFF 		bl	chprintf
 266              	.LVL33:
 267              	.LBE23:
 268              	.LBE22:
 269              		.loc 1 97 0
 270 006c 02B0     		add	sp, sp, #8
 271 006e 10BD     		pop	{r4, pc}
 272              	.L23:
 273              		.align	2
 274              	.L22:
 275 0070 04000000 		.word	.LC1
 276 0074 20000000 		.word	.LC4
 277 0078 28000000 		.word	.LC5
 278 007c 3C000000 		.word	.LC6
 279 0080 4C000000 		.word	.LC7
 280 0084 60000000 		.word	.LC8
 281 0088 6C000000 		.word	.LC9
 282 008c 80000000 		.word	.LC10
 283 0090 8C000000 		.word	.LC11
 284 0094 A0000000 		.word	.LC12
ARM GAS  /tmp/ccYb2YOQ.s 			page 6


 285 0098 AC000000 		.word	.LC13
 286 009c C0000000 		.word	.LC14
 287 00a0 D8000000 		.word	.LC15
 288 00a4 EC000000 		.word	.LC16
 289 00a8 20010000 		.word	.LC17
 290 00ac 34010000 		.word	.LC18
 291 00b0 84010000 		.word	.LC22
 292 00b4 5C010000 		.word	.LC19
 293 00b8 74010000 		.word	.LC20
 294 00bc 80010000 		.word	.LC21
 295              		.cfi_endproc
 296              	.LFE121:
 297              		.size	cmd_info, .-cmd_info
 298              		.section	.text.shellInit,"ax",%progbits
 299              		.align	2
 300              		.p2align 4,,15
 301              		.global	shellInit
 302              		.thumb
 303              		.thumb_func
 304              		.type	shellInit, %function
 305              	shellInit:
 306              	.LFB125:
 307              		.loc 1 204 0
 308              		.cfi_startproc
 309              		@ args = 0, pretend = 0, frame = 0
 310              		@ frame_needed = 0, uses_anonymous_args = 0
 311              		@ link register save eliminated.
 312              		.loc 1 206 0
 313 0000 014B     		ldr	r3, .L25
 314 0002 1B60     		str	r3, [r3, #0]
 315 0004 7047     		bx	lr
 316              	.L26:
 317 0006 00BF     		.align	2
 318              	.L25:
 319 0008 00000000 		.word	.LANCHOR0
 320              		.cfi_endproc
 321              	.LFE125:
 322              		.size	shellInit, .-shellInit
 323 000c AFF30080 		.section	.text.shellExit,"ax",%progbits
 324              		.align	2
 325              		.p2align 4,,15
 326              		.global	shellExit
 327              		.thumb
 328              		.thumb_func
 329              		.type	shellExit, %function
 330              	shellExit:
 331              	.LFB126:
 332              		.loc 1 218 0
 333              		.cfi_startproc
 334              		@ args = 0, pretend = 0, frame = 0
 335              		@ frame_needed = 0, uses_anonymous_args = 0
 336              	.LVL34:
 337 0000 10B5     		push	{r4, lr}
 338              	.LCFI3:
 339              		.cfi_def_cfa_offset 8
 340              		.cfi_offset 4, -8
 341              		.cfi_offset 14, -4
ARM GAS  /tmp/ccYb2YOQ.s 			page 7


 342              	.LBB24:
 343              		.loc 1 222 0
 344 0002 2023     		movs	r3, #32
 345              	.LVL35:
 346              	.LBE24:
 347              		.loc 1 218 0
 348 0004 0446     		mov	r4, r0
 349              	.LBB25:
 350              		.loc 1 222 0
 351              	@ 222 "/home/dpeter/devel/sources/ChibiOS-RT/os/various/shell.c" 1
 352 0006 83F31188 		msr     BASEPRI, r3
 353              	@ 0 "" 2
 354              	.LVL36:
 355              		.thumb
 356              	.LBE25:
 357              		.loc 1 223 0
 358 000a 0448     		ldr	r0, .L28
 359              	.LVL37:
 360 000c 0021     		movs	r1, #0
 361 000e FFF7FEFF 		bl	chEvtBroadcastFlagsI
 362              	.LVL38:
 363              		.loc 1 224 0
 364 0012 2046     		mov	r0, r4
 365              		.loc 1 225 0
 366 0014 BDE81040 		pop	{r4, lr}
 367              		.loc 1 224 0
 368 0018 FFF7FEBF 		b	chThdExitS
 369              	.LVL39:
 370              	.L29:
 371              		.align	2
 372              	.L28:
 373 001c 00000000 		.word	.LANCHOR0
 374              		.cfi_endproc
 375              	.LFE126:
 376              		.size	shellExit, .-shellExit
 377              		.section	.text.shellCreate,"ax",%progbits
 378              		.align	2
 379              		.p2align 4,,15
 380              		.global	shellCreate
 381              		.thumb
 382              		.thumb_func
 383              		.type	shellCreate, %function
 384              	shellCreate:
 385              	.LFB127:
 386              		.loc 1 240 0
 387              		.cfi_startproc
 388              		@ args = 0, pretend = 0, frame = 0
 389              		@ frame_needed = 0, uses_anonymous_args = 0
 390              	.LVL40:
 391 0000 00B5     		push	{lr}
 392              	.LCFI4:
 393              		.cfi_def_cfa_offset 4
 394              		.cfi_offset 14, -4
 395 0002 83B0     		sub	sp, sp, #12
 396              	.LCFI5:
 397              		.cfi_def_cfa_offset 16
 398              		.loc 1 242 0
ARM GAS  /tmp/ccYb2YOQ.s 			page 8


 399 0004 034B     		ldr	r3, .L31
 400 0006 0090     		str	r0, [sp, #0]
 401 0008 0020     		movs	r0, #0
 402              	.LVL41:
 403 000a FFF7FEFF 		bl	chThdCreateFromHeap
 404              	.LVL42:
 405              		.loc 1 243 0
 406 000e 03B0     		add	sp, sp, #12
 407 0010 00BD     		pop	{pc}
 408              	.L32:
 409 0012 00BF     		.align	2
 410              	.L31:
 411 0014 00000000 		.word	shell_thread
 412              		.cfi_endproc
 413              	.LFE127:
 414              		.size	shellCreate, .-shellCreate
 415 0018 AFF30080 		.section	.text.shellCreateStatic,"ax",%progbits
 415      AFF30080 
 416              		.align	2
 417              		.p2align 4,,15
 418              		.global	shellCreateStatic
 419              		.thumb
 420              		.thumb_func
 421              		.type	shellCreateStatic, %function
 422              	shellCreateStatic:
 423              	.LFB128:
 424              		.loc 1 258 0
 425              		.cfi_startproc
 426              		@ args = 0, pretend = 0, frame = 0
 427              		@ frame_needed = 0, uses_anonymous_args = 0
 428              	.LVL43:
 429 0000 00B5     		push	{lr}
 430              	.LCFI6:
 431              		.cfi_def_cfa_offset 4
 432              		.cfi_offset 14, -4
 433 0002 83B0     		sub	sp, sp, #12
 434              	.LCFI7:
 435              		.cfi_def_cfa_offset 16
 436              		.loc 1 260 0
 437 0004 0090     		str	r0, [sp, #0]
 438 0006 0846     		mov	r0, r1
 439              	.LVL44:
 440 0008 1146     		mov	r1, r2
 441              	.LVL45:
 442 000a 1A46     		mov	r2, r3
 443              	.LVL46:
 444 000c 024B     		ldr	r3, .L34
 445              	.LVL47:
 446 000e FFF7FEFF 		bl	chThdCreateStatic
 447              	.LVL48:
 448              		.loc 1 261 0
 449 0012 03B0     		add	sp, sp, #12
 450 0014 00BD     		pop	{pc}
 451              	.L35:
 452 0016 00BF     		.align	2
 453              	.L34:
 454 0018 00000000 		.word	shell_thread
ARM GAS  /tmp/ccYb2YOQ.s 			page 9


 455              		.cfi_endproc
 456              	.LFE128:
 457              		.size	shellCreateStatic, .-shellCreateStatic
 458 001c AFF30080 		.section	.text.shellGetLine,"ax",%progbits
 459              		.align	2
 460              		.p2align 4,,15
 461              		.global	shellGetLine
 462              		.thumb
 463              		.thumb_func
 464              		.type	shellGetLine, %function
 465              	shellGetLine:
 466              	.LFB129:
 467              		.loc 1 275 0
 468              		.cfi_startproc
 469              		@ args = 0, pretend = 0, frame = 8
 470              		@ frame_needed = 0, uses_anonymous_args = 0
 471              	.LVL49:
 472 0000 F0B5     		push	{r4, r5, r6, r7, lr}
 473              	.LCFI8:
 474              		.cfi_def_cfa_offset 20
 475              		.cfi_offset 4, -20
 476              		.cfi_offset 5, -16
 477              		.cfi_offset 6, -12
 478              		.cfi_offset 7, -8
 479              		.cfi_offset 14, -4
 480              	.LBB26:
 481              		.loc 1 303 0
 482 0002 013A     		subs	r2, r2, #1
 483              	.LVL50:
 484              	.LBE26:
 485              		.loc 1 275 0
 486 0004 83B0     		sub	sp, sp, #12
 487              	.LCFI9:
 488              		.cfi_def_cfa_offset 32
 489              		.loc 1 275 0
 490 0006 0E46     		mov	r6, r1
 491              	.LVL51:
 492 0008 0446     		mov	r4, r0
 493              		.loc 1 276 0
 494 000a 0D46     		mov	r5, r1
 495              	.LBB27:
 496              		.loc 1 303 0
 497 000c 8F18     		adds	r7, r1, r2
 498              	.LVL52:
 499              	.L48:
 500              		.loc 1 281 0
 501 000e 2368     		ldr	r3, [r4, #0]
 502 0010 0122     		movs	r2, #1
 503 0012 0DF10701 		add	r1, sp, #7
 504 0016 5B68     		ldr	r3, [r3, #4]
 505 0018 2046     		mov	r0, r4
 506 001a 9847     		blx	r3
 507              	.LVL53:
 508 001c 38B3     		cbz	r0, .L45
 509              		.loc 1 283 0
 510 001e 9DF80710 		ldrb	r1, [sp, #7]	@ zero_extendqisi2
 511 0022 0429     		cmp	r1, #4
ARM GAS  /tmp/ccYb2YOQ.s 			page 10


 512 0024 26D0     		beq	.L49
 513              		.loc 1 287 0
 514 0026 0829     		cmp	r1, #8
 515 0028 0ED0     		beq	.L50
 516              		.loc 1 296 0
 517 002a 0D29     		cmp	r1, #13
 518 002c 28D0     		beq	.L51
 519              		.loc 1 301 0
 520 002e 1F29     		cmp	r1, #31
 521 0030 EDD9     		bls	.L48
 522              		.loc 1 303 0
 523 0032 BD42     		cmp	r5, r7
 524 0034 EBD2     		bcs	.L48
 525              		.loc 1 304 0
 526 0036 2368     		ldr	r3, [r4, #0]
 527 0038 2046     		mov	r0, r4
 528 003a 9B68     		ldr	r3, [r3, #8]
 529 003c 9847     		blx	r3
 530              	.LVL54:
 531              		.loc 1 305 0
 532 003e 9DF80730 		ldrb	r3, [sp, #7]	@ zero_extendqisi2
 533              	.LVL55:
 534 0042 05F8013B 		strb	r3, [r5], #1
 535              	.LVL56:
 536 0046 E2E7     		b	.L48
 537              	.LVL57:
 538              	.L50:
 539              		.loc 1 288 0
 540 0048 B542     		cmp	r5, r6
 541              		.loc 1 289 0
 542 004a 2046     		mov	r0, r4
 543              		.loc 1 288 0
 544 004c DFD0     		beq	.L48
 545              	.LVL58:
 546              		.loc 1 289 0
 547 004e 2368     		ldr	r3, [r4, #0]
 548 0050 9B68     		ldr	r3, [r3, #8]
 549 0052 9847     		blx	r3
 550              	.LVL59:
 551              		.loc 1 290 0
 552 0054 2368     		ldr	r3, [r4, #0]
 553 0056 2021     		movs	r1, #32
 554 0058 9B68     		ldr	r3, [r3, #8]
 555 005a 2046     		mov	r0, r4
 556 005c 9847     		blx	r3
 557              	.LVL60:
 558              		.loc 1 291 0
 559 005e 2368     		ldr	r3, [r4, #0]
 560 0060 9DF80710 		ldrb	r1, [sp, #7]	@ zero_extendqisi2
 561 0064 9B68     		ldr	r3, [r3, #8]
 562 0066 2046     		mov	r0, r4
 563 0068 9847     		blx	r3
 564              	.LVL61:
 565              		.loc 1 292 0
 566 006a 013D     		subs	r5, r5, #1
 567              	.LVL62:
 568 006c CFE7     		b	.L48
ARM GAS  /tmp/ccYb2YOQ.s 			page 11


 569              	.L45:
 570              		.loc 1 282 0
 571 006e 0120     		movs	r0, #1
 572              	.L38:
 573              	.LBE27:
 574              		.loc 1 308 0
 575 0070 03B0     		add	sp, sp, #12
 576 0072 F0BD     		pop	{r4, r5, r6, r7, pc}
 577              	.L49:
 578              	.LBB28:
 579              		.loc 1 284 0
 580 0074 2046     		mov	r0, r4
 581 0076 0649     		ldr	r1, .L52
 582 0078 FFF7FEFF 		bl	chprintf
 583              	.LVL63:
 584              		.loc 1 285 0
 585 007c 0120     		movs	r0, #1
 586 007e F7E7     		b	.L38
 587              	.L51:
 588              		.loc 1 297 0
 589 0080 2046     		mov	r0, r4
 590 0082 0449     		ldr	r1, .L52+4
 591 0084 FFF7FEFF 		bl	chprintf
 592              	.LVL64:
 593              		.loc 1 298 0
 594 0088 0020     		movs	r0, #0
 595 008a 2870     		strb	r0, [r5, #0]
 596 008c F0E7     		b	.L38
 597              	.L53:
 598 008e 00BF     		.align	2
 599              	.L52:
 600 0090 90010000 		.word	.LC23
 601 0094 94010000 		.word	.LC24
 602              	.LBE28:
 603              		.cfi_endproc
 604              	.LFE129:
 605              		.size	shellGetLine, .-shellGetLine
 606 0098 AFF30080 		.section	.text.shell_thread,"ax",%progbits
 606      AFF30080 
 607              		.align	2
 608              		.p2align 4,,15
 609              		.thumb
 610              		.thumb_func
 611              		.type	shell_thread, %function
 612              	shell_thread:
 613              	.LFB124:
 614              		.loc 1 141 0
 615              		.cfi_startproc
 616              		@ args = 0, pretend = 0, frame = 88
 617              		@ frame_needed = 0, uses_anonymous_args = 0
 618              	.LVL65:
 619 0000 2DE9F043 		push	{r4, r5, r6, r7, r8, r9, lr}
 620              	.LCFI10:
 621              		.cfi_def_cfa_offset 28
 622              		.cfi_offset 4, -28
 623              		.cfi_offset 5, -24
 624              		.cfi_offset 6, -20
ARM GAS  /tmp/ccYb2YOQ.s 			page 12


 625              		.cfi_offset 7, -16
 626              		.cfi_offset 8, -12
 627              		.cfi_offset 9, -8
 628              		.cfi_offset 14, -4
 629              		.loc 1 148 0
 630 0004 594B     		ldr	r3, .L107
 631              		.loc 1 143 0
 632 0006 0668     		ldr	r6, [r0, #0]
 633              	.LVL66:
 634              		.loc 1 148 0
 635 0008 9B69     		ldr	r3, [r3, #24]
 636 000a 594A     		ldr	r2, .L107+4
 637              		.loc 1 144 0
 638 000c D0F80480 		ldr	r8, [r0, #4]
 639              	.LVL67:
 640              		.loc 1 149 0
 641 0010 5849     		ldr	r1, .L107+8
 642              		.loc 1 148 0
 643 0012 9A61     		str	r2, [r3, #24]
 644              		.loc 1 141 0
 645 0014 97B0     		sub	sp, sp, #92
 646              	.LCFI11:
 647              		.cfi_def_cfa_offset 120
 648              		.loc 1 149 0
 649 0016 3046     		mov	r0, r6
 650              	.LVL68:
 651 0018 FFF7FEFF 		bl	chprintf
 652              	.LVL69:
 653              	.LBB41:
 654              	.LBB42:
 655              		.loc 1 61 0
 656 001c DFF87091 		ldr	r9, .L107+36
 657              	.L100:
 658              	.LBE42:
 659              	.LBE41:
 660              		.loc 1 151 0
 661 0020 3046     		mov	r0, r6
 662 0022 5549     		ldr	r1, .L107+12
 663 0024 FFF7FEFF 		bl	chprintf
 664              	.LVL70:
 665              		.loc 1 152 0
 666 0028 3046     		mov	r0, r6
 667 002a 06A9     		add	r1, sp, #24
 668 002c 4022     		movs	r2, #64
 669 002e FFF7FEFF 		bl	shellGetLine
 670              	.LVL71:
 671 0032 0446     		mov	r4, r0
 672 0034 0028     		cmp	r0, #0
 673 0036 2FD1     		bne	.L103
 674              		.loc 1 156 0
 675 0038 6946     		mov	r1, sp
 676 003a 06A8     		add	r0, sp, #24
 677 003c FFF7FEFF 		bl	_strtok.constprop.2
 678              	.LVL72:
 679              		.loc 1 159 0
 680 0040 6946     		mov	r1, sp
 681              		.loc 1 156 0
ARM GAS  /tmp/ccYb2YOQ.s 			page 13


 682 0042 0746     		mov	r7, r0
 683              	.LVL73:
 684              		.loc 1 159 0
 685 0044 0020     		movs	r0, #0
 686              	.LVL74:
 687              		.loc 1 141 0
 688 0046 6D46     		mov	r5, sp
 689              		.loc 1 159 0
 690 0048 FFF7FEFF 		bl	_strtok.constprop.2
 691              	.LVL75:
 692 004c 50B1     		cbz	r0, .L104
 693              	.L61:
 694              		.loc 1 160 0
 695 004e 042C     		cmp	r4, #4
 696 0050 1BD0     		beq	.L105
 697              		.loc 1 165 0
 698 0052 45F8040F 		str	r0, [r5, #4]!
 699              		.loc 1 159 0
 700 0056 6946     		mov	r1, sp
 701 0058 0020     		movs	r0, #0
 702              	.LVL76:
 703              		.loc 1 165 0
 704 005a 0134     		adds	r4, r4, #1
 705              	.LVL77:
 706              		.loc 1 159 0
 707 005c FFF7FEFF 		bl	_strtok.constprop.2
 708              	.LVL78:
 709 0060 0028     		cmp	r0, #0
 710 0062 F4D1     		bne	.L61
 711              	.L104:
 712              		.loc 1 167 0
 713 0064 16AA     		add	r2, sp, #88
 714 0066 02EB8403 		add	r3, r2, r4, lsl #2
 715 006a 43F8540C 		str	r0, [r3, #-84]
 716              		.loc 1 168 0
 717 006e 002F     		cmp	r7, #0
 718 0070 D6D0     		beq	.L100
 719              		.loc 1 169 0
 720 0072 3846     		mov	r0, r7
 721              	.LVL79:
 722 0074 4149     		ldr	r1, .L107+16
 723 0076 FFF7FEFF 		bl	strcasecmp
 724              	.LVL80:
 725 007a C0B9     		cbnz	r0, .L62
 726              		.loc 1 170 0
 727 007c 84B1     		cbz	r4, .L57
 728              	.LVL81:
 729              	.LBB44:
 730              	.LBB45:
 731              		.loc 1 56 0
 732 007e 3046     		mov	r0, r6
 733 0080 3F49     		ldr	r1, .L107+20
 734 0082 3E4A     		ldr	r2, .L107+16
 735 0084 FFF7FEFF 		bl	chprintf
 736              	.LVL82:
 737              	.LBE45:
 738              	.LBE44:
ARM GAS  /tmp/ccYb2YOQ.s 			page 14


 739              		.loc 1 172 0
 740 0088 CAE7     		b	.L100
 741              	.LVL83:
 742              	.L105:
 743              		.loc 1 161 0
 744 008a 3046     		mov	r0, r6
 745              	.LVL84:
 746 008c 3D49     		ldr	r1, .L107+24
 747 008e FFF7FEFF 		bl	chprintf
 748              	.LVL85:
 749              		.loc 1 167 0
 750 0092 0023     		movs	r3, #0
 751 0094 0593     		str	r3, [sp, #20]
 752 0096 C3E7     		b	.L100
 753              	.LVL86:
 754              	.L103:
 755              		.loc 1 153 0
 756 0098 3046     		mov	r0, r6
 757 009a 3B49     		ldr	r1, .L107+28
 758 009c FFF7FEFF 		bl	chprintf
 759              	.LVL87:
 760              	.L57:
 761              		.loc 1 194 0
 762 00a0 0020     		movs	r0, #0
 763 00a2 FFF7FEFF 		bl	shellExit
 764              	.LVL88:
 765              		.loc 1 197 0
 766 00a6 0020     		movs	r0, #0
 767 00a8 17B0     		add	sp, sp, #92
 768 00aa BDE8F083 		pop	{r4, r5, r6, r7, r8, r9, pc}
 769              	.LVL89:
 770              	.L62:
 771              		.loc 1 176 0
 772 00ae 3846     		mov	r0, r7
 773 00b0 3649     		ldr	r1, .L107+32
 774 00b2 FFF7FEFF 		bl	strcasecmp
 775              	.LVL90:
 776 00b6 30B9     		cbnz	r0, .L106
 777              	.LBB46:
 778              	.LBB47:
 779              		.loc 1 56 0
 780 00b8 3046     		mov	r0, r6
 781              	.LBE47:
 782              	.LBE46:
 783              		.loc 1 177 0
 784 00ba CCB1     		cbz	r4, .L67
 785              	.LVL91:
 786              	.LBB49:
 787              	.LBB48:
 788              		.loc 1 56 0
 789 00bc 3049     		ldr	r1, .L107+20
 790 00be 334A     		ldr	r2, .L107+32
 791 00c0 FFF7FEFF 		bl	chprintf
 792              	.LVL92:
 793              	.LBE48:
 794              	.LBE49:
 795              		.loc 1 179 0
ARM GAS  /tmp/ccYb2YOQ.s 			page 15


 796 00c4 ACE7     		b	.L100
 797              	.LVL93:
 798              	.L106:
 799              	.LBB50:
 800              	.LBB51:
 801              		.loc 1 121 0
 802 00c6 D9F80000 		ldr	r0, [r9, #0]
 803 00ca 0028     		cmp	r0, #0
 804 00cc 33D0     		beq	.L66
 805 00ce 304D     		ldr	r5, .L107+36
 806 00d0 03E0     		b	.L75
 807              	.LVL94:
 808              	.L74:
 809 00d2 55F8080F 		ldr	r0, [r5, #8]!
 810              	.LVL95:
 811 00d6 0028     		cmp	r0, #0
 812 00d8 2DD0     		beq	.L66
 813              	.LVL96:
 814              	.L75:
 815              		.loc 1 122 0
 816 00da 3946     		mov	r1, r7
 817 00dc FFF7FEFF 		bl	strcasecmp
 818              	.LVL97:
 819 00e0 0028     		cmp	r0, #0
 820 00e2 F6D1     		bne	.L74
 821              	.LVL98:
 822              	.L102:
 823              	.LBE51:
 824              	.LBE50:
 825              	.LBB52:
 826              	.LBB53:
 827              		.loc 1 123 0
 828 00e4 6B68     		ldr	r3, [r5, #4]
 829 00e6 3046     		mov	r0, r6
 830 00e8 2146     		mov	r1, r4
 831 00ea 01AA     		add	r2, sp, #4
 832 00ec 9847     		blx	r3
 833              	.LVL99:
 834 00ee 97E7     		b	.L100
 835              	.LVL100:
 836              	.L67:
 837              	.LBE53:
 838              	.LBE52:
 839              		.loc 1 181 0
 840 00f0 2849     		ldr	r1, .L107+40
 841 00f2 FFF7FEFF 		bl	chprintf
 842              	.LVL101:
 843              	.LBB55:
 844              	.LBB43:
 845              		.loc 1 61 0
 846 00f6 D9F80020 		ldr	r2, [r9, #0]
 847 00fa 42B1     		cbz	r2, .L72
 848 00fc 244C     		ldr	r4, .L107+36
 849              	.LVL102:
 850              	.L71:
 851              		.loc 1 62 0
 852 00fe 3046     		mov	r0, r6
ARM GAS  /tmp/ccYb2YOQ.s 			page 16


 853 0100 2549     		ldr	r1, .L107+44
 854 0102 FFF7FEFF 		bl	chprintf
 855              	.LVL103:
 856              		.loc 1 61 0
 857 0106 54F8082F 		ldr	r2, [r4, #8]!
 858 010a 002A     		cmp	r2, #0
 859 010c F7D1     		bne	.L71
 860              	.L72:
 861              	.LBE43:
 862              	.LBE55:
 863              		.loc 1 183 0
 864 010e B8F1000F 		cmp	r8, #0
 865 0112 0BD0     		beq	.L70
 866              	.LVL104:
 867              	.LBB56:
 868              	.LBB57:
 869              		.loc 1 61 0
 870 0114 D8F80020 		ldr	r2, [r8, #0]
 871 0118 42B1     		cbz	r2, .L70
 872 011a 4446     		mov	r4, r8
 873              	.LVL105:
 874              	.L73:
 875              		.loc 1 62 0
 876 011c 3046     		mov	r0, r6
 877 011e 1E49     		ldr	r1, .L107+44
 878 0120 FFF7FEFF 		bl	chprintf
 879              	.LVL106:
 880              		.loc 1 61 0
 881 0124 54F8082F 		ldr	r2, [r4, #8]!
 882 0128 002A     		cmp	r2, #0
 883 012a F7D1     		bne	.L73
 884              	.L70:
 885              	.LBE57:
 886              	.LBE56:
 887              		.loc 1 185 0
 888 012c 3046     		mov	r0, r6
 889 012e 1B49     		ldr	r1, .L107+48
 890 0130 FFF7FEFF 		bl	chprintf
 891              	.LVL107:
 892 0134 74E7     		b	.L100
 893              	.LVL108:
 894              	.L66:
 895              		.loc 1 187 0
 896 0136 B8F1000F 		cmp	r8, #0
 897 013a 0DD0     		beq	.L78
 898              	.LVL109:
 899              	.LBB58:
 900              	.LBB54:
 901              		.loc 1 121 0
 902 013c D8F80000 		ldr	r0, [r8, #0]
 903 0140 50B1     		cbz	r0, .L78
 904 0142 4546     		mov	r5, r8
 905 0144 02E0     		b	.L77
 906              	.LVL110:
 907              	.L76:
 908 0146 55F8080F 		ldr	r0, [r5, #8]!
 909              	.LVL111:
ARM GAS  /tmp/ccYb2YOQ.s 			page 17


 910 014a 28B1     		cbz	r0, .L78
 911              	.LVL112:
 912              	.L77:
 913              		.loc 1 122 0
 914 014c 3946     		mov	r1, r7
 915 014e FFF7FEFF 		bl	strcasecmp
 916              	.LVL113:
 917 0152 0028     		cmp	r0, #0
 918 0154 F7D1     		bne	.L76
 919 0156 C5E7     		b	.L102
 920              	.LVL114:
 921              	.L78:
 922              	.LBE54:
 923              	.LBE58:
 924              		.loc 1 189 0
 925 0158 3046     		mov	r0, r6
 926 015a 1149     		ldr	r1, .L107+52
 927 015c 3A46     		mov	r2, r7
 928 015e FFF7FEFF 		bl	chprintf
 929              	.LVL115:
 930              		.loc 1 190 0
 931 0162 3046     		mov	r0, r6
 932 0164 0F49     		ldr	r1, .L107+56
 933 0166 FFF7FEFF 		bl	chprintf
 934              	.LVL116:
 935 016a 59E7     		b	.L100
 936              	.L108:
 937              		.align	2
 938              	.L107:
 939 016c 00000000 		.word	rlist
 940 0170 98010000 		.word	.LC25
 941 0174 A0010000 		.word	.LC26
 942 0178 B8010000 		.word	.LC27
 943 017c E4010000 		.word	.LC30
 944 0180 04000000 		.word	.LC1
 945 0184 CC010000 		.word	.LC29
 946 0188 C0010000 		.word	.LC28
 947 018c EC010000 		.word	.LC31
 948 0190 00000000 		.word	.LANCHOR1
 949 0194 F4010000 		.word	.LC32
 950 0198 0C020000 		.word	.LC33
 951 019c 94010000 		.word	.LC24
 952 01a0 10020000 		.word	.LC34
 953 01a4 14020000 		.word	.LC35
 954              		.cfi_endproc
 955              	.LFE124:
 956              		.size	shell_thread, .-shell_thread
 957              		.global	shell_terminated
 958 01a8 AFF30080 		.section	.data.local_commands,"aw",%progbits
 958      AFF30080 
 959              		.align	2
 960              		.set	.LANCHOR1,. + 0
 961              		.type	local_commands, %object
 962              		.size	local_commands, 24
 963              	local_commands:
 964 0000 20000000 		.word	.LC4
 965 0004 00000000 		.word	cmd_info
ARM GAS  /tmp/ccYb2YOQ.s 			page 18


 966 0008 10000000 		.word	.LC2
 967 000c 00000000 		.word	cmd_systime
 968 0010 00000000 		.word	0
 969 0014 00000000 		.word	0
 970              		.section	.rodata.str1.4,"aMS",%progbits,1
 971              		.align	2
 972              	.LC0:
 973 0000 200900   		.ascii	" \011\000"
 974 0003 00       		.space	1
 975              	.LC1:
 976 0004 55736167 		.ascii	"Usage: %s\015\012\000"
 976      653A2025 
 976      730D0A00 
 977              	.LC2:
 978 0010 73797374 		.ascii	"systime\000"
 978      696D6500 
 979              	.LC3:
 980 0018 256C750D 		.ascii	"%lu\015\012\000"
 980      0A00
 981 001e 0000     		.space	2
 982              	.LC4:
 983 0020 696E666F 		.ascii	"info\000"
 983      00
 984 0025 000000   		.space	3
 985              	.LC5:
 986 0028 4B65726E 		.ascii	"Kernel:       %s\015\012\000"
 986      656C3A20 
 986      20202020 
 986      20202573 
 986      0D0A00
 987 003b 00       		.space	1
 988              	.LC6:
 989 003c 322E372E 		.ascii	"2.7.0unstable\000"
 989      30756E73 
 989      7461626C 
 989      6500
 990 004a 0000     		.space	2
 991              	.LC7:
 992 004c 436F6D70 		.ascii	"Compiler:     %s\015\012\000"
 992      696C6572 
 992      3A202020 
 992      20202573 
 992      0D0A00
 993 005f 00       		.space	1
 994              	.LC8:
 995 0060 47434320 		.ascii	"GCC 4.7.3\000"
 995      342E372E 
 995      3300
 996 006a 0000     		.space	2
 997              	.LC9:
 998 006c 41726368 		.ascii	"Architecture: %s\015\012\000"
 998      69746563 
 998      74757265 
 998      3A202573 
 998      0D0A00
 999 007f 00       		.space	1
 1000              	.LC10:
ARM GAS  /tmp/ccYb2YOQ.s 			page 19


 1001 0080 41524D76 		.ascii	"ARMv7-ME\000"
 1001      372D4D45 
 1001      00
 1002 0089 000000   		.space	3
 1003              	.LC11:
 1004 008c 436F7265 		.ascii	"Core Variant: %s\015\012\000"
 1004      20566172 
 1004      69616E74 
 1004      3A202573 
 1004      0D0A00
 1005 009f 00       		.space	1
 1006              	.LC12:
 1007 00a0 436F7274 		.ascii	"Cortex-M4\000"
 1007      65782D4D 
 1007      3400
 1008 00aa 0000     		.space	2
 1009              	.LC13:
 1010 00ac 506F7274 		.ascii	"Port Info:    %s\015\012\000"
 1010      20496E66 
 1010      6F3A2020 
 1010      20202573 
 1010      0D0A00
 1011 00bf 00       		.space	1
 1012              	.LC14:
 1013 00c0 41647661 		.ascii	"Advanced kernel mode\000"
 1013      6E636564 
 1013      206B6572 
 1013      6E656C20 
 1013      6D6F6465 
 1014 00d5 000000   		.space	3
 1015              	.LC15:
 1016 00d8 506C6174 		.ascii	"Platform:     %s\015\012\000"
 1016      666F726D 
 1016      3A202020 
 1016      20202573 
 1016      0D0A00
 1017 00eb 00       		.space	1
 1018              	.LC16:
 1019 00ec 53544D33 		.ascii	"STM32F407/F417 High Performance with DSP and FPU\000"
 1019      32463430 
 1019      372F4634 
 1019      31372048 
 1019      69676820 
 1020 011d 000000   		.space	3
 1021              	.LC17:
 1022 0120 426F6172 		.ascii	"Board:        %s\015\012\000"
 1022      643A2020 
 1022      20202020 
 1022      20202573 
 1022      0D0A00
 1023 0133 00       		.space	1
 1024              	.LC18:
 1025 0134 53544D69 		.ascii	"STMicroelectronics STM32F4-Discovery\000"
 1025      63726F65 
 1025      6C656374 
 1025      726F6E69 
 1025      63732053 
ARM GAS  /tmp/ccYb2YOQ.s 			page 20


 1026 0159 000000   		.space	3
 1027              	.LC19:
 1028 015c 4275696C 		.ascii	"Build time:   %s%s%s\015\012\000"
 1028      64207469 
 1028      6D653A20 
 1028      20202573 
 1028      25732573 
 1029 0173 00       		.space	1
 1030              	.LC20:
 1031 0174 4E6F7620 		.ascii	"Nov  5 2013\000"
 1031      20352032 
 1031      30313300 
 1032              	.LC21:
 1033 0180 202D2000 		.ascii	" - \000"
 1034              	.LC22:
 1035 0184 31383A30 		.ascii	"18:05:20\000"
 1035      353A3230 
 1035      00
 1036 018d 000000   		.space	3
 1037              	.LC23:
 1038 0190 5E4400   		.ascii	"^D\000"
 1039 0193 00       		.space	1
 1040              	.LC24:
 1041 0194 0D0A00   		.ascii	"\015\012\000"
 1042 0197 00       		.space	1
 1043              	.LC25:
 1044 0198 7368656C 		.ascii	"shell\000"
 1044      6C00
 1045 019e 0000     		.space	2
 1046              	.LC26:
 1047 01a0 0D0A4368 		.ascii	"\015\012ChibiOS/RT Shell\015\012\000"
 1047      6962694F 
 1047      532F5254 
 1047      20536865 
 1047      6C6C0D0A 
 1048 01b5 000000   		.space	3
 1049              	.LC27:
 1050 01b8 63683E20 		.ascii	"ch> \000"
 1050      00
 1051 01bd 000000   		.space	3
 1052              	.LC28:
 1053 01c0 0D0A6C6F 		.ascii	"\015\012logout\000"
 1053      676F7574 
 1053      00
 1054 01c9 000000   		.space	3
 1055              	.LC29:
 1056 01cc 746F6F20 		.ascii	"too many arguments\015\012\000"
 1056      6D616E79 
 1056      20617267 
 1056      756D656E 
 1056      74730D0A 
 1057 01e1 000000   		.space	3
 1058              	.LC30:
 1059 01e4 65786974 		.ascii	"exit\000"
 1059      00
 1060 01e9 000000   		.space	3
 1061              	.LC31:
ARM GAS  /tmp/ccYb2YOQ.s 			page 21


 1062 01ec 68656C70 		.ascii	"help\000"
 1062      00
 1063 01f1 000000   		.space	3
 1064              	.LC32:
 1065 01f4 436F6D6D 		.ascii	"Commands: help exit \000"
 1065      616E6473 
 1065      3A206865 
 1065      6C702065 
 1065      78697420 
 1066 0209 000000   		.space	3
 1067              	.LC33:
 1068 020c 25732000 		.ascii	"%s \000"
 1069              	.LC34:
 1070 0210 257300   		.ascii	"%s\000"
 1071 0213 00       		.space	1
 1072              	.LC35:
 1073 0214 203F0D0A 		.ascii	" ?\015\012\000"
 1073      00
 1074 0219 000000   		.section	.bss.shell_terminated,"aw",%nobits
 1075              		.align	2
 1076              		.set	.LANCHOR0,. + 0
 1077              		.type	shell_terminated, %object
 1078              		.size	shell_terminated, 4
 1079              	shell_terminated:
 1080 0000 00000000 		.space	4
 1081              		.text
 1082              	.Letext0:
 1083              		.file 2 "/home/dpeter/CodeSourcery/Sourcery_CodeBench_Lite_for_ARM_EABI/bin/../lib/gcc/arm-none-ea
 1084              		.file 3 "/home/dpeter/CodeSourcery/Sourcery_CodeBench_Lite_for_ARM_EABI/bin/../lib/gcc/arm-none-ea
 1085              		.file 4 "/home/dpeter/devel/sources/ChibiOS-RT/os/ports/GCC/ARMCMx/chtypes.h"
 1086              		.file 5 "/home/dpeter/devel/sources/ChibiOS-RT/os/kernel/include/chlists.h"
 1087              		.file 6 "/home/dpeter/devel/sources/ChibiOS-RT/os/kernel/include/chthreads.h"
 1088              		.file 7 "/home/dpeter/devel/sources/ChibiOS-RT/os/ports/GCC/ARMCMx/chcore_v7m.h"
 1089              		.file 8 "/home/dpeter/devel/sources/ChibiOS-RT/os/kernel/include/chvt.h"
 1090              		.file 9 "/home/dpeter/devel/sources/ChibiOS-RT/os/kernel/include/chschd.h"
 1091              		.file 10 "/home/dpeter/devel/sources/ChibiOS-RT/os/kernel/include/chmtx.h"
 1092              		.file 11 "/home/dpeter/devel/sources/ChibiOS-RT/os/kernel/include/chevents.h"
 1093              		.file 12 "/home/dpeter/devel/sources/ChibiOS-RT/os/kernel/include/chmemcore.h"
 1094              		.file 13 "/home/dpeter/devel/sources/ChibiOS-RT/os/kernel/include/chheap.h"
 1095              		.file 14 "/home/dpeter/devel/sources/ChibiOS-RT/os/kernel/include/chstreams.h"
 1096              		.file 15 "/home/dpeter/devel/sources/ChibiOS-RT/os/various/shell.h"
 1097              		.file 16 "/home/dpeter/devel/sources/ChibiOS-RT/os/ports/common/ARMCMx/CMSIS/include/core_cm4.h"
 1098              		.file 17 "/home/dpeter/CodeSourcery/Sourcery_CodeBench_Lite_for_ARM_EABI/bin/../lib/gcc/arm-none-e
 1099              		.file 18 "/home/dpeter/devel/sources/ChibiOS-RT/os/various/chprintf.h"
 1100              		.file 19 "/home/dpeter/devel/sources/ChibiOS-RT/os/kernel/include/chdynamic.h"