ARM GAS  /tmp/cciz4sjN.s 			page 1


   1              		.syntax unified
   2              		.cpu cortex-m4
   3              		.fpu softvfp
   4              		.eabi_attribute 20, 1
   5              		.eabi_attribute 21, 1
   6              		.eabi_attribute 23, 3
   7              		.eabi_attribute 24, 1
   8              		.eabi_attribute 25, 1
   9              		.eabi_attribute 26, 1
  10              		.eabi_attribute 30, 2
  11              		.eabi_attribute 34, 1
  12              		.eabi_attribute 18, 4
  13              		.thumb
  14              		.file	"stm32_dma.c"
  15              		.text
  16              	.Ltext0:
  17              		.cfi_sections	.debug_frame
  18              		.section	.text.Vector6C,"ax",%progbits
  19              		.align	2
  20              		.p2align 4,,15
  21              		.global	Vector6C
  22              		.thumb
  23              		.thumb_func
  24              		.type	Vector6C, %function
  25              	Vector6C:
  26              	.LFB118:
  27              		.file 1 "/home/dpeter/devel/sources/ChibiOS-RT/os/hal/platforms/STM32F4xx/stm32_dma.c"
  28              		.loc 1 128 0
  29              		.cfi_startproc
  30              		@ args = 0, pretend = 0, frame = 0
  31              		@ frame_needed = 0, uses_anonymous_args = 0
  32              		.loc 1 133 0
  33 0000 074B     		ldr	r3, .L7
  34              		.loc 1 135 0
  35 0002 0848     		ldr	r0, .L7+4
  36              		.loc 1 133 0
  37 0004 1968     		ldr	r1, [r3, #0]
  38              		.loc 1 135 0
  39 0006 0268     		ldr	r2, [r0, #0]
  40              		.loc 1 128 0
  41 0008 10B5     		push	{r4, lr}
  42              	.LCFI0:
  43              		.cfi_def_cfa_offset 8
  44              		.cfi_offset 4, -8
  45              		.cfi_offset 14, -4
  46              		.loc 1 134 0
  47 000a 3D24     		movs	r4, #61
  48              		.loc 1 133 0
  49 000c 01F03D01 		and	r1, r1, #61
  50              	.LVL0:
  51              		.loc 1 134 0
  52 0010 9C60     		str	r4, [r3, #8]
  53              		.loc 1 135 0
  54 0012 0AB1     		cbz	r2, .L2
  55              		.loc 1 136 0
  56 0014 4068     		ldr	r0, [r0, #4]
  57 0016 9047     		blx	r2
ARM GAS  /tmp/cciz4sjN.s 			page 2


  58              	.LVL1:
  59              	.L2:
  60              		.loc 1 139 0
  61 0018 BDE81040 		pop	{r4, lr}
  62              		.loc 1 138 0
  63 001c FFF7FEBF 		b	_port_irq_epilogue
  64              	.LVL2:
  65              	.L8:
  66              		.align	2
  67              	.L7:
  68 0020 00600240 		.word	1073897472
  69 0024 00000000 		.word	.LANCHOR0
  70              		.cfi_endproc
  71              	.LFE118:
  72              		.size	Vector6C, .-Vector6C
  73 0028 AFF30080 		.section	.text.Vector70,"ax",%progbits
  73      AFF30080 
  74              		.align	2
  75              		.p2align 4,,15
  76              		.global	Vector70
  77              		.thumb
  78              		.thumb_func
  79              		.type	Vector70, %function
  80              	Vector70:
  81              	.LFB119:
  82              		.loc 1 146 0
  83              		.cfi_startproc
  84              		@ args = 0, pretend = 0, frame = 0
  85              		@ frame_needed = 0, uses_anonymous_args = 0
  86              		.loc 1 151 0
  87 0000 084B     		ldr	r3, .L14
  88              		.loc 1 153 0
  89 0002 0948     		ldr	r0, .L14+4
  90              		.loc 1 151 0
  91 0004 1968     		ldr	r1, [r3, #0]
  92              		.loc 1 153 0
  93 0006 8268     		ldr	r2, [r0, #8]
  94              		.loc 1 146 0
  95 0008 10B5     		push	{r4, lr}
  96              	.LCFI1:
  97              		.cfi_def_cfa_offset 8
  98              		.cfi_offset 4, -8
  99              		.cfi_offset 14, -4
 100              		.loc 1 151 0
 101 000a 8909     		lsrs	r1, r1, #6
 102              		.loc 1 152 0
 103 000c 4FF47464 		mov	r4, #3904
 104              		.loc 1 151 0
 105 0010 01F03D01 		and	r1, r1, #61
 106              	.LVL3:
 107              		.loc 1 152 0
 108 0014 9C60     		str	r4, [r3, #8]
 109              		.loc 1 153 0
 110 0016 0AB1     		cbz	r2, .L10
 111              		.loc 1 154 0
 112 0018 C068     		ldr	r0, [r0, #12]
 113 001a 9047     		blx	r2
ARM GAS  /tmp/cciz4sjN.s 			page 3


 114              	.LVL4:
 115              	.L10:
 116              		.loc 1 157 0
 117 001c BDE81040 		pop	{r4, lr}
 118              		.loc 1 156 0
 119 0020 FFF7FEBF 		b	_port_irq_epilogue
 120              	.LVL5:
 121              	.L15:
 122              		.align	2
 123              	.L14:
 124 0024 00600240 		.word	1073897472
 125 0028 00000000 		.word	.LANCHOR0
 126              		.cfi_endproc
 127              	.LFE119:
 128              		.size	Vector70, .-Vector70
 129 002c AFF30080 		.section	.text.Vector74,"ax",%progbits
 130              		.align	2
 131              		.p2align 4,,15
 132              		.global	Vector74
 133              		.thumb
 134              		.thumb_func
 135              		.type	Vector74, %function
 136              	Vector74:
 137              	.LFB120:
 138              		.loc 1 164 0
 139              		.cfi_startproc
 140              		@ args = 0, pretend = 0, frame = 0
 141              		@ frame_needed = 0, uses_anonymous_args = 0
 142              		.loc 1 169 0
 143 0000 084B     		ldr	r3, .L21
 144              		.loc 1 171 0
 145 0002 0948     		ldr	r0, .L21+4
 146              		.loc 1 169 0
 147 0004 1968     		ldr	r1, [r3, #0]
 148              		.loc 1 171 0
 149 0006 0269     		ldr	r2, [r0, #16]
 150              		.loc 1 164 0
 151 0008 10B5     		push	{r4, lr}
 152              	.LCFI2:
 153              		.cfi_def_cfa_offset 8
 154              		.cfi_offset 4, -8
 155              		.cfi_offset 14, -4
 156              		.loc 1 169 0
 157 000a 090C     		lsrs	r1, r1, #16
 158              		.loc 1 170 0
 159 000c 4FF47414 		mov	r4, #3997696
 160              		.loc 1 169 0
 161 0010 01F03D01 		and	r1, r1, #61
 162              	.LVL6:
 163              		.loc 1 170 0
 164 0014 9C60     		str	r4, [r3, #8]
 165              		.loc 1 171 0
 166 0016 0AB1     		cbz	r2, .L17
 167              		.loc 1 172 0
 168 0018 4069     		ldr	r0, [r0, #20]
 169 001a 9047     		blx	r2
 170              	.LVL7:
ARM GAS  /tmp/cciz4sjN.s 			page 4


 171              	.L17:
 172              		.loc 1 175 0
 173 001c BDE81040 		pop	{r4, lr}
 174              		.loc 1 174 0
 175 0020 FFF7FEBF 		b	_port_irq_epilogue
 176              	.LVL8:
 177              	.L22:
 178              		.align	2
 179              	.L21:
 180 0024 00600240 		.word	1073897472
 181 0028 00000000 		.word	.LANCHOR0
 182              		.cfi_endproc
 183              	.LFE120:
 184              		.size	Vector74, .-Vector74
 185 002c AFF30080 		.section	.text.Vector78,"ax",%progbits
 186              		.align	2
 187              		.p2align 4,,15
 188              		.global	Vector78
 189              		.thumb
 190              		.thumb_func
 191              		.type	Vector78, %function
 192              	Vector78:
 193              	.LFB121:
 194              		.loc 1 182 0
 195              		.cfi_startproc
 196              		@ args = 0, pretend = 0, frame = 0
 197              		@ frame_needed = 0, uses_anonymous_args = 0
 198              		.loc 1 187 0
 199 0000 084B     		ldr	r3, .L28
 200              		.loc 1 189 0
 201 0002 0948     		ldr	r0, .L28+4
 202              		.loc 1 187 0
 203 0004 1968     		ldr	r1, [r3, #0]
 204              		.loc 1 189 0
 205 0006 8269     		ldr	r2, [r0, #24]
 206              		.loc 1 182 0
 207 0008 10B5     		push	{r4, lr}
 208              	.LCFI3:
 209              		.cfi_def_cfa_offset 8
 210              		.cfi_offset 4, -8
 211              		.cfi_offset 14, -4
 212              		.loc 1 187 0
 213 000a 890D     		lsrs	r1, r1, #22
 214              		.loc 1 188 0
 215 000c 4FF07464 		mov	r4, #255852544
 216              		.loc 1 187 0
 217 0010 01F03D01 		and	r1, r1, #61
 218              	.LVL9:
 219              		.loc 1 188 0
 220 0014 9C60     		str	r4, [r3, #8]
 221              		.loc 1 189 0
 222 0016 0AB1     		cbz	r2, .L24
 223              		.loc 1 190 0
 224 0018 C069     		ldr	r0, [r0, #28]
 225 001a 9047     		blx	r2
 226              	.LVL10:
 227              	.L24:
ARM GAS  /tmp/cciz4sjN.s 			page 5


 228              		.loc 1 193 0
 229 001c BDE81040 		pop	{r4, lr}
 230              		.loc 1 192 0
 231 0020 FFF7FEBF 		b	_port_irq_epilogue
 232              	.LVL11:
 233              	.L29:
 234              		.align	2
 235              	.L28:
 236 0024 00600240 		.word	1073897472
 237 0028 00000000 		.word	.LANCHOR0
 238              		.cfi_endproc
 239              	.LFE121:
 240              		.size	Vector78, .-Vector78
 241 002c AFF30080 		.section	.text.Vector7C,"ax",%progbits
 242              		.align	2
 243              		.p2align 4,,15
 244              		.global	Vector7C
 245              		.thumb
 246              		.thumb_func
 247              		.type	Vector7C, %function
 248              	Vector7C:
 249              	.LFB122:
 250              		.loc 1 200 0
 251              		.cfi_startproc
 252              		@ args = 0, pretend = 0, frame = 0
 253              		@ frame_needed = 0, uses_anonymous_args = 0
 254              		.loc 1 205 0
 255 0000 074B     		ldr	r3, .L35
 256              		.loc 1 207 0
 257 0002 0848     		ldr	r0, .L35+4
 258              		.loc 1 205 0
 259 0004 5968     		ldr	r1, [r3, #4]
 260              		.loc 1 207 0
 261 0006 026A     		ldr	r2, [r0, #32]
 262              		.loc 1 200 0
 263 0008 10B5     		push	{r4, lr}
 264              	.LCFI4:
 265              		.cfi_def_cfa_offset 8
 266              		.cfi_offset 4, -8
 267              		.cfi_offset 14, -4
 268              		.loc 1 206 0
 269 000a 3D24     		movs	r4, #61
 270              		.loc 1 205 0
 271 000c 01F03D01 		and	r1, r1, #61
 272              	.LVL12:
 273              		.loc 1 206 0
 274 0010 DC60     		str	r4, [r3, #12]
 275              		.loc 1 207 0
 276 0012 0AB1     		cbz	r2, .L31
 277              		.loc 1 208 0
 278 0014 406A     		ldr	r0, [r0, #36]
 279 0016 9047     		blx	r2
 280              	.LVL13:
 281              	.L31:
 282              		.loc 1 211 0
 283 0018 BDE81040 		pop	{r4, lr}
 284              		.loc 1 210 0
ARM GAS  /tmp/cciz4sjN.s 			page 6


 285 001c FFF7FEBF 		b	_port_irq_epilogue
 286              	.LVL14:
 287              	.L36:
 288              		.align	2
 289              	.L35:
 290 0020 00600240 		.word	1073897472
 291 0024 00000000 		.word	.LANCHOR0
 292              		.cfi_endproc
 293              	.LFE122:
 294              		.size	Vector7C, .-Vector7C
 295 0028 AFF30080 		.section	.text.Vector80,"ax",%progbits
 295      AFF30080 
 296              		.align	2
 297              		.p2align 4,,15
 298              		.global	Vector80
 299              		.thumb
 300              		.thumb_func
 301              		.type	Vector80, %function
 302              	Vector80:
 303              	.LFB123:
 304              		.loc 1 218 0
 305              		.cfi_startproc
 306              		@ args = 0, pretend = 0, frame = 0
 307              		@ frame_needed = 0, uses_anonymous_args = 0
 308              		.loc 1 223 0
 309 0000 084B     		ldr	r3, .L42
 310              		.loc 1 225 0
 311 0002 0948     		ldr	r0, .L42+4
 312              		.loc 1 223 0
 313 0004 5968     		ldr	r1, [r3, #4]
 314              		.loc 1 225 0
 315 0006 826A     		ldr	r2, [r0, #40]
 316              		.loc 1 218 0
 317 0008 10B5     		push	{r4, lr}
 318              	.LCFI5:
 319              		.cfi_def_cfa_offset 8
 320              		.cfi_offset 4, -8
 321              		.cfi_offset 14, -4
 322              		.loc 1 223 0
 323 000a 8909     		lsrs	r1, r1, #6
 324              		.loc 1 224 0
 325 000c 4FF47464 		mov	r4, #3904
 326              		.loc 1 223 0
 327 0010 01F03D01 		and	r1, r1, #61
 328              	.LVL15:
 329              		.loc 1 224 0
 330 0014 DC60     		str	r4, [r3, #12]
 331              		.loc 1 225 0
 332 0016 0AB1     		cbz	r2, .L38
 333              		.loc 1 226 0
 334 0018 C06A     		ldr	r0, [r0, #44]
 335 001a 9047     		blx	r2
 336              	.LVL16:
 337              	.L38:
 338              		.loc 1 229 0
 339 001c BDE81040 		pop	{r4, lr}
 340              		.loc 1 228 0
ARM GAS  /tmp/cciz4sjN.s 			page 7


 341 0020 FFF7FEBF 		b	_port_irq_epilogue
 342              	.LVL17:
 343              	.L43:
 344              		.align	2
 345              	.L42:
 346 0024 00600240 		.word	1073897472
 347 0028 00000000 		.word	.LANCHOR0
 348              		.cfi_endproc
 349              	.LFE123:
 350              		.size	Vector80, .-Vector80
 351 002c AFF30080 		.section	.text.Vector84,"ax",%progbits
 352              		.align	2
 353              		.p2align 4,,15
 354              		.global	Vector84
 355              		.thumb
 356              		.thumb_func
 357              		.type	Vector84, %function
 358              	Vector84:
 359              	.LFB124:
 360              		.loc 1 236 0
 361              		.cfi_startproc
 362              		@ args = 0, pretend = 0, frame = 0
 363              		@ frame_needed = 0, uses_anonymous_args = 0
 364              		.loc 1 241 0
 365 0000 084B     		ldr	r3, .L49
 366              		.loc 1 243 0
 367 0002 0948     		ldr	r0, .L49+4
 368              		.loc 1 241 0
 369 0004 5968     		ldr	r1, [r3, #4]
 370              		.loc 1 243 0
 371 0006 026B     		ldr	r2, [r0, #48]
 372              		.loc 1 236 0
 373 0008 10B5     		push	{r4, lr}
 374              	.LCFI6:
 375              		.cfi_def_cfa_offset 8
 376              		.cfi_offset 4, -8
 377              		.cfi_offset 14, -4
 378              		.loc 1 241 0
 379 000a 090C     		lsrs	r1, r1, #16
 380              		.loc 1 242 0
 381 000c 4FF47414 		mov	r4, #3997696
 382              		.loc 1 241 0
 383 0010 01F03D01 		and	r1, r1, #61
 384              	.LVL18:
 385              		.loc 1 242 0
 386 0014 DC60     		str	r4, [r3, #12]
 387              		.loc 1 243 0
 388 0016 0AB1     		cbz	r2, .L45
 389              		.loc 1 244 0
 390 0018 406B     		ldr	r0, [r0, #52]
 391 001a 9047     		blx	r2
 392              	.LVL19:
 393              	.L45:
 394              		.loc 1 247 0
 395 001c BDE81040 		pop	{r4, lr}
 396              		.loc 1 246 0
 397 0020 FFF7FEBF 		b	_port_irq_epilogue
ARM GAS  /tmp/cciz4sjN.s 			page 8


 398              	.LVL20:
 399              	.L50:
 400              		.align	2
 401              	.L49:
 402 0024 00600240 		.word	1073897472
 403 0028 00000000 		.word	.LANCHOR0
 404              		.cfi_endproc
 405              	.LFE124:
 406              		.size	Vector84, .-Vector84
 407 002c AFF30080 		.section	.text.VectorFC,"ax",%progbits
 408              		.align	2
 409              		.p2align 4,,15
 410              		.global	VectorFC
 411              		.thumb
 412              		.thumb_func
 413              		.type	VectorFC, %function
 414              	VectorFC:
 415              	.LFB125:
 416              		.loc 1 254 0
 417              		.cfi_startproc
 418              		@ args = 0, pretend = 0, frame = 0
 419              		@ frame_needed = 0, uses_anonymous_args = 0
 420              		.loc 1 259 0
 421 0000 084B     		ldr	r3, .L56
 422              		.loc 1 261 0
 423 0002 0948     		ldr	r0, .L56+4
 424              		.loc 1 259 0
 425 0004 5968     		ldr	r1, [r3, #4]
 426              		.loc 1 261 0
 427 0006 826B     		ldr	r2, [r0, #56]
 428              		.loc 1 254 0
 429 0008 10B5     		push	{r4, lr}
 430              	.LCFI7:
 431              		.cfi_def_cfa_offset 8
 432              		.cfi_offset 4, -8
 433              		.cfi_offset 14, -4
 434              		.loc 1 259 0
 435 000a 890D     		lsrs	r1, r1, #22
 436              		.loc 1 260 0
 437 000c 4FF07464 		mov	r4, #255852544
 438              		.loc 1 259 0
 439 0010 01F03D01 		and	r1, r1, #61
 440              	.LVL21:
 441              		.loc 1 260 0
 442 0014 DC60     		str	r4, [r3, #12]
 443              		.loc 1 261 0
 444 0016 0AB1     		cbz	r2, .L52
 445              		.loc 1 262 0
 446 0018 C06B     		ldr	r0, [r0, #60]
 447 001a 9047     		blx	r2
 448              	.LVL22:
 449              	.L52:
 450              		.loc 1 265 0
 451 001c BDE81040 		pop	{r4, lr}
 452              		.loc 1 264 0
 453 0020 FFF7FEBF 		b	_port_irq_epilogue
 454              	.LVL23:
ARM GAS  /tmp/cciz4sjN.s 			page 9


 455              	.L57:
 456              		.align	2
 457              	.L56:
 458 0024 00600240 		.word	1073897472
 459 0028 00000000 		.word	.LANCHOR0
 460              		.cfi_endproc
 461              	.LFE125:
 462              		.size	VectorFC, .-VectorFC
 463 002c AFF30080 		.section	.text.Vector120,"ax",%progbits
 464              		.align	2
 465              		.p2align 4,,15
 466              		.global	Vector120
 467              		.thumb
 468              		.thumb_func
 469              		.type	Vector120, %function
 470              	Vector120:
 471              	.LFB126:
 472              		.loc 1 272 0
 473              		.cfi_startproc
 474              		@ args = 0, pretend = 0, frame = 0
 475              		@ frame_needed = 0, uses_anonymous_args = 0
 476              		.loc 1 277 0
 477 0000 074B     		ldr	r3, .L63
 478              		.loc 1 279 0
 479 0002 0848     		ldr	r0, .L63+4
 480              		.loc 1 277 0
 481 0004 1968     		ldr	r1, [r3, #0]
 482              		.loc 1 279 0
 483 0006 026C     		ldr	r2, [r0, #64]
 484              		.loc 1 272 0
 485 0008 10B5     		push	{r4, lr}
 486              	.LCFI8:
 487              		.cfi_def_cfa_offset 8
 488              		.cfi_offset 4, -8
 489              		.cfi_offset 14, -4
 490              		.loc 1 278 0
 491 000a 3D24     		movs	r4, #61
 492              		.loc 1 277 0
 493 000c 01F03D01 		and	r1, r1, #61
 494              	.LVL24:
 495              		.loc 1 278 0
 496 0010 9C60     		str	r4, [r3, #8]
 497              		.loc 1 279 0
 498 0012 0AB1     		cbz	r2, .L59
 499              		.loc 1 280 0
 500 0014 406C     		ldr	r0, [r0, #68]
 501 0016 9047     		blx	r2
 502              	.LVL25:
 503              	.L59:
 504              		.loc 1 283 0
 505 0018 BDE81040 		pop	{r4, lr}
 506              		.loc 1 282 0
 507 001c FFF7FEBF 		b	_port_irq_epilogue
 508              	.LVL26:
 509              	.L64:
 510              		.align	2
 511              	.L63:
ARM GAS  /tmp/cciz4sjN.s 			page 10


 512 0020 00640240 		.word	1073898496
 513 0024 00000000 		.word	.LANCHOR0
 514              		.cfi_endproc
 515              	.LFE126:
 516              		.size	Vector120, .-Vector120
 517 0028 AFF30080 		.section	.text.Vector124,"ax",%progbits
 517      AFF30080 
 518              		.align	2
 519              		.p2align 4,,15
 520              		.global	Vector124
 521              		.thumb
 522              		.thumb_func
 523              		.type	Vector124, %function
 524              	Vector124:
 525              	.LFB127:
 526              		.loc 1 290 0
 527              		.cfi_startproc
 528              		@ args = 0, pretend = 0, frame = 0
 529              		@ frame_needed = 0, uses_anonymous_args = 0
 530              		.loc 1 295 0
 531 0000 084B     		ldr	r3, .L70
 532              		.loc 1 297 0
 533 0002 0948     		ldr	r0, .L70+4
 534              		.loc 1 295 0
 535 0004 1968     		ldr	r1, [r3, #0]
 536              		.loc 1 297 0
 537 0006 826C     		ldr	r2, [r0, #72]
 538              		.loc 1 290 0
 539 0008 10B5     		push	{r4, lr}
 540              	.LCFI9:
 541              		.cfi_def_cfa_offset 8
 542              		.cfi_offset 4, -8
 543              		.cfi_offset 14, -4
 544              		.loc 1 295 0
 545 000a 8909     		lsrs	r1, r1, #6
 546              		.loc 1 296 0
 547 000c 4FF47464 		mov	r4, #3904
 548              		.loc 1 295 0
 549 0010 01F03D01 		and	r1, r1, #61
 550              	.LVL27:
 551              		.loc 1 296 0
 552 0014 9C60     		str	r4, [r3, #8]
 553              		.loc 1 297 0
 554 0016 0AB1     		cbz	r2, .L66
 555              		.loc 1 298 0
 556 0018 C06C     		ldr	r0, [r0, #76]
 557 001a 9047     		blx	r2
 558              	.LVL28:
 559              	.L66:
 560              		.loc 1 301 0
 561 001c BDE81040 		pop	{r4, lr}
 562              		.loc 1 300 0
 563 0020 FFF7FEBF 		b	_port_irq_epilogue
 564              	.LVL29:
 565              	.L71:
 566              		.align	2
 567              	.L70:
ARM GAS  /tmp/cciz4sjN.s 			page 11


 568 0024 00640240 		.word	1073898496
 569 0028 00000000 		.word	.LANCHOR0
 570              		.cfi_endproc
 571              	.LFE127:
 572              		.size	Vector124, .-Vector124
 573 002c AFF30080 		.section	.text.Vector128,"ax",%progbits
 574              		.align	2
 575              		.p2align 4,,15
 576              		.global	Vector128
 577              		.thumb
 578              		.thumb_func
 579              		.type	Vector128, %function
 580              	Vector128:
 581              	.LFB128:
 582              		.loc 1 308 0
 583              		.cfi_startproc
 584              		@ args = 0, pretend = 0, frame = 0
 585              		@ frame_needed = 0, uses_anonymous_args = 0
 586              		.loc 1 313 0
 587 0000 084B     		ldr	r3, .L77
 588              		.loc 1 315 0
 589 0002 0948     		ldr	r0, .L77+4
 590              		.loc 1 313 0
 591 0004 1968     		ldr	r1, [r3, #0]
 592              		.loc 1 315 0
 593 0006 026D     		ldr	r2, [r0, #80]
 594              		.loc 1 308 0
 595 0008 10B5     		push	{r4, lr}
 596              	.LCFI10:
 597              		.cfi_def_cfa_offset 8
 598              		.cfi_offset 4, -8
 599              		.cfi_offset 14, -4
 600              		.loc 1 313 0
 601 000a 090C     		lsrs	r1, r1, #16
 602              		.loc 1 314 0
 603 000c 4FF47414 		mov	r4, #3997696
 604              		.loc 1 313 0
 605 0010 01F03D01 		and	r1, r1, #61
 606              	.LVL30:
 607              		.loc 1 314 0
 608 0014 9C60     		str	r4, [r3, #8]
 609              		.loc 1 315 0
 610 0016 0AB1     		cbz	r2, .L73
 611              		.loc 1 316 0
 612 0018 406D     		ldr	r0, [r0, #84]
 613 001a 9047     		blx	r2
 614              	.LVL31:
 615              	.L73:
 616              		.loc 1 319 0
 617 001c BDE81040 		pop	{r4, lr}
 618              		.loc 1 318 0
 619 0020 FFF7FEBF 		b	_port_irq_epilogue
 620              	.LVL32:
 621              	.L78:
 622              		.align	2
 623              	.L77:
 624 0024 00640240 		.word	1073898496
ARM GAS  /tmp/cciz4sjN.s 			page 12


 625 0028 00000000 		.word	.LANCHOR0
 626              		.cfi_endproc
 627              	.LFE128:
 628              		.size	Vector128, .-Vector128
 629 002c AFF30080 		.section	.text.Vector12C,"ax",%progbits
 630              		.align	2
 631              		.p2align 4,,15
 632              		.global	Vector12C
 633              		.thumb
 634              		.thumb_func
 635              		.type	Vector12C, %function
 636              	Vector12C:
 637              	.LFB129:
 638              		.loc 1 326 0
 639              		.cfi_startproc
 640              		@ args = 0, pretend = 0, frame = 0
 641              		@ frame_needed = 0, uses_anonymous_args = 0
 642              		.loc 1 331 0
 643 0000 084B     		ldr	r3, .L84
 644              		.loc 1 333 0
 645 0002 0948     		ldr	r0, .L84+4
 646              		.loc 1 331 0
 647 0004 1968     		ldr	r1, [r3, #0]
 648              		.loc 1 333 0
 649 0006 826D     		ldr	r2, [r0, #88]
 650              		.loc 1 326 0
 651 0008 10B5     		push	{r4, lr}
 652              	.LCFI11:
 653              		.cfi_def_cfa_offset 8
 654              		.cfi_offset 4, -8
 655              		.cfi_offset 14, -4
 656              		.loc 1 331 0
 657 000a 890D     		lsrs	r1, r1, #22
 658              		.loc 1 332 0
 659 000c 4FF07464 		mov	r4, #255852544
 660              		.loc 1 331 0
 661 0010 01F03D01 		and	r1, r1, #61
 662              	.LVL33:
 663              		.loc 1 332 0
 664 0014 9C60     		str	r4, [r3, #8]
 665              		.loc 1 333 0
 666 0016 0AB1     		cbz	r2, .L80
 667              		.loc 1 334 0
 668 0018 C06D     		ldr	r0, [r0, #92]
 669 001a 9047     		blx	r2
 670              	.LVL34:
 671              	.L80:
 672              		.loc 1 337 0
 673 001c BDE81040 		pop	{r4, lr}
 674              		.loc 1 336 0
 675 0020 FFF7FEBF 		b	_port_irq_epilogue
 676              	.LVL35:
 677              	.L85:
 678              		.align	2
 679              	.L84:
 680 0024 00640240 		.word	1073898496
 681 0028 00000000 		.word	.LANCHOR0
ARM GAS  /tmp/cciz4sjN.s 			page 13


 682              		.cfi_endproc
 683              	.LFE129:
 684              		.size	Vector12C, .-Vector12C
 685 002c AFF30080 		.section	.text.Vector130,"ax",%progbits
 686              		.align	2
 687              		.p2align 4,,15
 688              		.global	Vector130
 689              		.thumb
 690              		.thumb_func
 691              		.type	Vector130, %function
 692              	Vector130:
 693              	.LFB130:
 694              		.loc 1 344 0
 695              		.cfi_startproc
 696              		@ args = 0, pretend = 0, frame = 0
 697              		@ frame_needed = 0, uses_anonymous_args = 0
 698              		.loc 1 349 0
 699 0000 074B     		ldr	r3, .L91
 700              		.loc 1 351 0
 701 0002 0848     		ldr	r0, .L91+4
 702              		.loc 1 349 0
 703 0004 5968     		ldr	r1, [r3, #4]
 704              		.loc 1 351 0
 705 0006 026E     		ldr	r2, [r0, #96]
 706              		.loc 1 344 0
 707 0008 10B5     		push	{r4, lr}
 708              	.LCFI12:
 709              		.cfi_def_cfa_offset 8
 710              		.cfi_offset 4, -8
 711              		.cfi_offset 14, -4
 712              		.loc 1 350 0
 713 000a 3D24     		movs	r4, #61
 714              		.loc 1 349 0
 715 000c 01F03D01 		and	r1, r1, #61
 716              	.LVL36:
 717              		.loc 1 350 0
 718 0010 DC60     		str	r4, [r3, #12]
 719              		.loc 1 351 0
 720 0012 0AB1     		cbz	r2, .L87
 721              		.loc 1 352 0
 722 0014 406E     		ldr	r0, [r0, #100]
 723 0016 9047     		blx	r2
 724              	.LVL37:
 725              	.L87:
 726              		.loc 1 355 0
 727 0018 BDE81040 		pop	{r4, lr}
 728              		.loc 1 354 0
 729 001c FFF7FEBF 		b	_port_irq_epilogue
 730              	.LVL38:
 731              	.L92:
 732              		.align	2
 733              	.L91:
 734 0020 00640240 		.word	1073898496
 735 0024 00000000 		.word	.LANCHOR0
 736              		.cfi_endproc
 737              	.LFE130:
 738              		.size	Vector130, .-Vector130
ARM GAS  /tmp/cciz4sjN.s 			page 14


 739 0028 AFF30080 		.section	.text.Vector150,"ax",%progbits
 739      AFF30080 
 740              		.align	2
 741              		.p2align 4,,15
 742              		.global	Vector150
 743              		.thumb
 744              		.thumb_func
 745              		.type	Vector150, %function
 746              	Vector150:
 747              	.LFB131:
 748              		.loc 1 362 0
 749              		.cfi_startproc
 750              		@ args = 0, pretend = 0, frame = 0
 751              		@ frame_needed = 0, uses_anonymous_args = 0
 752              		.loc 1 367 0
 753 0000 084B     		ldr	r3, .L98
 754              		.loc 1 369 0
 755 0002 0948     		ldr	r0, .L98+4
 756              		.loc 1 367 0
 757 0004 5968     		ldr	r1, [r3, #4]
 758              		.loc 1 369 0
 759 0006 826E     		ldr	r2, [r0, #104]
 760              		.loc 1 362 0
 761 0008 10B5     		push	{r4, lr}
 762              	.LCFI13:
 763              		.cfi_def_cfa_offset 8
 764              		.cfi_offset 4, -8
 765              		.cfi_offset 14, -4
 766              		.loc 1 367 0
 767 000a 8909     		lsrs	r1, r1, #6
 768              		.loc 1 368 0
 769 000c 4FF47464 		mov	r4, #3904
 770              		.loc 1 367 0
 771 0010 01F03D01 		and	r1, r1, #61
 772              	.LVL39:
 773              		.loc 1 368 0
 774 0014 DC60     		str	r4, [r3, #12]
 775              		.loc 1 369 0
 776 0016 0AB1     		cbz	r2, .L94
 777              		.loc 1 370 0
 778 0018 C06E     		ldr	r0, [r0, #108]
 779 001a 9047     		blx	r2
 780              	.LVL40:
 781              	.L94:
 782              		.loc 1 373 0
 783 001c BDE81040 		pop	{r4, lr}
 784              		.loc 1 372 0
 785 0020 FFF7FEBF 		b	_port_irq_epilogue
 786              	.LVL41:
 787              	.L99:
 788              		.align	2
 789              	.L98:
 790 0024 00640240 		.word	1073898496
 791 0028 00000000 		.word	.LANCHOR0
 792              		.cfi_endproc
 793              	.LFE131:
 794              		.size	Vector150, .-Vector150
ARM GAS  /tmp/cciz4sjN.s 			page 15


 795 002c AFF30080 		.section	.text.Vector154,"ax",%progbits
 796              		.align	2
 797              		.p2align 4,,15
 798              		.global	Vector154
 799              		.thumb
 800              		.thumb_func
 801              		.type	Vector154, %function
 802              	Vector154:
 803              	.LFB132:
 804              		.loc 1 380 0
 805              		.cfi_startproc
 806              		@ args = 0, pretend = 0, frame = 0
 807              		@ frame_needed = 0, uses_anonymous_args = 0
 808              		.loc 1 385 0
 809 0000 084B     		ldr	r3, .L105
 810              		.loc 1 387 0
 811 0002 0948     		ldr	r0, .L105+4
 812              		.loc 1 385 0
 813 0004 5968     		ldr	r1, [r3, #4]
 814              		.loc 1 387 0
 815 0006 026F     		ldr	r2, [r0, #112]
 816              		.loc 1 380 0
 817 0008 10B5     		push	{r4, lr}
 818              	.LCFI14:
 819              		.cfi_def_cfa_offset 8
 820              		.cfi_offset 4, -8
 821              		.cfi_offset 14, -4
 822              		.loc 1 385 0
 823 000a 090C     		lsrs	r1, r1, #16
 824              		.loc 1 386 0
 825 000c 4FF47414 		mov	r4, #3997696
 826              		.loc 1 385 0
 827 0010 01F03D01 		and	r1, r1, #61
 828              	.LVL42:
 829              		.loc 1 386 0
 830 0014 DC60     		str	r4, [r3, #12]
 831              		.loc 1 387 0
 832 0016 0AB1     		cbz	r2, .L101
 833              		.loc 1 388 0
 834 0018 406F     		ldr	r0, [r0, #116]
 835 001a 9047     		blx	r2
 836              	.LVL43:
 837              	.L101:
 838              		.loc 1 391 0
 839 001c BDE81040 		pop	{r4, lr}
 840              		.loc 1 390 0
 841 0020 FFF7FEBF 		b	_port_irq_epilogue
 842              	.LVL44:
 843              	.L106:
 844              		.align	2
 845              	.L105:
 846 0024 00640240 		.word	1073898496
 847 0028 00000000 		.word	.LANCHOR0
 848              		.cfi_endproc
 849              	.LFE132:
 850              		.size	Vector154, .-Vector154
 851 002c AFF30080 		.section	.text.Vector158,"ax",%progbits
ARM GAS  /tmp/cciz4sjN.s 			page 16


 852              		.align	2
 853              		.p2align 4,,15
 854              		.global	Vector158
 855              		.thumb
 856              		.thumb_func
 857              		.type	Vector158, %function
 858              	Vector158:
 859              	.LFB133:
 860              		.loc 1 398 0
 861              		.cfi_startproc
 862              		@ args = 0, pretend = 0, frame = 0
 863              		@ frame_needed = 0, uses_anonymous_args = 0
 864              		.loc 1 403 0
 865 0000 084B     		ldr	r3, .L112
 866              		.loc 1 405 0
 867 0002 0948     		ldr	r0, .L112+4
 868              		.loc 1 403 0
 869 0004 5968     		ldr	r1, [r3, #4]
 870              		.loc 1 405 0
 871 0006 826F     		ldr	r2, [r0, #120]
 872              		.loc 1 398 0
 873 0008 10B5     		push	{r4, lr}
 874              	.LCFI15:
 875              		.cfi_def_cfa_offset 8
 876              		.cfi_offset 4, -8
 877              		.cfi_offset 14, -4
 878              		.loc 1 403 0
 879 000a 890D     		lsrs	r1, r1, #22
 880              		.loc 1 404 0
 881 000c 4FF07464 		mov	r4, #255852544
 882              		.loc 1 403 0
 883 0010 01F03D01 		and	r1, r1, #61
 884              	.LVL45:
 885              		.loc 1 404 0
 886 0014 DC60     		str	r4, [r3, #12]
 887              		.loc 1 405 0
 888 0016 0AB1     		cbz	r2, .L108
 889              		.loc 1 406 0
 890 0018 C06F     		ldr	r0, [r0, #124]
 891 001a 9047     		blx	r2
 892              	.LVL46:
 893              	.L108:
 894              		.loc 1 409 0
 895 001c BDE81040 		pop	{r4, lr}
 896              		.loc 1 408 0
 897 0020 FFF7FEBF 		b	_port_irq_epilogue
 898              	.LVL47:
 899              	.L113:
 900              		.align	2
 901              	.L112:
 902 0024 00640240 		.word	1073898496
 903 0028 00000000 		.word	.LANCHOR0
 904              		.cfi_endproc
 905              	.LFE133:
 906              		.size	Vector158, .-Vector158
 907 002c AFF30080 		.section	.text.dmaInit,"ax",%progbits
 908              		.align	2
ARM GAS  /tmp/cciz4sjN.s 			page 17


 909              		.p2align 4,,15
 910              		.global	dmaInit
 911              		.thumb
 912              		.thumb_func
 913              		.type	dmaInit, %function
 914              	dmaInit:
 915              	.LFB134:
 916              		.loc 1 420 0
 917              		.cfi_startproc
 918              		@ args = 0, pretend = 0, frame = 0
 919              		@ frame_needed = 0, uses_anonymous_args = 0
 920              		@ link register save eliminated.
 921              		.loc 1 423 0
 922 0000 0C4B     		ldr	r3, .L117
 923              		.loc 1 420 0
 924 0002 30B4     		push	{r4, r5}
 925              	.LCFI16:
 926              		.cfi_def_cfa_offset 8
 927              		.cfi_offset 4, -8
 928              		.cfi_offset 5, -4
 929              		.loc 1 423 0
 930 0004 0022     		movs	r2, #0
 931 0006 0C4D     		ldr	r5, .L117+4
 932 0008 0C4C     		ldr	r4, .L117+8
 933 000a 1A60     		str	r2, [r3, #0]
 934              	.LVL48:
 935              		.loc 1 425 0
 936 000c 1146     		mov	r1, r2
 937              		.loc 1 423 0
 938 000e 1346     		mov	r3, r2
 939              	.LVL49:
 940              	.L115:
 941              		.loc 1 425 0 discriminator 2
 942 0010 E858     		ldr	r0, [r5, r3]
 943 0012 0C33     		adds	r3, r3, #12
 944 0014 0160     		str	r1, [r0, #0]
 945              		.loc 1 426 0 discriminator 2
 946 0016 A150     		str	r1, [r4, r2]
 947 0018 0832     		adds	r2, r2, #8
 948              		.loc 1 424 0 discriminator 2
 949 001a C02B     		cmp	r3, #192
 950 001c F8D1     		bne	.L115
 951              		.loc 1 428 0
 952 001e 0849     		ldr	r1, .L117+12
 953              		.loc 1 430 0
 954 0020 084A     		ldr	r2, .L117+16
 955              		.loc 1 428 0
 956 0022 4FF0FF33 		mov	r3, #-1
 957 0026 8B60     		str	r3, [r1, #8]
 958              		.loc 1 429 0
 959 0028 CB60     		str	r3, [r1, #12]
 960              		.loc 1 430 0
 961 002a 9360     		str	r3, [r2, #8]
 962              		.loc 1 431 0
 963 002c D360     		str	r3, [r2, #12]
 964              		.loc 1 432 0
 965 002e 30BC     		pop	{r4, r5}
ARM GAS  /tmp/cciz4sjN.s 			page 18


 966 0030 7047     		bx	lr
 967              	.L118:
 968 0032 00BF     		.align	2
 969              	.L117:
 970 0034 00000000 		.word	.LANCHOR1
 971 0038 00000000 		.word	.LANCHOR2
 972 003c 00000000 		.word	.LANCHOR0
 973 0040 00600240 		.word	1073897472
 974 0044 00640240 		.word	1073898496
 975              		.cfi_endproc
 976              	.LFE134:
 977              		.size	dmaInit, .-dmaInit
 978 0048 AFF30080 		.section	.text.dmaStreamAllocate,"ax",%progbits
 978      AFF30080 
 979              		.align	2
 980              		.p2align 4,,15
 981              		.global	dmaStreamAllocate
 982              		.thumb
 983              		.thumb_func
 984              		.type	dmaStreamAllocate, %function
 985              	dmaStreamAllocate:
 986              	.LFB135:
 987              		.loc 1 461 0
 988              		.cfi_startproc
 989              		@ args = 0, pretend = 0, frame = 0
 990              		@ frame_needed = 0, uses_anonymous_args = 0
 991              	.LVL50:
 992 0000 2DE9F041 		push	{r4, r5, r6, r7, r8, lr}
 993              	.LCFI17:
 994              		.cfi_def_cfa_offset 24
 995              		.cfi_offset 4, -24
 996              		.cfi_offset 5, -20
 997              		.cfi_offset 6, -16
 998              		.cfi_offset 7, -12
 999              		.cfi_offset 8, -8
 1000              		.cfi_offset 14, -4
 1001              		.loc 1 466 0
 1002 0004 214E     		ldr	r6, .L134
 1003 0006 447A     		ldrb	r4, [r0, #9]	@ zero_extendqisi2
 1004 0008 3768     		ldr	r7, [r6, #0]
 1005 000a 0125     		movs	r5, #1
 1006 000c 05FA04FC 		lsl	ip, r5, r4
 1007 0010 1CEA070F 		tst	ip, r7
 1008 0014 34D1     		bne	.L124
 1009              		.loc 1 470 0
 1010 0016 1E4D     		ldr	r5, .L134+4
 1011              		.loc 1 472 0
 1012 0018 4CEA0707 		orr	r7, ip, r7
 1013              		.loc 1 471 0
 1014 001c 05EBC408 		add	r8, r5, r4, lsl #3
 1015              		.loc 1 475 0
 1016 0020 17F0FF0F 		tst	r7, #255
 1017              		.loc 1 470 0
 1018 0024 45F83420 		str	r2, [r5, r4, lsl #3]
 1019              		.loc 1 471 0
 1020 0028 C8F80430 		str	r3, [r8, #4]
 1021              		.loc 1 472 0
ARM GAS  /tmp/cciz4sjN.s 			page 19


 1022 002c 3760     		str	r7, [r6, #0]
 1023              		.loc 1 475 0
 1024 002e 04D0     		beq	.L121
 1025              		.loc 1 476 0
 1026 0030 184B     		ldr	r3, .L134+8
 1027              	.LVL51:
 1028 0032 1C6B     		ldr	r4, [r3, #48]
 1029 0034 44F40014 		orr	r4, r4, #2097152
 1030 0038 1C63     		str	r4, [r3, #48]
 1031              	.L121:
 1032              		.loc 1 477 0
 1033 003a 17F47F4F 		tst	r7, #65280
 1034 003e 19D1     		bne	.L133
 1035              	.L122:
 1036              		.loc 1 481 0
 1037 0040 0468     		ldr	r4, [r0, #0]
 1038 0042 2368     		ldr	r3, [r4, #0]
 1039 0044 23F01F03 		bic	r3, r3, #31
 1040 0048 2360     		str	r3, [r4, #0]
 1041              	.L123:
 1042              		.loc 1 481 0 is_stmt 0 discriminator 1
 1043 004a 2368     		ldr	r3, [r4, #0]
 1044 004c 13F00105 		ands	r5, r3, #1
 1045 0050 FBD1     		bne	.L123
 1046              		.loc 1 481 0 discriminator 2
 1047 0052 067A     		ldrb	r6, [r0, #8]	@ zero_extendqisi2
 1048 0054 4368     		ldr	r3, [r0, #4]
 1049 0056 3D27     		movs	r7, #61
 1050 0058 07FA06F6 		lsl	r6, r7, r6
 1051 005c 1E60     		str	r6, [r3, #0]
 1052              		.loc 1 483 0 is_stmt 1 discriminator 2
 1053 005e 2123     		movs	r3, #33
 1054              		.loc 1 482 0 discriminator 2
 1055 0060 2560     		str	r5, [r4, #0]
 1056              		.loc 1 483 0 discriminator 2
 1057 0062 6361     		str	r3, [r4, #20]
 1058              		.loc 1 486 0 discriminator 2
 1059 0064 7AB1     		cbz	r2, .L125
 1060              		.loc 1 487 0
 1061 0066 807A     		ldrb	r0, [r0, #10]	@ zero_extendqisi2
 1062              	.LVL52:
 1063 0068 0901     		lsls	r1, r1, #4
 1064              	.LVL53:
 1065 006a FFF7FEFF 		bl	nvicEnableVector
 1066              	.LVL54:
 1067              		.loc 1 489 0
 1068 006e 2846     		mov	r0, r5
 1069 0070 BDE8F081 		pop	{r4, r5, r6, r7, r8, pc}
 1070              	.LVL55:
 1071              	.L133:
 1072              		.loc 1 478 0
 1073 0074 074B     		ldr	r3, .L134+8
 1074 0076 1C6B     		ldr	r4, [r3, #48]
 1075 0078 44F48004 		orr	r4, r4, #4194304
 1076 007c 1C63     		str	r4, [r3, #48]
 1077 007e DFE7     		b	.L122
 1078              	.LVL56:
ARM GAS  /tmp/cciz4sjN.s 			page 20


 1079              	.L124:
 1080              		.loc 1 467 0
 1081 0080 2846     		mov	r0, r5
 1082              	.LVL57:
 1083 0082 BDE8F081 		pop	{r4, r5, r6, r7, r8, pc}
 1084              	.LVL58:
 1085              	.L125:
 1086              		.loc 1 489 0
 1087 0086 1046     		mov	r0, r2
 1088              	.LVL59:
 1089              		.loc 1 490 0
 1090 0088 BDE8F081 		pop	{r4, r5, r6, r7, r8, pc}
 1091              	.L135:
 1092              		.align	2
 1093              	.L134:
 1094 008c 00000000 		.word	.LANCHOR1
 1095 0090 00000000 		.word	.LANCHOR0
 1096 0094 00380240 		.word	1073887232
 1097              		.cfi_endproc
 1098              	.LFE135:
 1099              		.size	dmaStreamAllocate, .-dmaStreamAllocate
 1100 0098 AFF30080 		.section	.text.dmaStreamRelease,"ax",%progbits
 1100      AFF30080 
 1101              		.align	2
 1102              		.p2align 4,,15
 1103              		.global	dmaStreamRelease
 1104              		.thumb
 1105              		.thumb_func
 1106              		.type	dmaStreamRelease, %function
 1107              	dmaStreamRelease:
 1108              	.LFB136:
 1109              		.loc 1 505 0
 1110              		.cfi_startproc
 1111              		@ args = 0, pretend = 0, frame = 0
 1112              		@ frame_needed = 0, uses_anonymous_args = 0
 1113              	.LVL60:
 1114 0000 10B5     		push	{r4, lr}
 1115              	.LCFI18:
 1116              		.cfi_def_cfa_offset 8
 1117              		.cfi_offset 4, -8
 1118              		.cfi_offset 14, -4
 1119              		.loc 1 505 0
 1120 0002 0446     		mov	r4, r0
 1121              		.loc 1 514 0
 1122 0004 807A     		ldrb	r0, [r0, #10]	@ zero_extendqisi2
 1123              	.LVL61:
 1124 0006 FFF7FEFF 		bl	nvicDisableVector
 1125              	.LVL62:
 1126              		.loc 1 517 0
 1127 000a 0D4A     		ldr	r2, .L139
 1128 000c 637A     		ldrb	r3, [r4, #9]	@ zero_extendqisi2
 1129 000e 1168     		ldr	r1, [r2, #0]
 1130 0010 0120     		movs	r0, #1
 1131 0012 00FA03F3 		lsl	r3, r0, r3
 1132 0016 21EA0303 		bic	r3, r1, r3
 1133              		.loc 1 520 0
 1134 001a 13F0FF0F 		tst	r3, #255
ARM GAS  /tmp/cciz4sjN.s 			page 21


 1135              		.loc 1 517 0
 1136 001e 1360     		str	r3, [r2, #0]
 1137              		.loc 1 520 0
 1138 0020 04D1     		bne	.L137
 1139              		.loc 1 521 0
 1140 0022 084A     		ldr	r2, .L139+4
 1141 0024 116B     		ldr	r1, [r2, #48]
 1142 0026 21F40011 		bic	r1, r1, #2097152
 1143 002a 1163     		str	r1, [r2, #48]
 1144              	.L137:
 1145              		.loc 1 522 0
 1146 002c 13F47F4F 		tst	r3, #65280
 1147 0030 04D1     		bne	.L136
 1148              		.loc 1 523 0
 1149 0032 044B     		ldr	r3, .L139+4
 1150 0034 1A6B     		ldr	r2, [r3, #48]
 1151 0036 22F48002 		bic	r2, r2, #4194304
 1152 003a 1A63     		str	r2, [r3, #48]
 1153              	.L136:
 1154 003c 10BD     		pop	{r4, pc}
 1155              	.L140:
 1156 003e 00BF     		.align	2
 1157              	.L139:
 1158 0040 00000000 		.word	.LANCHOR1
 1159 0044 00380240 		.word	1073887232
 1160              		.cfi_endproc
 1161              	.LFE136:
 1162              		.size	dmaStreamRelease, .-dmaStreamRelease
 1163              		.global	_stm32_dma_streams
 1164 0048 AFF30080 		.section	.bss.dma_isr_redir,"aw",%nobits
 1164      AFF30080 
 1165              		.align	2
 1166              		.set	.LANCHOR0,. + 0
 1167              		.type	dma_isr_redir, %object
 1168              		.size	dma_isr_redir, 128
 1169              	dma_isr_redir:
 1170 0000 00000000 		.space	128
 1170      00000000 
 1170      00000000 
 1170      00000000 
 1170      00000000 
 1171              		.section	.rodata._stm32_dma_streams,"a",%progbits
 1172              		.align	2
 1173              		.set	.LANCHOR2,. + 0
 1174              		.type	_stm32_dma_streams, %object
 1175              		.size	_stm32_dma_streams, 192
 1176              	_stm32_dma_streams:
 1177 0000 10600240 		.word	1073897488
 1178 0004 08600240 		.word	1073897480
 1179 0008 00       		.byte	0
 1180 0009 00       		.byte	0
 1181 000a 0B       		.byte	11
 1182 000b 00       		.space	1
 1183 000c 28600240 		.word	1073897512
 1184 0010 08600240 		.word	1073897480
 1185 0014 06       		.byte	6
 1186 0015 01       		.byte	1
ARM GAS  /tmp/cciz4sjN.s 			page 22


 1187 0016 0C       		.byte	12
 1188 0017 00       		.space	1
 1189 0018 40600240 		.word	1073897536
 1190 001c 08600240 		.word	1073897480
 1191 0020 10       		.byte	16
 1192 0021 02       		.byte	2
 1193 0022 0D       		.byte	13
 1194 0023 00       		.space	1
 1195 0024 58600240 		.word	1073897560
 1196 0028 08600240 		.word	1073897480
 1197 002c 16       		.byte	22
 1198 002d 03       		.byte	3
 1199 002e 0E       		.byte	14
 1200 002f 00       		.space	1
 1201 0030 70600240 		.word	1073897584
 1202 0034 0C600240 		.word	1073897484
 1203 0038 00       		.byte	0
 1204 0039 04       		.byte	4
 1205 003a 0F       		.byte	15
 1206 003b 00       		.space	1
 1207 003c 88600240 		.word	1073897608
 1208 0040 0C600240 		.word	1073897484
 1209 0044 06       		.byte	6
 1210 0045 05       		.byte	5
 1211 0046 10       		.byte	16
 1212 0047 00       		.space	1
 1213 0048 A0600240 		.word	1073897632
 1214 004c 0C600240 		.word	1073897484
 1215 0050 10       		.byte	16
 1216 0051 06       		.byte	6
 1217 0052 11       		.byte	17
 1218 0053 00       		.space	1
 1219 0054 B8600240 		.word	1073897656
 1220 0058 0C600240 		.word	1073897484
 1221 005c 16       		.byte	22
 1222 005d 07       		.byte	7
 1223 005e 2F       		.byte	47
 1224 005f 00       		.space	1
 1225 0060 10640240 		.word	1073898512
 1226 0064 08640240 		.word	1073898504
 1227 0068 00       		.byte	0
 1228 0069 08       		.byte	8
 1229 006a 38       		.byte	56
 1230 006b 00       		.space	1
 1231 006c 28640240 		.word	1073898536
 1232 0070 08640240 		.word	1073898504
 1233 0074 06       		.byte	6
 1234 0075 09       		.byte	9
 1235 0076 39       		.byte	57
 1236 0077 00       		.space	1
 1237 0078 40640240 		.word	1073898560
 1238 007c 08640240 		.word	1073898504
 1239 0080 10       		.byte	16
 1240 0081 0A       		.byte	10
 1241 0082 3A       		.byte	58
 1242 0083 00       		.space	1
 1243 0084 58640240 		.word	1073898584
ARM GAS  /tmp/cciz4sjN.s 			page 23


 1244 0088 08640240 		.word	1073898504
 1245 008c 16       		.byte	22
 1246 008d 0B       		.byte	11
 1247 008e 3B       		.byte	59
 1248 008f 00       		.space	1
 1249 0090 70640240 		.word	1073898608
 1250 0094 0C640240 		.word	1073898508
 1251 0098 00       		.byte	0
 1252 0099 0C       		.byte	12
 1253 009a 3C       		.byte	60
 1254 009b 00       		.space	1
 1255 009c 88640240 		.word	1073898632
 1256 00a0 0C640240 		.word	1073898508
 1257 00a4 06       		.byte	6
 1258 00a5 0D       		.byte	13
 1259 00a6 44       		.byte	68
 1260 00a7 00       		.space	1
 1261 00a8 A0640240 		.word	1073898656
 1262 00ac 0C640240 		.word	1073898508
 1263 00b0 10       		.byte	16
 1264 00b1 0E       		.byte	14
 1265 00b2 45       		.byte	69
 1266 00b3 00       		.space	1
 1267 00b4 B8640240 		.word	1073898680
 1268 00b8 0C640240 		.word	1073898508
 1269 00bc 16       		.byte	22
 1270 00bd 0F       		.byte	15
 1271 00be 46       		.byte	70
 1272 00bf 00       		.space	1
 1273              		.section	.bss.dma_streams_mask,"aw",%nobits
 1274              		.align	2
 1275              		.set	.LANCHOR1,. + 0
 1276              		.type	dma_streams_mask, %object
 1277              		.size	dma_streams_mask, 4
 1278              	dma_streams_mask:
 1279 0000 00000000 		.space	4
 1280              		.text
 1281              	.Letext0:
 1282              		.file 2 "/home/dpeter/CodeSourcery/Sourcery_CodeBench_Lite_for_ARM_EABI/bin/../lib/gcc/arm-none-ea
 1283              		.file 3 "/home/dpeter/devel/sources/ChibiOS-RT/os/ports/GCC/ARMCMx/chtypes.h"
 1284              		.file 4 "/home/dpeter/devel/sources/ChibiOS-RT/os/hal/platforms/STM32F4xx/stm32f4xx.h"
 1285              		.file 5 "/home/dpeter/devel/sources/ChibiOS-RT/os/hal/platforms/STM32F4xx/stm32_dma.h"
 1286              		.file 6 "/home/dpeter/devel/sources/ChibiOS-RT/os/ports/common/ARMCMx/CMSIS/include/core_cm4.h"
 1287              		.file 7 "/home/dpeter/devel/sources/ChibiOS-RT/os/ports/GCC/ARMCMx/chcore_v7m.h"
 1288              		.file 8 "/home/dpeter/devel/sources/ChibiOS-RT/os/ports/common/ARMCMx/nvic.h"