ARM GAS  /tmp/ccxGUqo7.s 			page 1


   1              		.syntax unified
   2              		.cpu cortex-m4
   3              		.fpu softvfp
   4              		.eabi_attribute 20, 1
   5              		.eabi_attribute 21, 1
   6              		.eabi_attribute 23, 3
   7              		.eabi_attribute 24, 1
   8              		.eabi_attribute 25, 1
   9              		.eabi_attribute 26, 1
  10              		.eabi_attribute 30, 2
  11              		.eabi_attribute 34, 1
  12              		.eabi_attribute 18, 4
  13              		.thumb
  14              		.file	"testthd.c"
  15              		.text
  16              	.Ltext0:
  17              		.cfi_sections	.debug_frame
  18              		.section	.text.thd3_execute,"ax",%progbits
  19              		.align	2
  20              		.p2align 4,,15
  21              		.thumb
  22              		.thumb_func
  23              		.type	thd3_execute, %function
  24              	thd3_execute:
  25              	.LFB10:
  26              		.file 1 "/home/dpeter/devel/sources/ChibiOS-RT/test/testthd.c"
  27              		.loc 1 126 0
  28              		.cfi_startproc
  29              		@ args = 0, pretend = 0, frame = 0
  30              		@ frame_needed = 0, uses_anonymous_args = 0
  31 0000 F8B5     		push	{r3, r4, r5, r6, r7, lr}
  32              	.LCFI0:
  33              		.cfi_def_cfa_offset 24
  34              		.cfi_offset 3, -24
  35              		.cfi_offset 4, -20
  36              		.cfi_offset 5, -16
  37              		.cfi_offset 6, -12
  38              		.cfi_offset 7, -8
  39              		.cfi_offset 14, -4
  40              		.loc 1 129 0
  41 0002 4D4E     		ldr	r6, .L7
  42 0004 B369     		ldr	r3, [r6, #24]
  43 0006 9C68     		ldr	r4, [r3, #8]
  44              	.LVL0:
  45              		.loc 1 130 0
  46 0008 651C     		adds	r5, r4, #1
  47 000a 2846     		mov	r0, r5
  48 000c FFF7FEFF 		bl	chThdSetPriority
  49              	.LVL1:
  50              		.loc 1 131 0
  51 0010 021B     		subs	r2, r0, r4
  52 0012 5142     		rsbs	r1, r2, #0
  53 0014 5141     		adcs	r1, r1, r2
  54              		.loc 1 130 0
  55 0016 0746     		mov	r7, r0
  56              	.LVL2:
  57              		.loc 1 131 0
ARM GAS  /tmp/ccxGUqo7.s 			page 2


  58 0018 0120     		movs	r0, #1
  59              	.LVL3:
  60 001a FFF7FEFF 		bl	_test_assert
  61              	.LVL4:
  62 001e 00B1     		cbz	r0, .L6
  63              	.LVL5:
  64              	.L1:
  65 0020 F8BD     		pop	{r3, r4, r5, r6, r7, pc}
  66              	.LVL6:
  67              	.L6:
  68              		.loc 1 133 0
  69 0022 B369     		ldr	r3, [r6, #24]
  70 0024 9968     		ldr	r1, [r3, #8]
  71 0026 0220     		movs	r0, #2
  72 0028 6B1A     		subs	r3, r5, r1
  73 002a 5942     		rsbs	r1, r3, #0
  74 002c 5941     		adcs	r1, r1, r3
  75 002e FFF7FEFF 		bl	_test_assert
  76              	.LVL7:
  77 0032 0028     		cmp	r0, #0
  78 0034 F4D1     		bne	.L1
  79              		.loc 1 135 0
  80 0036 3846     		mov	r0, r7
  81 0038 FFF7FEFF 		bl	chThdSetPriority
  82              	.LVL8:
  83              		.loc 1 136 0
  84 003c B5EB000C 		subs	ip, r5, r0
  85 0040 DCF10001 		rsbs	r1, ip, #0
  86 0044 51EB0C01 		adcs	r1, r1, ip
  87 0048 0320     		movs	r0, #3
  88              	.LVL9:
  89 004a FFF7FEFF 		bl	_test_assert
  90              	.LVL10:
  91 004e 0028     		cmp	r0, #0
  92 0050 E6D1     		bne	.L1
  93              		.loc 1 138 0
  94 0052 B369     		ldr	r3, [r6, #24]
  95 0054 9968     		ldr	r1, [r3, #8]
  96 0056 0420     		movs	r0, #4
  97 0058 B1EB040E 		subs	lr, r1, r4
  98 005c DEF10001 		rsbs	r1, lr, #0
  99 0060 51EB0E01 		adcs	r1, r1, lr
 100 0064 FFF7FEFF 		bl	_test_assert
 101              	.LVL11:
 102 0068 0028     		cmp	r0, #0
 103 006a D9D1     		bne	.L1
 104              	.LBB2:
 105              		.loc 1 143 0
 106 006c 2023     		movs	r3, #32
 107              	.LVL12:
 108              	@ 143 "/home/dpeter/devel/sources/ChibiOS-RT/test/testthd.c" 1
 109 006e 83F31188 		msr     BASEPRI, r3
 110              	@ 0 "" 2
 111              	.LVL13:
 112              		.thumb
 113              	.LBE2:
 114              		.loc 1 144 0
ARM GAS  /tmp/ccxGUqo7.s 			page 3


 115 0072 B369     		ldr	r3, [r6, #24]
 116              	.LVL14:
 117 0074 9A68     		ldr	r2, [r3, #8]
 118 0076 0232     		adds	r2, r2, #2
 119 0078 9A60     		str	r2, [r3, #8]
 120              	.LBB3:
 121              		.loc 1 145 0
 122 007a 0346     		mov	r3, r0
 123              	.LVL15:
 124              	@ 145 "/home/dpeter/devel/sources/ChibiOS-RT/test/testthd.c" 1
 125 007c 83F31188 		msr     BASEPRI, r3
 126              	@ 0 "" 2
 127              	.LVL16:
 128              		.thumb
 129              	.LBE3:
 130              		.loc 1 146 0
 131 0080 B369     		ldr	r3, [r6, #24]
 132              	.LVL17:
 133 0082 9968     		ldr	r1, [r3, #8]
 134 0084 A71C     		adds	r7, r4, #2
 135 0086 0520     		movs	r0, #5
 136 0088 CA1B     		subs	r2, r1, r7
 137 008a 5142     		rsbs	r1, r2, #0
 138 008c 5141     		adcs	r1, r1, r2
 139 008e FFF7FEFF 		bl	_test_assert
 140              	.LVL18:
 141 0092 0028     		cmp	r0, #0
 142 0094 C4D1     		bne	.L1
 143              		.loc 1 150 0
 144 0096 2846     		mov	r0, r5
 145 0098 FFF7FEFF 		bl	chThdSetPriority
 146              	.LVL19:
 147              		.loc 1 151 0
 148 009c 031B     		subs	r3, r0, r4
 149 009e 5942     		rsbs	r1, r3, #0
 150 00a0 5941     		adcs	r1, r1, r3
 151 00a2 0620     		movs	r0, #6
 152              	.LVL20:
 153 00a4 FFF7FEFF 		bl	_test_assert
 154              	.LVL21:
 155 00a8 0028     		cmp	r0, #0
 156 00aa B9D1     		bne	.L1
 157              		.loc 1 153 0
 158 00ac B369     		ldr	r3, [r6, #24]
 159 00ae 9968     		ldr	r1, [r3, #8]
 160 00b0 0720     		movs	r0, #7
 161 00b2 B7EB010C 		subs	ip, r7, r1
 162 00b6 DCF10001 		rsbs	r1, ip, #0
 163 00ba 51EB0C01 		adcs	r1, r1, ip
 164 00be FFF7FEFF 		bl	_test_assert
 165              	.LVL22:
 166 00c2 0028     		cmp	r0, #0
 167 00c4 ACD1     		bne	.L1
 168              		.loc 1 155 0
 169 00c6 B369     		ldr	r3, [r6, #24]
 170 00c8 196C     		ldr	r1, [r3, #64]
 171 00ca 0820     		movs	r0, #8
ARM GAS  /tmp/ccxGUqo7.s 			page 4


 172 00cc B5EB010E 		subs	lr, r5, r1
 173 00d0 DEF10001 		rsbs	r1, lr, #0
 174 00d4 51EB0E01 		adcs	r1, r1, lr
 175 00d8 FFF7FEFF 		bl	_test_assert
 176              	.LVL23:
 177 00dc 0028     		cmp	r0, #0
 178 00de 9FD1     		bne	.L1
 179              		.loc 1 159 0
 180 00e0 E71C     		adds	r7, r4, #3
 181 00e2 3846     		mov	r0, r7
 182 00e4 FFF7FEFF 		bl	chThdSetPriority
 183              	.LVL24:
 184              		.loc 1 160 0
 185 00e8 281A     		subs	r0, r5, r0
 186              	.LVL25:
 187 00ea 4142     		rsbs	r1, r0, #0
 188 00ec 4141     		adcs	r1, r1, r0
 189 00ee 0920     		movs	r0, #9
 190 00f0 FFF7FEFF 		bl	_test_assert
 191              	.LVL26:
 192 00f4 0028     		cmp	r0, #0
 193 00f6 93D1     		bne	.L1
 194              		.loc 1 162 0
 195 00f8 B369     		ldr	r3, [r6, #24]
 196 00fa 9968     		ldr	r1, [r3, #8]
 197 00fc 0A20     		movs	r0, #10
 198 00fe 7A1A     		subs	r2, r7, r1
 199 0100 5142     		rsbs	r1, r2, #0
 200 0102 5141     		adcs	r1, r1, r2
 201 0104 FFF7FEFF 		bl	_test_assert
 202              	.LVL27:
 203 0108 0028     		cmp	r0, #0
 204 010a 89D1     		bne	.L1
 205              		.loc 1 164 0
 206 010c B369     		ldr	r3, [r6, #24]
 207 010e 196C     		ldr	r1, [r3, #64]
 208 0110 0B20     		movs	r0, #11
 209 0112 7B1A     		subs	r3, r7, r1
 210 0114 5942     		rsbs	r1, r3, #0
 211 0116 5941     		adcs	r1, r1, r3
 212 0118 FFF7FEFF 		bl	_test_assert
 213              	.LVL28:
 214 011c 0028     		cmp	r0, #0
 215 011e 7FF47FAF 		bne	.L1
 216              	.LBB4:
 217              		.loc 1 167 0
 218 0122 2023     		movs	r3, #32
 219              	.LVL29:
 220              	@ 167 "/home/dpeter/devel/sources/ChibiOS-RT/test/testthd.c" 1
 221 0124 83F31188 		msr     BASEPRI, r3
 222              	@ 0 "" 2
 223              	.LVL30:
 224              		.thumb
 225              	.LBE4:
 226              		.loc 1 168 0
 227 0128 B269     		ldr	r2, [r6, #24]
 228              	.LBB5:
ARM GAS  /tmp/ccxGUqo7.s 			page 5


 229              		.loc 1 170 0
 230 012a 0346     		mov	r3, r0
 231              	.LVL31:
 232              	.LBE5:
 233              		.loc 1 168 0
 234 012c 9460     		str	r4, [r2, #8]
 235              		.loc 1 169 0
 236 012e 1464     		str	r4, [r2, #64]
 237              	.LBB6:
 238              		.loc 1 170 0
 239              	@ 170 "/home/dpeter/devel/sources/ChibiOS-RT/test/testthd.c" 1
 240 0130 83F31188 		msr     BASEPRI, r3
 241              	@ 0 "" 2
 242              	.LVL32:
 243              		.thumb
 244 0134 74E7     		b	.L1
 245              	.L8:
 246 0136 00BF     		.align	2
 247              	.L7:
 248 0138 00000000 		.word	rlist
 249              	.LBE6:
 250              		.cfi_endproc
 251              	.LFE10:
 252              		.size	thd3_execute, .-thd3_execute
 253 013c AFF30080 		.section	.text.thd2_execute,"ax",%progbits
 254              		.align	2
 255              		.p2align 4,,15
 256              		.thumb
 257              		.thumb_func
 258              		.type	thd2_execute, %function
 259              	thd2_execute:
 260              	.LFB9:
 261              		.loc 1 94 0
 262              		.cfi_startproc
 263              		@ args = 0, pretend = 0, frame = 0
 264              		@ frame_needed = 0, uses_anonymous_args = 0
 265 0000 F0B5     		push	{r4, r5, r6, r7, lr}
 266              	.LCFI1:
 267              		.cfi_def_cfa_offset 20
 268              		.cfi_offset 4, -20
 269              		.cfi_offset 5, -16
 270              		.cfi_offset 6, -12
 271              		.cfi_offset 7, -8
 272              		.cfi_offset 14, -4
 273              		.loc 1 96 0
 274 0002 2B4F     		ldr	r7, .L10
 275 0004 2B4E     		ldr	r6, .L10+4
 276 0006 BB69     		ldr	r3, [r7, #24]
 277 0008 2B4D     		ldr	r5, .L10+8
 278 000a 9A68     		ldr	r2, [r3, #8]
 279 000c 2B4B     		ldr	r3, .L10+12
 280 000e 7068     		ldr	r0, [r6, #4]
 281 0010 2B4C     		ldr	r4, .L10+16
 282              		.loc 1 94 0
 283 0012 83B0     		sub	sp, sp, #12
 284              	.LCFI2:
 285              		.cfi_def_cfa_offset 32
ARM GAS  /tmp/ccxGUqo7.s 			page 6


 286              		.loc 1 96 0
 287 0014 043A     		subs	r2, r2, #4
 288 0016 0093     		str	r3, [sp, #0]
 289 0018 4FF49871 		mov	r1, #304
 290 001c 2B46     		mov	r3, r5
 291 001e FFF7FEFF 		bl	chThdCreateStatic
 292              	.LVL33:
 293              		.loc 1 97 0
 294 0022 BB69     		ldr	r3, [r7, #24]
 295 0024 3168     		ldr	r1, [r6, #0]
 296 0026 9A68     		ldr	r2, [r3, #8]
 297              		.loc 1 96 0
 298 0028 6060     		str	r0, [r4, #4]
 299              		.loc 1 97 0
 300 002a 2648     		ldr	r0, .L10+20
 301 002c 053A     		subs	r2, r2, #5
 302 002e 2B46     		mov	r3, r5
 303 0030 0090     		str	r0, [sp, #0]
 304 0032 0846     		mov	r0, r1
 305 0034 4FF49871 		mov	r1, #304
 306 0038 FFF7FEFF 		bl	chThdCreateStatic
 307              	.LVL34:
 308              		.loc 1 98 0
 309 003c BB69     		ldr	r3, [r7, #24]
 310 003e 3169     		ldr	r1, [r6, #16]
 311 0040 9A68     		ldr	r2, [r3, #8]
 312              		.loc 1 97 0
 313 0042 2060     		str	r0, [r4, #0]
 314              		.loc 1 98 0
 315 0044 2048     		ldr	r0, .L10+24
 316 0046 013A     		subs	r2, r2, #1
 317 0048 2B46     		mov	r3, r5
 318 004a 0090     		str	r0, [sp, #0]
 319 004c 0846     		mov	r0, r1
 320 004e 4FF49871 		mov	r1, #304
 321 0052 FFF7FEFF 		bl	chThdCreateStatic
 322              	.LVL35:
 323              		.loc 1 99 0
 324 0056 BB69     		ldr	r3, [r7, #24]
 325 0058 F168     		ldr	r1, [r6, #12]
 326 005a 9A68     		ldr	r2, [r3, #8]
 327              		.loc 1 98 0
 328 005c 2061     		str	r0, [r4, #16]
 329              		.loc 1 99 0
 330 005e 1B48     		ldr	r0, .L10+28
 331 0060 2B46     		mov	r3, r5
 332 0062 0090     		str	r0, [sp, #0]
 333 0064 023A     		subs	r2, r2, #2
 334 0066 0846     		mov	r0, r1
 335 0068 4FF49871 		mov	r1, #304
 336 006c FFF7FEFF 		bl	chThdCreateStatic
 337              	.LVL36:
 338              	.LBB7:
 339              		.loc 1 101 0
 340 0070 2023     		movs	r3, #32
 341              	.LVL37:
 342              	.LBE7:
ARM GAS  /tmp/ccxGUqo7.s 			page 7


 343              		.loc 1 99 0
 344 0072 E060     		str	r0, [r4, #12]
 345              	.LBB8:
 346              		.loc 1 101 0
 347              	@ 101 "/home/dpeter/devel/sources/ChibiOS-RT/test/testthd.c" 1
 348 0074 83F31188 		msr     BASEPRI, r3
 349              	@ 0 "" 2
 350              	.LVL38:
 351              		.thumb
 352              	.LBE8:
 353              		.loc 1 102 0
 354 0078 BB69     		ldr	r3, [r7, #24]
 355              	.LVL39:
 356 007a 1549     		ldr	r1, .L10+32
 357 007c 9A68     		ldr	r2, [r3, #8]
 358 007e B068     		ldr	r0, [r6, #8]
 359 0080 0091     		str	r1, [sp, #0]
 360 0082 2B46     		mov	r3, r5
 361 0084 4FF49871 		mov	r1, #304
 362 0088 033A     		subs	r2, r2, #3
 363 008a FFF7FEFF 		bl	chThdCreateI
 364              	.LVL40:
 365 008e A060     		str	r0, [r4, #8]
 366              	.LBB9:
 367              		.loc 1 103 0
 368 0090 0023     		movs	r3, #0
 369              	.LVL41:
 370              	@ 103 "/home/dpeter/devel/sources/ChibiOS-RT/test/testthd.c" 1
 371 0092 83F31188 		msr     BASEPRI, r3
 372              	@ 0 "" 2
 373              	.LVL42:
 374              		.thumb
 375              	.LBE9:
 376              		.loc 1 104 0
 377 0096 A068     		ldr	r0, [r4, #8]
 378 0098 FFF7FEFF 		bl	chThdResume
 379              	.LVL43:
 380              		.loc 1 105 0
 381 009c FFF7FEFF 		bl	test_wait_threads
 382              	.LVL44:
 383              		.loc 1 106 0
 384 00a0 0C49     		ldr	r1, .L10+36
 385 00a2 0120     		movs	r0, #1
 386              		.loc 1 107 0
 387 00a4 03B0     		add	sp, sp, #12
 388 00a6 BDE8F040 		pop	{r4, r5, r6, r7, lr}
 389              		.loc 1 106 0
 390 00aa FFF7FEBF 		b	_test_assert_sequence
 391              	.LVL45:
 392              	.L11:
 393 00ae 00BF     		.align	2
 394              	.L10:
 395 00b0 00000000 		.word	rlist
 396 00b4 00000000 		.word	wa
 397 00b8 00000000 		.word	thread
 398 00bc 00000000 		.word	.LC0
 399 00c0 00000000 		.word	threads
ARM GAS  /tmp/ccxGUqo7.s 			page 8


 400 00c4 04000000 		.word	.LC1
 401 00c8 08000000 		.word	.LC2
 402 00cc 0C000000 		.word	.LC3
 403 00d0 10000000 		.word	.LC4
 404 00d4 14000000 		.word	.LC5
 405              		.cfi_endproc
 406              	.LFE9:
 407              		.size	thd2_execute, .-thd2_execute
 408 00d8 AFF30080 		.section	.text.thd1_execute,"ax",%progbits
 408      AFF30080 
 409              		.align	2
 410              		.p2align 4,,15
 411              		.thumb
 412              		.thumb_func
 413              		.type	thd1_execute, %function
 414              	thd1_execute:
 415              	.LFB8:
 416              		.loc 1 66 0
 417              		.cfi_startproc
 418              		@ args = 0, pretend = 0, frame = 0
 419              		@ frame_needed = 0, uses_anonymous_args = 0
 420 0000 F0B5     		push	{r4, r5, r6, r7, lr}
 421              	.LCFI3:
 422              		.cfi_def_cfa_offset 20
 423              		.cfi_offset 4, -20
 424              		.cfi_offset 5, -16
 425              		.cfi_offset 6, -12
 426              		.cfi_offset 7, -8
 427              		.cfi_offset 14, -4
 428              		.loc 1 68 0
 429 0002 254F     		ldr	r7, .L13
 430 0004 254D     		ldr	r5, .L13+4
 431 0006 BB69     		ldr	r3, [r7, #24]
 432 0008 254E     		ldr	r6, .L13+8
 433 000a 9A68     		ldr	r2, [r3, #8]
 434 000c 254B     		ldr	r3, .L13+12
 435 000e 3068     		ldr	r0, [r6, #0]
 436 0010 254C     		ldr	r4, .L13+16
 437              		.loc 1 66 0
 438 0012 83B0     		sub	sp, sp, #12
 439              	.LCFI4:
 440              		.cfi_def_cfa_offset 32
 441              		.loc 1 68 0
 442 0014 053A     		subs	r2, r2, #5
 443 0016 0093     		str	r3, [sp, #0]
 444 0018 4FF49871 		mov	r1, #304
 445 001c 2B46     		mov	r3, r5
 446 001e FFF7FEFF 		bl	chThdCreateStatic
 447              	.LVL46:
 448              		.loc 1 69 0
 449 0022 BB69     		ldr	r3, [r7, #24]
 450 0024 9A68     		ldr	r2, [r3, #8]
 451              		.loc 1 68 0
 452 0026 2060     		str	r0, [r4, #0]
 453              		.loc 1 69 0
 454 0028 2048     		ldr	r0, .L13+20
 455 002a 043A     		subs	r2, r2, #4
ARM GAS  /tmp/ccxGUqo7.s 			page 9


 456 002c 2B46     		mov	r3, r5
 457 002e 0090     		str	r0, [sp, #0]
 458 0030 4FF49871 		mov	r1, #304
 459 0034 7068     		ldr	r0, [r6, #4]
 460 0036 FFF7FEFF 		bl	chThdCreateStatic
 461              	.LVL47:
 462              		.loc 1 70 0
 463 003a BB69     		ldr	r3, [r7, #24]
 464 003c 9A68     		ldr	r2, [r3, #8]
 465              		.loc 1 69 0
 466 003e 6060     		str	r0, [r4, #4]
 467              		.loc 1 70 0
 468 0040 1B48     		ldr	r0, .L13+24
 469 0042 033A     		subs	r2, r2, #3
 470 0044 2B46     		mov	r3, r5
 471 0046 0090     		str	r0, [sp, #0]
 472 0048 4FF49871 		mov	r1, #304
 473 004c B068     		ldr	r0, [r6, #8]
 474 004e FFF7FEFF 		bl	chThdCreateStatic
 475              	.LVL48:
 476              		.loc 1 71 0
 477 0052 BB69     		ldr	r3, [r7, #24]
 478 0054 9A68     		ldr	r2, [r3, #8]
 479              		.loc 1 70 0
 480 0056 A060     		str	r0, [r4, #8]
 481              		.loc 1 71 0
 482 0058 1648     		ldr	r0, .L13+28
 483 005a 023A     		subs	r2, r2, #2
 484 005c 2B46     		mov	r3, r5
 485 005e 0090     		str	r0, [sp, #0]
 486 0060 4FF49871 		mov	r1, #304
 487 0064 F068     		ldr	r0, [r6, #12]
 488 0066 FFF7FEFF 		bl	chThdCreateStatic
 489              	.LVL49:
 490              		.loc 1 72 0
 491 006a BB69     		ldr	r3, [r7, #24]
 492 006c 3669     		ldr	r6, [r6, #16]
 493 006e 9A68     		ldr	r2, [r3, #8]
 494              		.loc 1 71 0
 495 0070 E060     		str	r0, [r4, #12]
 496              		.loc 1 72 0
 497 0072 1148     		ldr	r0, .L13+32
 498 0074 4FF49871 		mov	r1, #304
 499 0078 013A     		subs	r2, r2, #1
 500 007a 2B46     		mov	r3, r5
 501 007c 0090     		str	r0, [sp, #0]
 502 007e 3046     		mov	r0, r6
 503 0080 FFF7FEFF 		bl	chThdCreateStatic
 504              	.LVL50:
 505 0084 2061     		str	r0, [r4, #16]
 506              		.loc 1 73 0
 507 0086 FFF7FEFF 		bl	test_wait_threads
 508              	.LVL51:
 509              		.loc 1 74 0
 510 008a 0C49     		ldr	r1, .L13+36
 511 008c 0120     		movs	r0, #1
 512              		.loc 1 75 0
ARM GAS  /tmp/ccxGUqo7.s 			page 10


 513 008e 03B0     		add	sp, sp, #12
 514 0090 BDE8F040 		pop	{r4, r5, r6, r7, lr}
 515              		.loc 1 74 0
 516 0094 FFF7FEBF 		b	_test_assert_sequence
 517              	.LVL52:
 518              	.L14:
 519              		.align	2
 520              	.L13:
 521 0098 00000000 		.word	rlist
 522 009c 00000000 		.word	thread
 523 00a0 00000000 		.word	wa
 524 00a4 04000000 		.word	.LC1
 525 00a8 00000000 		.word	threads
 526 00ac 00000000 		.word	.LC0
 527 00b0 10000000 		.word	.LC4
 528 00b4 0C000000 		.word	.LC3
 529 00b8 08000000 		.word	.LC2
 530 00bc 14000000 		.word	.LC5
 531              		.cfi_endproc
 532              	.LFE8:
 533              		.size	thd1_execute, .-thd1_execute
 534              		.section	.text.thread,"ax",%progbits
 535              		.align	2
 536              		.p2align 4,,15
 537              		.thumb
 538              		.thumb_func
 539              		.type	thread, %function
 540              	thread:
 541              	.LFB7:
 542              		.loc 1 60 0
 543              		.cfi_startproc
 544              		@ args = 0, pretend = 0, frame = 0
 545              		@ frame_needed = 0, uses_anonymous_args = 0
 546              	.LVL53:
 547 0000 08B5     		push	{r3, lr}
 548              	.LCFI5:
 549              		.cfi_def_cfa_offset 8
 550              		.cfi_offset 3, -8
 551              		.cfi_offset 14, -4
 552              		.loc 1 62 0
 553 0002 0078     		ldrb	r0, [r0, #0]	@ zero_extendqisi2
 554              	.LVL54:
 555 0004 FFF7FEFF 		bl	test_emit_token
 556              	.LVL55:
 557              		.loc 1 64 0
 558 0008 0020     		movs	r0, #0
 559 000a 08BD     		pop	{r3, pc}
 560              		.cfi_endproc
 561              	.LFE7:
 562              		.size	thread, .-thread
 563 000c AFF30080 		.section	.text.thd4_execute,"ax",%progbits
 564              		.align	2
 565              		.p2align 4,,15
 566              		.thumb
 567              		.thumb_func
 568              		.type	thd4_execute, %function
 569              	thd4_execute:
ARM GAS  /tmp/ccxGUqo7.s 			page 11


 570              	.LFB11:
 571              		.loc 1 189 0
 572              		.cfi_startproc
 573              		@ args = 0, pretend = 0, frame = 0
 574              		@ frame_needed = 0, uses_anonymous_args = 0
 575 0000 38B5     		push	{r3, r4, r5, lr}
 576              	.LCFI6:
 577              		.cfi_def_cfa_offset 16
 578              		.cfi_offset 3, -16
 579              		.cfi_offset 4, -12
 580              		.cfi_offset 5, -8
 581              		.cfi_offset 14, -4
 582              		.loc 1 195 0
 583 0002 1C4D     		ldr	r5, .L21
 584              		.loc 1 192 0
 585 0004 FFF7FEFF 		bl	test_wait_tick
 586              	.LVL56:
 587              		.loc 1 195 0
 588 0008 EC68     		ldr	r4, [r5, #12]
 589              	.LVL57:
 590              		.loc 1 196 0
 591 000a 6420     		movs	r0, #100
 592 000c FFF7FEFF 		bl	chThdSleep
 593              	.LVL58:
 594              		.loc 1 197 0
 595 0010 0120     		movs	r0, #1
 596 0012 04F16401 		add	r1, r4, #100
 597 0016 04F16502 		add	r2, r4, #101
 598 001a FFF7FEFF 		bl	_test_assert_time_window
 599              	.LVL59:
 600 001e 00B1     		cbz	r0, .L20
 601              	.LVL60:
 602              	.L16:
 603 0020 38BD     		pop	{r3, r4, r5, pc}
 604              	.LVL61:
 605              	.L20:
 606              		.loc 1 200 0
 607 0022 EC68     		ldr	r4, [r5, #12]
 608              	.LVL62:
 609              		.loc 1 201 0
 610 0024 6420     		movs	r0, #100
 611 0026 FFF7FEFF 		bl	chThdSleep
 612              	.LVL63:
 613              		.loc 1 202 0
 614 002a 0220     		movs	r0, #2
 615 002c 04F16401 		add	r1, r4, #100
 616 0030 04F16502 		add	r2, r4, #101
 617 0034 FFF7FEFF 		bl	_test_assert_time_window
 618              	.LVL64:
 619 0038 0028     		cmp	r0, #0
 620 003a F1D1     		bne	.L16
 621              	.LBB12:
 622              	.LBB13:
 623              		.loc 1 205 0
 624 003c EC68     		ldr	r4, [r5, #12]
 625              	.LVL65:
 626              		.loc 1 206 0
ARM GAS  /tmp/ccxGUqo7.s 			page 12


 627 003e 4FF47A70 		mov	r0, #1000
 628 0042 FFF7FEFF 		bl	chThdSleep
 629              	.LVL66:
 630              		.loc 1 207 0
 631 0046 0320     		movs	r0, #3
 632 0048 04F57A71 		add	r1, r4, #1000
 633 004c 04F2E932 		addw	r2, r4, #1001
 634 0050 FFF7FEFF 		bl	_test_assert_time_window
 635              	.LVL67:
 636 0054 0028     		cmp	r0, #0
 637 0056 E3D1     		bne	.L16
 638              		.loc 1 210 0
 639 0058 EC68     		ldr	r4, [r5, #12]
 640              	.LVL68:
 641 005a 04F16405 		add	r5, r4, #100
 642              	.LVL69:
 643              		.loc 1 211 0
 644 005e 2846     		mov	r0, r5
 645 0060 FFF7FEFF 		bl	chThdSleepUntil
 646              	.LVL70:
 647              		.loc 1 212 0
 648 0064 0420     		movs	r0, #4
 649 0066 2946     		mov	r1, r5
 650 0068 04F16502 		add	r2, r4, #101
 651              	.LBE13:
 652              	.LBE12:
 653              		.loc 1 213 0
 654 006c BDE83840 		pop	{r3, r4, r5, lr}
 655              	.LBB15:
 656              	.LBB14:
 657              		.loc 1 212 0
 658 0070 FFF7FEBF 		b	_test_assert_time_window
 659              	.LVL71:
 660              	.L22:
 661              		.align	2
 662              	.L21:
 663 0074 00000000 		.word	vtlist
 664              	.LBE14:
 665              	.LBE15:
 666              		.cfi_endproc
 667              	.LFE11:
 668              		.size	thd4_execute, .-thd4_execute
 669              		.global	patternthd
 670              		.global	testthd4
 671              		.global	testthd3
 672              		.global	testthd2
 673              		.global	testthd1
 674 0078 AFF30080 		.section	.rodata.testthd1,"a",%progbits
 674      AFF30080 
 675              		.align	2
 676              		.type	testthd1, %object
 677              		.size	testthd1, 16
 678              	testthd1:
 679 0000 64000000 		.word	.LC9
 680 0004 00000000 		.word	0
 681 0008 00000000 		.word	0
 682 000c 00000000 		.word	thd1_execute
ARM GAS  /tmp/ccxGUqo7.s 			page 13


 683              		.section	.rodata.testthd2,"a",%progbits
 684              		.align	2
 685              		.type	testthd2, %object
 686              		.size	testthd2, 16
 687              	testthd2:
 688 0000 48000000 		.word	.LC8
 689 0004 00000000 		.word	0
 690 0008 00000000 		.word	0
 691 000c 00000000 		.word	thd2_execute
 692              		.section	.rodata.testthd3,"a",%progbits
 693              		.align	2
 694              		.type	testthd3, %object
 695              		.size	testthd3, 16
 696              	testthd3:
 697 0000 2C000000 		.word	.LC7
 698 0004 00000000 		.word	0
 699 0008 00000000 		.word	0
 700 000c 00000000 		.word	thd3_execute
 701              		.section	.rodata.testthd4,"a",%progbits
 702              		.align	2
 703              		.type	testthd4, %object
 704              		.size	testthd4, 16
 705              	testthd4:
 706 0000 1C000000 		.word	.LC6
 707 0004 00000000 		.word	0
 708 0008 00000000 		.word	0
 709 000c 00000000 		.word	thd4_execute
 710              		.section	.rodata.patternthd,"a",%progbits
 711              		.align	2
 712              		.type	patternthd, %object
 713              		.size	patternthd, 20
 714              	patternthd:
 715 0000 00000000 		.word	testthd1
 716 0004 00000000 		.word	testthd2
 717 0008 00000000 		.word	testthd3
 718 000c 00000000 		.word	testthd4
 719 0010 00000000 		.word	0
 720              		.section	.rodata.str1.4,"aMS",%progbits,1
 721              		.align	2
 722              	.LC0:
 723 0000 4400     		.ascii	"D\000"
 724 0002 0000     		.space	2
 725              	.LC1:
 726 0004 4500     		.ascii	"E\000"
 727 0006 0000     		.space	2
 728              	.LC2:
 729 0008 4100     		.ascii	"A\000"
 730 000a 0000     		.space	2
 731              	.LC3:
 732 000c 4200     		.ascii	"B\000"
 733 000e 0000     		.space	2
 734              	.LC4:
 735 0010 4300     		.ascii	"C\000"
 736 0012 0000     		.space	2
 737              	.LC5:
 738 0014 41424344 		.ascii	"ABCDE\000"
 738      4500
ARM GAS  /tmp/ccxGUqo7.s 			page 14


 739 001a 0000     		.space	2
 740              	.LC6:
 741 001c 54687265 		.ascii	"Threads, delays\000"
 741      6164732C 
 741      2064656C 
 741      61797300 
 742              	.LC7:
 743 002c 54687265 		.ascii	"Threads, priority change\000"
 743      6164732C 
 743      20707269 
 743      6F726974 
 743      79206368 
 744 0045 000000   		.space	3
 745              	.LC8:
 746 0048 54687265 		.ascii	"Threads, enqueuing test #2\000"
 746      6164732C 
 746      20656E71 
 746      75657569 
 746      6E672074 
 747 0063 00       		.space	1
 748              	.LC9:
 749 0064 54687265 		.ascii	"Threads, enqueuing test #1\000"
 749      6164732C 
 749      20656E71 
 749      75657569 
 749      6E672074 
 750 007f 00       		.text
 751              	.Letext0:
 752              		.file 2 "/home/dpeter/CodeSourcery/Sourcery_CodeBench_Lite_for_ARM_EABI/bin/../lib/gcc/arm-none-ea
 753              		.file 3 "/home/dpeter/CodeSourcery/Sourcery_CodeBench_Lite_for_ARM_EABI/bin/../lib/gcc/arm-none-ea
 754              		.file 4 "/home/dpeter/devel/sources/ChibiOS-RT/os/ports/GCC/ARMCMx/chtypes.h"
 755              		.file 5 "/home/dpeter/devel/sources/ChibiOS-RT/os/kernel/include/chlists.h"
 756              		.file 6 "/home/dpeter/devel/sources/ChibiOS-RT/os/kernel/include/chthreads.h"
 757              		.file 7 "/home/dpeter/devel/sources/ChibiOS-RT/os/ports/GCC/ARMCMx/chcore_v7m.h"
 758              		.file 8 "/home/dpeter/devel/sources/ChibiOS-RT/os/kernel/include/chvt.h"
 759              		.file 9 "/home/dpeter/devel/sources/ChibiOS-RT/os/kernel/include/chschd.h"
 760              		.file 10 "/home/dpeter/devel/sources/ChibiOS-RT/os/kernel/include/chmtx.h"
 761              		.file 11 "/home/dpeter/devel/sources/ChibiOS-RT/test/test.h"