ARM GAS  /tmp/ccWnp1Fj.s 			page 1


   1              		.syntax unified
   2              		.cpu cortex-m4
   3              		.fpu softvfp
   4              		.eabi_attribute 20, 1
   5              		.eabi_attribute 21, 1
   6              		.eabi_attribute 23, 3
   7              		.eabi_attribute 24, 1
   8              		.eabi_attribute 25, 1
   9              		.eabi_attribute 26, 1
  10              		.eabi_attribute 30, 2
  11              		.eabi_attribute 34, 1
  12              		.eabi_attribute 18, 4
  13              		.thumb
  14              		.file	"testevt.c"
  15              		.text
  16              	.Ltext0:
  17              		.cfi_sections	.debug_frame
  18              		.section	.text.evt3_setup,"ax",%progbits
  19              		.align	2
  20              		.p2align 4,,15
  21              		.thumb
  22              		.thumb_func
  23              		.type	evt3_setup, %function
  24              	evt3_setup:
  25              	.LFB16:
  26              		.file 1 "/home/dpeter/devel/sources/ChibiOS-RT/test/testevt.c"
  27              		.loc 1 247 0
  28              		.cfi_startproc
  29              		@ args = 0, pretend = 0, frame = 0
  30              		@ frame_needed = 0, uses_anonymous_args = 0
  31              		@ link register save eliminated.
  32              		.loc 1 249 0
  33 0000 4FF0FF30 		mov	r0, #-1
  34              		.loc 1 250 0
  35              		.loc 1 249 0
  36 0004 FFF7FEBF 		b	chEvtGetAndClearEvents
  37              	.LVL0:
  38              		.cfi_endproc
  39              	.LFE16:
  40              		.size	evt3_setup, .-evt3_setup
  41 0008 AFF30080 		.section	.text.evt2_setup,"ax",%progbits
  41      AFF30080 
  42              		.align	2
  43              		.p2align 4,,15
  44              		.thumb
  45              		.thumb_func
  46              		.type	evt2_setup, %function
  47              	evt2_setup:
  48              	.LFB12:
  49              		.loc 1 128 0
  50              		.cfi_startproc
  51              		@ args = 0, pretend = 0, frame = 0
  52              		@ frame_needed = 0, uses_anonymous_args = 0
  53              		@ link register save eliminated.
  54              		.loc 1 130 0
  55 0000 4FF0FF30 		mov	r0, #-1
  56              		.loc 1 131 0
ARM GAS  /tmp/ccWnp1Fj.s 			page 2


  57              		.loc 1 130 0
  58 0004 FFF7FEBF 		b	chEvtGetAndClearEvents
  59              	.LVL1:
  60              		.cfi_endproc
  61              	.LFE12:
  62              		.size	evt2_setup, .-evt2_setup
  63 0008 AFF30080 		.section	.text.evt1_setup,"ax",%progbits
  63      AFF30080 
  64              		.align	2
  65              		.p2align 4,,15
  66              		.thumb
  67              		.thumb_func
  68              		.type	evt1_setup, %function
  69              	evt1_setup:
  70              	.LFB7:
  71              		.loc 1 75 0
  72              		.cfi_startproc
  73              		@ args = 0, pretend = 0, frame = 0
  74              		@ frame_needed = 0, uses_anonymous_args = 0
  75              		@ link register save eliminated.
  76              		.loc 1 77 0
  77 0000 4FF0FF30 		mov	r0, #-1
  78              		.loc 1 78 0
  79              		.loc 1 77 0
  80 0004 FFF7FEBF 		b	chEvtGetAndClearEvents
  81              	.LVL2:
  82              		.cfi_endproc
  83              	.LFE7:
  84              		.size	evt1_setup, .-evt1_setup
  85 0008 AFF30080 		.section	.text.evt2_execute,"ax",%progbits
  85      AFF30080 
  86              		.align	2
  87              		.p2align 4,,15
  88              		.thumb
  89              		.thumb_func
  90              		.type	evt2_execute, %function
  91              	evt2_execute:
  92              	.LFB15:
  93              		.loc 1 149 0
  94              		.cfi_startproc
  95              		@ args = 0, pretend = 0, frame = 40
  96              		@ frame_needed = 0, uses_anonymous_args = 0
  97 0000 2DE9F042 		push	{r4, r5, r6, r7, r9, lr}
  98              	.LCFI0:
  99              		.cfi_def_cfa_offset 24
 100              		.cfi_offset 4, -24
 101              		.cfi_offset 5, -20
 102              		.cfi_offset 6, -16
 103              		.cfi_offset 7, -12
 104              		.cfi_offset 9, -8
 105              		.cfi_offset 14, -4
 106              		.loc 1 157 0
 107 0004 0520     		movs	r0, #5
 108              		.loc 1 149 0
 109 0006 8CB0     		sub	sp, sp, #48
 110              	.LCFI1:
 111              		.cfi_def_cfa_offset 72
ARM GAS  /tmp/ccWnp1Fj.s 			page 3


 112              		.loc 1 157 0
 113 0008 FFF7FEFF 		bl	chEvtAddEvents
 114              	.LVL3:
 115              		.loc 1 158 0
 116 000c 4FF0FF30 		mov	r0, #-1
 117 0010 FFF7FEFF 		bl	chEvtWaitOne
 118              	.LVL4:
 119              		.loc 1 159 0
 120 0014 0138     		subs	r0, r0, #1
 121              	.LVL5:
 122 0016 4142     		rsbs	r1, r0, #0
 123 0018 4141     		adcs	r1, r1, r0
 124 001a 0120     		movs	r0, #1
 125              	.LVL6:
 126 001c FFF7FEFF 		bl	_test_assert
 127              	.LVL7:
 128 0020 10B1     		cbz	r0, .L8
 129              	.L4:
 130              		.loc 1 222 0
 131 0022 0CB0     		add	sp, sp, #48
 132 0024 BDE8F082 		pop	{r4, r5, r6, r7, r9, pc}
 133              	.L8:
 134              		.loc 1 160 0
 135 0028 4FF0FF30 		mov	r0, #-1
 136 002c FFF7FEFF 		bl	chEvtWaitOne
 137              	.LVL8:
 138              		.loc 1 161 0
 139 0030 021F     		subs	r2, r0, #4
 140 0032 5142     		rsbs	r1, r2, #0
 141 0034 5141     		adcs	r1, r1, r2
 142 0036 0220     		movs	r0, #2
 143              	.LVL9:
 144 0038 FFF7FEFF 		bl	_test_assert
 145              	.LVL10:
 146 003c 0028     		cmp	r0, #0
 147 003e F0D1     		bne	.L4
 148              		.loc 1 162 0
 149 0040 4FF0FF30 		mov	r0, #-1
 150 0044 FFF7FEFF 		bl	chEvtGetAndClearEvents
 151              	.LVL11:
 152              		.loc 1 163 0
 153 0048 D0F10101 		rsbs	r1, r0, #1
 154 004c 38BF     		it	cc
 155 004e 0021     		movcc	r1, #0
 156 0050 0320     		movs	r0, #3
 157              	.LVL12:
 158 0052 FFF7FEFF 		bl	_test_assert
 159              	.LVL13:
 160 0056 0028     		cmp	r0, #0
 161 0058 E3D1     		bne	.L4
 162              		.loc 1 170 0
 163 005a 754D     		ldr	r5, .L9
 164              		.loc 1 169 0
 165 005c 754F     		ldr	r7, .L9+4
 166              		.loc 1 170 0
 167 005e 764E     		ldr	r6, .L9+8
 168              		.loc 1 168 0
ARM GAS  /tmp/ccWnp1Fj.s 			page 4


 169 0060 FFF7FEFF 		bl	test_wait_tick
 170              	.LVL14:
 171              		.loc 1 170 0
 172 0064 754B     		ldr	r3, .L9+12
 173 0066 A969     		ldr	r1, [r5, #24]
 174 0068 1B68     		ldr	r3, [r3, #0]
 175 006a 8A68     		ldr	r2, [r1, #8]
 176 006c 0393     		str	r3, [sp, #12]
 177 006e 0091     		str	r1, [sp, #0]
 178 0070 013A     		subs	r2, r2, #1
 179 0072 4FF49871 		mov	r1, #304
 180 0076 724B     		ldr	r3, .L9+16
 181 0078 0398     		ldr	r0, [sp, #12]
 182              		.loc 1 169 0
 183 007a FC68     		ldr	r4, [r7, #12]
 184              	.LVL15:
 185              		.loc 1 170 0
 186 007c FFF7FEFF 		bl	chThdCreateStatic
 187              	.LVL16:
 188 0080 3060     		str	r0, [r6, #0]
 189              		.loc 1 172 0
 190 0082 4FF0FF30 		mov	r0, #-1
 191 0086 FFF7FEFF 		bl	chEvtWaitOne
 192              	.LVL17:
 193              		.loc 1 173 0
 194 008a 04F13201 		add	r1, r4, #50
 195              	.LVL18:
 196              		.loc 1 172 0
 197 008e 8146     		mov	r9, r0
 198              	.LVL19:
 199              		.loc 1 173 0
 200 0090 04F13702 		add	r2, r4, #55
 201 0094 0420     		movs	r0, #4
 202              	.LVL20:
 203 0096 FFF7FEFF 		bl	_test_assert_time_window
 204              	.LVL21:
 205 009a 0028     		cmp	r0, #0
 206 009c C1D1     		bne	.L4
 207              		.loc 1 174 0
 208 009e 0520     		movs	r0, #5
 209 00a0 B9F10103 		subs	r3, r9, #1
 210 00a4 5942     		rsbs	r1, r3, #0
 211 00a6 5941     		adcs	r1, r1, r3
 212 00a8 FFF7FEFF 		bl	_test_assert
 213              	.LVL22:
 214 00ac 0028     		cmp	r0, #0
 215 00ae B8D1     		bne	.L4
 216              		.loc 1 175 0
 217 00b0 4FF0FF30 		mov	r0, #-1
 218 00b4 FFF7FEFF 		bl	chEvtGetAndClearEvents
 219              	.LVL23:
 220              		.loc 1 176 0
 221 00b8 D0F10101 		rsbs	r1, r0, #1
 222 00bc 38BF     		it	cc
 223 00be 0021     		movcc	r1, #0
 224 00c0 0620     		movs	r0, #6
 225              	.LVL24:
ARM GAS  /tmp/ccWnp1Fj.s 			page 5


 226 00c2 FFF7FEFF 		bl	_test_assert
 227              	.LVL25:
 228 00c6 0028     		cmp	r0, #0
 229 00c8 ABD1     		bne	.L4
 230              		.loc 1 177 0
 231 00ca FFF7FEFF 		bl	test_wait_threads
 232              	.LVL26:
 233              		.loc 1 182 0
 234 00ce 0520     		movs	r0, #5
 235 00d0 FFF7FEFF 		bl	chEvtAddEvents
 236              	.LVL27:
 237              		.loc 1 183 0
 238 00d4 4FF0FF30 		mov	r0, #-1
 239 00d8 FFF7FEFF 		bl	chEvtWaitAny
 240              	.LVL28:
 241              		.loc 1 184 0
 242 00dc B0F1050C 		subs	ip, r0, #5
 243 00e0 DCF10001 		rsbs	r1, ip, #0
 244 00e4 51EB0C01 		adcs	r1, r1, ip
 245 00e8 0720     		movs	r0, #7
 246              	.LVL29:
 247 00ea FFF7FEFF 		bl	_test_assert
 248              	.LVL30:
 249 00ee 0028     		cmp	r0, #0
 250 00f0 97D1     		bne	.L4
 251              		.loc 1 185 0
 252 00f2 4FF0FF30 		mov	r0, #-1
 253 00f6 FFF7FEFF 		bl	chEvtGetAndClearEvents
 254              	.LVL31:
 255              		.loc 1 186 0
 256 00fa D0F10101 		rsbs	r1, r0, #1
 257 00fe 38BF     		it	cc
 258 0100 0021     		movcc	r1, #0
 259 0102 0820     		movs	r0, #8
 260              	.LVL32:
 261 0104 FFF7FEFF 		bl	_test_assert
 262              	.LVL33:
 263 0108 0028     		cmp	r0, #0
 264 010a 8AD1     		bne	.L4
 265              		.loc 1 191 0
 266 010c FFF7FEFF 		bl	test_wait_tick
 267              	.LVL34:
 268              		.loc 1 193 0
 269 0110 A969     		ldr	r1, [r5, #24]
 270 0112 4B4B     		ldr	r3, .L9+16
 271 0114 8A68     		ldr	r2, [r1, #8]
 272 0116 0398     		ldr	r0, [sp, #12]
 273 0118 0091     		str	r1, [sp, #0]
 274 011a 013A     		subs	r2, r2, #1
 275 011c 4FF49871 		mov	r1, #304
 276              		.loc 1 192 0
 277 0120 FC68     		ldr	r4, [r7, #12]
 278              	.LVL35:
 279              		.loc 1 193 0
 280 0122 FFF7FEFF 		bl	chThdCreateStatic
 281              	.LVL36:
 282 0126 3060     		str	r0, [r6, #0]
ARM GAS  /tmp/ccWnp1Fj.s 			page 6


 283              		.loc 1 195 0
 284 0128 4FF0FF30 		mov	r0, #-1
 285 012c FFF7FEFF 		bl	chEvtWaitAny
 286              	.LVL37:
 287              		.loc 1 196 0
 288 0130 04F13201 		add	r1, r4, #50
 289              	.LVL38:
 290              		.loc 1 195 0
 291 0134 8146     		mov	r9, r0
 292              	.LVL39:
 293              		.loc 1 196 0
 294 0136 04F13702 		add	r2, r4, #55
 295 013a 0920     		movs	r0, #9
 296              	.LVL40:
 297 013c FFF7FEFF 		bl	_test_assert_time_window
 298              	.LVL41:
 299 0140 0028     		cmp	r0, #0
 300 0142 7FF46EAF 		bne	.L4
 301              		.loc 1 197 0
 302 0146 0A20     		movs	r0, #10
 303 0148 B9F1010E 		subs	lr, r9, #1
 304 014c DEF10001 		rsbs	r1, lr, #0
 305 0150 51EB0E01 		adcs	r1, r1, lr
 306 0154 FFF7FEFF 		bl	_test_assert
 307              	.LVL42:
 308 0158 0028     		cmp	r0, #0
 309 015a 7FF462AF 		bne	.L4
 310              		.loc 1 198 0
 311 015e 4FF0FF30 		mov	r0, #-1
 312 0162 FFF7FEFF 		bl	chEvtGetAndClearEvents
 313              	.LVL43:
 314              		.loc 1 199 0
 315 0166 D0F10101 		rsbs	r1, r0, #1
 316 016a 38BF     		it	cc
 317 016c 0021     		movcc	r1, #0
 318 016e 0B20     		movs	r0, #11
 319              	.LVL44:
 320 0170 FFF7FEFF 		bl	_test_assert
 321              	.LVL45:
 322 0174 0028     		cmp	r0, #0
 323 0176 7FF454AF 		bne	.L4
 324              		.loc 1 205 0
 325 017a DFF8D490 		ldr	r9, .L9+32
 326              		.loc 1 206 0
 327 017e 314C     		ldr	r4, .L9+20
 328              	.LVL46:
 329              		.loc 1 200 0
 330 0180 FFF7FEFF 		bl	test_wait_threads
 331              	.LVL47:
 332              		.loc 1 207 0
 333 0184 4846     		mov	r0, r9
 334 0186 04A9     		add	r1, sp, #16
 335 0188 0122     		movs	r2, #1
 336              		.loc 1 205 0
 337 018a C9F80090 		str	r9, [r9, #0]
 338              		.loc 1 206 0
 339 018e 2460     		str	r4, [r4, #0]
ARM GAS  /tmp/ccWnp1Fj.s 			page 7


 340              		.loc 1 207 0
 341 0190 FFF7FEFF 		bl	chEvtRegisterMask
 342              	.LVL48:
 343              		.loc 1 208 0
 344 0194 08A9     		add	r1, sp, #32
 345 0196 0422     		movs	r2, #4
 346 0198 2046     		mov	r0, r4
 347 019a FFF7FEFF 		bl	chEvtRegisterMask
 348              	.LVL49:
 349              		.loc 1 209 0
 350 019e FFF7FEFF 		bl	test_wait_tick
 351              	.LVL50:
 352              		.loc 1 211 0
 353 01a2 AB69     		ldr	r3, [r5, #24]
 354 01a4 2849     		ldr	r1, .L9+24
 355 01a6 9A68     		ldr	r2, [r3, #8]
 356 01a8 0398     		ldr	r0, [sp, #12]
 357 01aa 0091     		str	r1, [sp, #0]
 358 01ac 013A     		subs	r2, r2, #1
 359 01ae 4FF49871 		mov	r1, #304
 360 01b2 264B     		ldr	r3, .L9+28
 361              		.loc 1 210 0
 362 01b4 FD68     		ldr	r5, [r7, #12]
 363              	.LVL51:
 364              		.loc 1 211 0
 365 01b6 FFF7FEFF 		bl	chThdCreateStatic
 366              	.LVL52:
 367 01ba 3060     		str	r0, [r6, #0]
 368              		.loc 1 213 0
 369 01bc 0520     		movs	r0, #5
 370 01be FFF7FEFF 		bl	chEvtWaitAll
 371              	.LVL53:
 372              		.loc 1 214 0
 373 01c2 0C20     		movs	r0, #12
 374 01c4 05F13201 		add	r1, r5, #50
 375              	.LVL54:
 376 01c8 05F13702 		add	r2, r5, #55
 377 01cc FFF7FEFF 		bl	_test_assert_time_window
 378              	.LVL55:
 379 01d0 0028     		cmp	r0, #0
 380 01d2 7FF426AF 		bne	.L4
 381              		.loc 1 215 0
 382 01d6 4FF0FF30 		mov	r0, #-1
 383 01da FFF7FEFF 		bl	chEvtGetAndClearEvents
 384              	.LVL56:
 385              		.loc 1 216 0
 386 01de D0F10101 		rsbs	r1, r0, #1
 387 01e2 38BF     		it	cc
 388 01e4 0021     		movcc	r1, #0
 389 01e6 0D20     		movs	r0, #13
 390              	.LVL57:
 391 01e8 FFF7FEFF 		bl	_test_assert
 392              	.LVL58:
 393 01ec 0028     		cmp	r0, #0
 394 01ee 7FF418AF 		bne	.L4
 395              		.loc 1 217 0
 396 01f2 FFF7FEFF 		bl	test_wait_threads
ARM GAS  /tmp/ccWnp1Fj.s 			page 8


 397              	.LVL59:
 398              		.loc 1 218 0
 399 01f6 4846     		mov	r0, r9
 400 01f8 04A9     		add	r1, sp, #16
 401 01fa FFF7FEFF 		bl	chEvtUnregister
 402              	.LVL60:
 403              		.loc 1 219 0
 404 01fe 2046     		mov	r0, r4
 405 0200 08A9     		add	r1, sp, #32
 406 0202 FFF7FEFF 		bl	chEvtUnregister
 407              	.LVL61:
 408              		.loc 1 220 0
 409 0206 D9F80010 		ldr	r1, [r9, #0]
 410 020a 0E20     		movs	r0, #14
 411 020c B1EB0902 		subs	r2, r1, r9
 412 0210 5142     		rsbs	r1, r2, #0
 413 0212 5141     		adcs	r1, r1, r2
 414 0214 FFF7FEFF 		bl	_test_assert
 415              	.LVL62:
 416 0218 0028     		cmp	r0, #0
 417 021a 7FF402AF 		bne	.L4
 418              		.loc 1 221 0
 419 021e 2168     		ldr	r1, [r4, #0]
 420 0220 0F20     		movs	r0, #15
 421 0222 0B1B     		subs	r3, r1, r4
 422 0224 5942     		rsbs	r1, r3, #0
 423 0226 5941     		adcs	r1, r1, r3
 424 0228 FFF7FEFF 		bl	_test_assert
 425              	.LVL63:
 426 022c F9E6     		b	.L4
 427              	.L10:
 428 022e 00BF     		.align	2
 429              	.L9:
 430 0230 00000000 		.word	rlist
 431 0234 00000000 		.word	vtlist
 432 0238 00000000 		.word	threads
 433 023c 00000000 		.word	wa
 434 0240 00000000 		.word	thread1
 435 0244 00000000 		.word	.LANCHOR1
 436 0248 00000000 		.word	.LC0
 437 024c 00000000 		.word	thread2
 438 0250 00000000 		.word	.LANCHOR0
 439              		.cfi_endproc
 440              	.LFE15:
 441              		.size	evt2_execute, .-evt2_execute
 442 0254 AFF30080 		.section	.text.thread2,"ax",%progbits
 442      AFF30080 
 442      AFF30080 
 443              		.align	2
 444              		.p2align 4,,15
 445              		.thumb
 446              		.thumb_func
 447              		.type	thread2, %function
 448              	thread2:
 449              	.LFB14:
 450              		.loc 1 140 0
 451              		.cfi_startproc
ARM GAS  /tmp/ccWnp1Fj.s 			page 9


 452              		@ args = 0, pretend = 0, frame = 0
 453              		@ frame_needed = 0, uses_anonymous_args = 0
 454              	.LVL64:
 455 0000 08B5     		push	{r3, lr}
 456              	.LCFI2:
 457              		.cfi_def_cfa_offset 8
 458              		.cfi_offset 3, -8
 459              		.cfi_offset 14, -4
 460              		.loc 1 143 0
 461 0002 0021     		movs	r1, #0
 462 0004 0548     		ldr	r0, .L12
 463              	.LVL65:
 464 0006 FFF7FEFF 		bl	chEvtBroadcastFlags
 465              	.LVL66:
 466              		.loc 1 144 0
 467 000a 3220     		movs	r0, #50
 468 000c FFF7FEFF 		bl	chThdSleep
 469              	.LVL67:
 470              		.loc 1 145 0
 471 0010 0348     		ldr	r0, .L12+4
 472 0012 0021     		movs	r1, #0
 473 0014 FFF7FEFF 		bl	chEvtBroadcastFlags
 474              	.LVL68:
 475              		.loc 1 147 0
 476 0018 0020     		movs	r0, #0
 477 001a 08BD     		pop	{r3, pc}
 478              	.L13:
 479              		.align	2
 480              	.L12:
 481 001c 00000000 		.word	.LANCHOR0
 482 0020 00000000 		.word	.LANCHOR1
 483              		.cfi_endproc
 484              	.LFE14:
 485              		.size	thread2, .-thread2
 486 0024 AFF30080 		.section	.text.thread1,"ax",%progbits
 486      AFF30080 
 486      AFF30080 
 487              		.align	2
 488              		.p2align 4,,15
 489              		.thumb
 490              		.thumb_func
 491              		.type	thread1, %function
 492              	thread1:
 493              	.LFB13:
 494              		.loc 1 133 0
 495              		.cfi_startproc
 496              		@ args = 0, pretend = 0, frame = 0
 497              		@ frame_needed = 0, uses_anonymous_args = 0
 498              	.LVL69:
 499 0000 10B5     		push	{r4, lr}
 500              	.LCFI3:
 501              		.cfi_def_cfa_offset 8
 502              		.cfi_offset 4, -8
 503              		.cfi_offset 14, -4
 504              		.loc 1 133 0
 505 0002 0446     		mov	r4, r0
 506              		.loc 1 135 0
ARM GAS  /tmp/ccWnp1Fj.s 			page 10


 507 0004 3220     		movs	r0, #50
 508              	.LVL70:
 509 0006 FFF7FEFF 		bl	chThdSleep
 510              	.LVL71:
 511              		.loc 1 136 0
 512 000a 2046     		mov	r0, r4
 513 000c 0121     		movs	r1, #1
 514 000e FFF7FEFF 		bl	chEvtSignal
 515              	.LVL72:
 516              		.loc 1 138 0
 517 0012 0020     		movs	r0, #0
 518 0014 10BD     		pop	{r4, pc}
 519              		.cfi_endproc
 520              	.LFE13:
 521              		.size	thread1, .-thread1
 522 0016 00BFAFF3 		.section	.text.evt1_execute,"ax",%progbits
 522      0080AFF3 
 522      0080
 523              		.align	2
 524              		.p2align 4,,15
 525              		.thumb
 526              		.thumb_func
 527              		.type	evt1_execute, %function
 528              	evt1_execute:
 529              	.LFB11:
 530              		.loc 1 85 0
 531              		.cfi_startproc
 532              		@ args = 0, pretend = 0, frame = 32
 533              		@ frame_needed = 0, uses_anonymous_args = 0
 534 0000 10B5     		push	{r4, lr}
 535              	.LCFI4:
 536              		.cfi_def_cfa_offset 8
 537              		.cfi_offset 4, -8
 538              		.cfi_offset 14, -4
 539              		.loc 1 91 0
 540 0002 1E4C     		ldr	r4, .L19
 541              		.loc 1 85 0
 542 0004 88B0     		sub	sp, sp, #32
 543              	.LCFI5:
 544              		.cfi_def_cfa_offset 40
 545              		.loc 1 92 0
 546 0006 0122     		movs	r2, #1
 547 0008 2046     		mov	r0, r4
 548 000a 6946     		mov	r1, sp
 549              		.loc 1 91 0
 550 000c 2460     		str	r4, [r4, #0]
 551              		.loc 1 92 0
 552 000e FFF7FEFF 		bl	chEvtRegisterMask
 553              	.LVL73:
 554              		.loc 1 93 0
 555 0012 2046     		mov	r0, r4
 556 0014 04A9     		add	r1, sp, #16
 557 0016 0222     		movs	r2, #2
 558 0018 FFF7FEFF 		bl	chEvtRegisterMask
 559              	.LVL74:
 560              		.loc 1 94 0
 561 001c 2168     		ldr	r1, [r4, #0]
ARM GAS  /tmp/ccWnp1Fj.s 			page 11


 562 001e 0120     		movs	r0, #1
 563 0020 091B     		subs	r1, r1, r4
 564 0022 18BF     		it	ne
 565 0024 0121     		movne	r1, #1
 566 0026 FFF7FEFF 		bl	_test_assert
 567              	.LVL75:
 568 002a 08B1     		cbz	r0, .L18
 569              	.L15:
 570              		.loc 1 105 0
 571 002c 08B0     		add	sp, sp, #32
 572 002e 10BD     		pop	{r4, pc}
 573              	.L18:
 574              		.loc 1 95 0
 575 0030 2046     		mov	r0, r4
 576 0032 6946     		mov	r1, sp
 577 0034 FFF7FEFF 		bl	chEvtUnregister
 578              	.LVL76:
 579              		.loc 1 96 0
 580 0038 2168     		ldr	r1, [r4, #0]
 581 003a 0220     		movs	r0, #2
 582 003c 091B     		subs	r1, r1, r4
 583 003e 18BF     		it	ne
 584 0040 0121     		movne	r1, #1
 585 0042 FFF7FEFF 		bl	_test_assert
 586              	.LVL77:
 587 0046 0028     		cmp	r0, #0
 588 0048 F0D1     		bne	.L15
 589              		.loc 1 97 0
 590 004a 2046     		mov	r0, r4
 591 004c 04A9     		add	r1, sp, #16
 592 004e FFF7FEFF 		bl	chEvtUnregister
 593              	.LVL78:
 594              		.loc 1 98 0
 595 0052 2168     		ldr	r1, [r4, #0]
 596 0054 0320     		movs	r0, #3
 597 0056 B1EB040E 		subs	lr, r1, r4
 598 005a DEF10001 		rsbs	r1, lr, #0
 599 005e 51EB0E01 		adcs	r1, r1, lr
 600 0062 FFF7FEFF 		bl	_test_assert
 601              	.LVL79:
 602 0066 0028     		cmp	r0, #0
 603 0068 E0D1     		bne	.L15
 604              		.loc 1 103 0
 605 006a 0721     		movs	r1, #7
 606 006c 0448     		ldr	r0, .L19+4
 607 006e FFF7FEFF 		bl	chEvtDispatch
 608              	.LVL80:
 609              		.loc 1 104 0
 610 0072 0420     		movs	r0, #4
 611 0074 0349     		ldr	r1, .L19+8
 612 0076 FFF7FEFF 		bl	_test_assert_sequence
 613              	.LVL81:
 614 007a D7E7     		b	.L15
 615              	.L20:
 616              		.align	2
 617              	.L19:
 618 007c 00000000 		.word	.LANCHOR0
ARM GAS  /tmp/ccWnp1Fj.s 			page 12


 619 0080 00000000 		.word	.LANCHOR2
 620 0084 04000000 		.word	.LC1
 621              		.cfi_endproc
 622              	.LFE11:
 623              		.size	evt1_execute, .-evt1_execute
 624 0088 AFF30080 		.section	.text.h3,"ax",%progbits
 624      AFF30080 
 625              		.align	2
 626              		.p2align 4,,15
 627              		.thumb
 628              		.thumb_func
 629              		.type	h3, %function
 630              	h3:
 631              	.LFB10:
 632              		.loc 1 82 0
 633              		.cfi_startproc
 634              		@ args = 0, pretend = 0, frame = 0
 635              		@ frame_needed = 0, uses_anonymous_args = 0
 636              		@ link register save eliminated.
 637              	.LVL82:
 638              		.loc 1 82 0
 639 0000 4320     		movs	r0, #67
 640              	.LVL83:
 641 0002 FFF7FEBF 		b	test_emit_token
 642              	.LVL84:
 643              		.cfi_endproc
 644              	.LFE10:
 645              		.size	h3, .-h3
 646 0006 00BFAFF3 		.section	.text.h2,"ax",%progbits
 646      0080AFF3 
 646      0080
 647              		.align	2
 648              		.p2align 4,,15
 649              		.thumb
 650              		.thumb_func
 651              		.type	h2, %function
 652              	h2:
 653              	.LFB9:
 654              		.loc 1 81 0
 655              		.cfi_startproc
 656              		@ args = 0, pretend = 0, frame = 0
 657              		@ frame_needed = 0, uses_anonymous_args = 0
 658              		@ link register save eliminated.
 659              	.LVL85:
 660              		.loc 1 81 0
 661 0000 4220     		movs	r0, #66
 662              	.LVL86:
 663 0002 FFF7FEBF 		b	test_emit_token
 664              	.LVL87:
 665              		.cfi_endproc
 666              	.LFE9:
 667              		.size	h2, .-h2
 668 0006 00BFAFF3 		.section	.text.h1,"ax",%progbits
 668      0080AFF3 
 668      0080
 669              		.align	2
 670              		.p2align 4,,15
ARM GAS  /tmp/ccWnp1Fj.s 			page 13


 671              		.thumb
 672              		.thumb_func
 673              		.type	h1, %function
 674              	h1:
 675              	.LFB8:
 676              		.loc 1 80 0
 677              		.cfi_startproc
 678              		@ args = 0, pretend = 0, frame = 0
 679              		@ frame_needed = 0, uses_anonymous_args = 0
 680              		@ link register save eliminated.
 681              	.LVL88:
 682              		.loc 1 80 0
 683 0000 4120     		movs	r0, #65
 684              	.LVL89:
 685 0002 FFF7FEBF 		b	test_emit_token
 686              	.LVL90:
 687              		.cfi_endproc
 688              	.LFE8:
 689              		.size	h1, .-h1
 690 0006 00BFAFF3 		.section	.text.evt3_execute,"ax",%progbits
 690      0080AFF3 
 690      0080
 691              		.align	2
 692              		.p2align 4,,15
 693              		.thumb
 694              		.thumb_func
 695              		.type	evt3_execute, %function
 696              	evt3_execute:
 697              	.LFB17:
 698              		.loc 1 252 0
 699              		.cfi_startproc
 700              		@ args = 0, pretend = 0, frame = 0
 701              		@ frame_needed = 0, uses_anonymous_args = 0
 702 0000 08B5     		push	{r3, lr}
 703              	.LCFI6:
 704              		.cfi_def_cfa_offset 8
 705              		.cfi_offset 3, -8
 706              		.cfi_offset 14, -4
 707              		.loc 1 258 0
 708 0002 0021     		movs	r1, #0
 709 0004 4FF0FF30 		mov	r0, #-1
 710 0008 FFF7FEFF 		bl	chEvtWaitOneTimeout
 711              	.LVL91:
 712              		.loc 1 259 0
 713 000c D0F10101 		rsbs	r1, r0, #1
 714 0010 38BF     		it	cc
 715 0012 0021     		movcc	r1, #0
 716 0014 0120     		movs	r0, #1
 717              	.LVL92:
 718 0016 FFF7FEFF 		bl	_test_assert
 719              	.LVL93:
 720 001a 00B1     		cbz	r0, .L28
 721              	.L24:
 722 001c 08BD     		pop	{r3, pc}
 723              	.L28:
 724              		.loc 1 260 0
 725 001e 0146     		mov	r1, r0
ARM GAS  /tmp/ccWnp1Fj.s 			page 14


 726 0020 4FF0FF30 		mov	r0, #-1
 727 0024 FFF7FEFF 		bl	chEvtWaitAnyTimeout
 728              	.LVL94:
 729              		.loc 1 261 0
 730 0028 D0F10101 		rsbs	r1, r0, #1
 731 002c 38BF     		it	cc
 732 002e 0021     		movcc	r1, #0
 733 0030 0220     		movs	r0, #2
 734              	.LVL95:
 735 0032 FFF7FEFF 		bl	_test_assert
 736              	.LVL96:
 737 0036 0028     		cmp	r0, #0
 738 0038 F0D1     		bne	.L24
 739              		.loc 1 262 0
 740 003a 0146     		mov	r1, r0
 741 003c 4FF0FF30 		mov	r0, #-1
 742 0040 FFF7FEFF 		bl	chEvtWaitAllTimeout
 743              	.LVL97:
 744              		.loc 1 263 0
 745 0044 D0F10101 		rsbs	r1, r0, #1
 746 0048 38BF     		it	cc
 747 004a 0021     		movcc	r1, #0
 748 004c 0320     		movs	r0, #3
 749              	.LVL98:
 750 004e FFF7FEFF 		bl	_test_assert
 751              	.LVL99:
 752 0052 0028     		cmp	r0, #0
 753 0054 E2D1     		bne	.L24
 754              	.LBB4:
 755              	.LBB5:
 756              		.loc 1 264 0
 757 0056 0A21     		movs	r1, #10
 758 0058 4FF0FF30 		mov	r0, #-1
 759 005c FFF7FEFF 		bl	chEvtWaitOneTimeout
 760              	.LVL100:
 761              		.loc 1 265 0
 762 0060 D0F10101 		rsbs	r1, r0, #1
 763 0064 38BF     		it	cc
 764 0066 0021     		movcc	r1, #0
 765 0068 0420     		movs	r0, #4
 766              	.LVL101:
 767 006a FFF7FEFF 		bl	_test_assert
 768              	.LVL102:
 769 006e 0028     		cmp	r0, #0
 770 0070 D4D1     		bne	.L24
 771              		.loc 1 266 0
 772 0072 0A21     		movs	r1, #10
 773 0074 4FF0FF30 		mov	r0, #-1
 774 0078 FFF7FEFF 		bl	chEvtWaitAnyTimeout
 775              	.LVL103:
 776              		.loc 1 267 0
 777 007c D0F10101 		rsbs	r1, r0, #1
 778 0080 38BF     		it	cc
 779 0082 0021     		movcc	r1, #0
 780 0084 0520     		movs	r0, #5
 781              	.LVL104:
 782 0086 FFF7FEFF 		bl	_test_assert
ARM GAS  /tmp/ccWnp1Fj.s 			page 15


 783              	.LVL105:
 784 008a 0028     		cmp	r0, #0
 785 008c C6D1     		bne	.L24
 786              		.loc 1 268 0
 787 008e 0A21     		movs	r1, #10
 788 0090 4FF0FF30 		mov	r0, #-1
 789 0094 FFF7FEFF 		bl	chEvtWaitAllTimeout
 790              	.LVL106:
 791              		.loc 1 269 0
 792 0098 D0F10101 		rsbs	r1, r0, #1
 793 009c 38BF     		it	cc
 794 009e 0021     		movcc	r1, #0
 795 00a0 0620     		movs	r0, #6
 796              	.LVL107:
 797              	.LBE5:
 798              	.LBE4:
 799              		.loc 1 270 0
 800 00a2 BDE80840 		pop	{r3, lr}
 801              	.LBB7:
 802              	.LBB6:
 803              		.loc 1 269 0
 804 00a6 FFF7FEBF 		b	_test_assert
 805              	.LVL108:
 806              	.LBE6:
 807              	.LBE7:
 808              		.cfi_endproc
 809              	.LFE17:
 810              		.size	evt3_execute, .-evt3_execute
 811              		.global	patternevt
 812              		.global	testevt3
 813              		.global	testevt2
 814              		.global	testevt1
 815 00aa 00BFAFF3 		.section	.rodata.patternevt,"a",%progbits
 815      0080
 816              		.align	2
 817              		.type	patternevt, %object
 818              		.size	patternevt, 16
 819              	patternevt:
 820 0000 00000000 		.word	testevt1
 821 0004 00000000 		.word	testevt2
 822 0008 00000000 		.word	testevt3
 823 000c 00000000 		.word	0
 824              		.section	.rodata.testevt2,"a",%progbits
 825              		.align	2
 826              		.type	testevt2, %object
 827              		.size	testevt2, 16
 828              	testevt2:
 829 0000 1C000000 		.word	.LC3
 830 0004 00000000 		.word	evt2_setup
 831 0008 00000000 		.word	0
 832 000c 00000000 		.word	evt2_execute
 833              		.section	.rodata.str1.4,"aMS",%progbits,1
 834              		.align	2
 835              	.LC0:
 836 0000 4100     		.ascii	"A\000"
 837 0002 0000     		.space	2
 838              	.LC1:
ARM GAS  /tmp/ccWnp1Fj.s 			page 16


 839 0004 41424300 		.ascii	"ABC\000"
 840              	.LC2:
 841 0008 4576656E 		.ascii	"Events, timeouts\000"
 841      74732C20 
 841      74696D65 
 841      6F757473 
 841      00
 842 0019 000000   		.space	3
 843              	.LC3:
 844 001c 4576656E 		.ascii	"Events, wait and broadcast\000"
 844      74732C20 
 844      77616974 
 844      20616E64 
 844      2062726F 
 845 0037 00       		.space	1
 846              	.LC4:
 847 0038 4576656E 		.ascii	"Events, registration and dispatch\000"
 847      74732C20 
 847      72656769 
 847      73747261 
 847      74696F6E 
 848 005a 0000     		.section	.rodata.testevt1,"a",%progbits
 849              		.align	2
 850              		.type	testevt1, %object
 851              		.size	testevt1, 16
 852              	testevt1:
 853 0000 38000000 		.word	.LC4
 854 0004 00000000 		.word	evt1_setup
 855 0008 00000000 		.word	0
 856 000c 00000000 		.word	evt1_execute
 857              		.section	.rodata.evhndl,"a",%progbits
 858              		.align	2
 859              		.set	.LANCHOR2,. + 0
 860              		.type	evhndl, %object
 861              		.size	evhndl, 12
 862              	evhndl:
 863 0000 00000000 		.word	h1
 864 0004 00000000 		.word	h2
 865 0008 00000000 		.word	h3
 866              		.section	.rodata.testevt3,"a",%progbits
 867              		.align	2
 868              		.type	testevt3, %object
 869              		.size	testevt3, 16
 870              	testevt3:
 871 0000 08000000 		.word	.LC2
 872 0004 00000000 		.word	evt3_setup
 873 0008 00000000 		.word	0
 874 000c 00000000 		.word	evt3_execute
 875              		.section	.data.es1,"aw",%progbits
 876              		.align	2
 877              		.set	.LANCHOR0,. + 0
 878              		.type	es1, %object
 879              		.size	es1, 4
 880              	es1:
 881 0000 00000000 		.word	es1
 882              		.section	.data.es2,"aw",%progbits
 883              		.align	2
ARM GAS  /tmp/ccWnp1Fj.s 			page 17


 884              		.set	.LANCHOR1,. + 0
 885              		.type	es2, %object
 886              		.size	es2, 4
 887              	es2:
 888 0000 00000000 		.word	es2
 889              		.text
 890              	.Letext0:
 891              		.file 2 "/home/dpeter/CodeSourcery/Sourcery_CodeBench_Lite_for_ARM_EABI/bin/../lib/gcc/arm-none-ea
 892              		.file 3 "/home/dpeter/CodeSourcery/Sourcery_CodeBench_Lite_for_ARM_EABI/bin/../lib/gcc/arm-none-ea
 893              		.file 4 "/home/dpeter/devel/sources/ChibiOS-RT/os/ports/GCC/ARMCMx/chtypes.h"
 894              		.file 5 "/home/dpeter/devel/sources/ChibiOS-RT/os/kernel/include/chlists.h"
 895              		.file 6 "/home/dpeter/devel/sources/ChibiOS-RT/os/kernel/include/chthreads.h"
 896              		.file 7 "/home/dpeter/devel/sources/ChibiOS-RT/os/ports/GCC/ARMCMx/chcore_v7m.h"
 897              		.file 8 "/home/dpeter/devel/sources/ChibiOS-RT/os/kernel/include/chvt.h"
 898              		.file 9 "/home/dpeter/devel/sources/ChibiOS-RT/os/kernel/include/chschd.h"
 899              		.file 10 "/home/dpeter/devel/sources/ChibiOS-RT/os/kernel/include/chmtx.h"
 900              		.file 11 "/home/dpeter/devel/sources/ChibiOS-RT/os/kernel/include/chevents.h"
 901              		.file 12 "/home/dpeter/devel/sources/ChibiOS-RT/test/test.h"
 902              		.section	.debug_info,"",%progbits
 903              	.Ldebug_info0:
 904 0000 74110000 		.4byte	0x1174
 905 0004 0200     		.2byte	0x2
 906 0006 00000000 		.4byte	.Ldebug_abbrev0
 907 000a 04       		.byte	0x4
 908 000b 01       		.uleb128 0x1
 909 000c 4F030000 		.4byte	.LASF125
 910 0010 01       		.byte	0x1
 911 0011 7D000000 		.4byte	.LASF126
 912 0015 30000000 		.4byte	.Ldebug_ranges0+0x30
 913 0019 00000000 		.4byte	0
 914 001d 00000000 		.4byte	0
 915 0021 00000000 		.4byte	.Ldebug_line0
 916 0025 02       		.uleb128 0x2
 917 0026 04       		.byte	0x4
 918 0027 05       		.byte	0x5
 919 0028 696E7400 		.ascii	"int\000"
 920 002c 03       		.uleb128 0x3
 921 002d 19000000 		.4byte	.LASF2
 922 0031 02       		.byte	0x2
 923 0032 D5       		.byte	0xd5
 924 0033 37000000 		.4byte	0x37
 925 0037 04       		.uleb128 0x4
 926 0038 04       		.byte	0x4
 927 0039 07       		.byte	0x7
 928 003a D2010000 		.4byte	.LASF0
 929 003e 04       		.uleb128 0x4
 930 003f 01       		.byte	0x1
 931 0040 06       		.byte	0x6
 932 0041 D4000000 		.4byte	.LASF1
 933 0045 03       		.uleb128 0x3
 934 0046 EB040000 		.4byte	.LASF3
 935 004a 03       		.byte	0x3
 936 004b 2A       		.byte	0x2a
 937 004c 50000000 		.4byte	0x50
 938 0050 04       		.uleb128 0x4
 939 0051 01       		.byte	0x1
 940 0052 08       		.byte	0x8
ARM GAS  /tmp/ccWnp1Fj.s 			page 18


 941 0053 98030000 		.4byte	.LASF4
 942 0057 04       		.uleb128 0x4
 943 0058 02       		.byte	0x2
 944 0059 05       		.byte	0x5
 945 005a DF030000 		.4byte	.LASF5
 946 005e 04       		.uleb128 0x4
 947 005f 02       		.byte	0x2
 948 0060 07       		.byte	0x7
 949 0061 31020000 		.4byte	.LASF6
 950 0065 03       		.uleb128 0x3
 951 0066 90030000 		.4byte	.LASF7
 952 006a 03       		.byte	0x3
 953 006b 4F       		.byte	0x4f
 954 006c 70000000 		.4byte	0x70
 955 0070 04       		.uleb128 0x4
 956 0071 04       		.byte	0x4
 957 0072 05       		.byte	0x5
 958 0073 25010000 		.4byte	.LASF8
 959 0077 03       		.uleb128 0x3
 960 0078 4B040000 		.4byte	.LASF9
 961 007c 03       		.byte	0x3
 962 007d 50       		.byte	0x50
 963 007e 82000000 		.4byte	0x82
 964 0082 04       		.uleb128 0x4
 965 0083 04       		.byte	0x4
 966 0084 07       		.byte	0x7
 967 0085 E7010000 		.4byte	.LASF10
 968 0089 04       		.uleb128 0x4
 969 008a 08       		.byte	0x8
 970 008b 05       		.byte	0x5
 971 008c C6000000 		.4byte	.LASF11
 972 0090 04       		.uleb128 0x4
 973 0091 08       		.byte	0x8
 974 0092 07       		.byte	0x7
 975 0093 3A000000 		.4byte	.LASF12
 976 0097 03       		.uleb128 0x3
 977 0098 FC000000 		.4byte	.LASF13
 978 009c 04       		.byte	0x4
 979 009d 24       		.byte	0x24
 980 009e A2000000 		.4byte	0xa2
 981 00a2 04       		.uleb128 0x4
 982 00a3 01       		.byte	0x1
 983 00a4 02       		.byte	0x2
 984 00a5 8A030000 		.4byte	.LASF14
 985 00a9 03       		.uleb128 0x3
 986 00aa 74020000 		.4byte	.LASF15
 987 00ae 04       		.byte	0x4
 988 00af 25       		.byte	0x25
 989 00b0 45000000 		.4byte	0x45
 990 00b4 03       		.uleb128 0x3
 991 00b5 3A010000 		.4byte	.LASF16
 992 00b9 04       		.byte	0x4
 993 00ba 26       		.byte	0x26
 994 00bb 45000000 		.4byte	0x45
 995 00bf 03       		.uleb128 0x3
 996 00c0 6B030000 		.4byte	.LASF17
 997 00c4 04       		.byte	0x4
ARM GAS  /tmp/ccWnp1Fj.s 			page 19


 998 00c5 27       		.byte	0x27
 999 00c6 45000000 		.4byte	0x45
 1000 00ca 03       		.uleb128 0x3
 1001 00cb 1B010000 		.4byte	.LASF18
 1002 00cf 04       		.byte	0x4
 1003 00d0 28       		.byte	0x28
 1004 00d1 45000000 		.4byte	0x45
 1005 00d5 03       		.uleb128 0x3
 1006 00d6 82030000 		.4byte	.LASF19
 1007 00da 04       		.byte	0x4
 1008 00db 29       		.byte	0x29
 1009 00dc 77000000 		.4byte	0x77
 1010 00e0 03       		.uleb128 0x3
 1011 00e1 56020000 		.4byte	.LASF20
 1012 00e5 04       		.byte	0x4
 1013 00e6 2A       		.byte	0x2a
 1014 00e7 65000000 		.4byte	0x65
 1015 00eb 03       		.uleb128 0x3
 1016 00ec B0010000 		.4byte	.LASF21
 1017 00f0 04       		.byte	0x4
 1018 00f1 2B       		.byte	0x2b
 1019 00f2 65000000 		.4byte	0x65
 1020 00f6 03       		.uleb128 0x3
 1021 00f7 88020000 		.4byte	.LASF22
 1022 00fb 04       		.byte	0x4
 1023 00fc 2C       		.byte	0x2c
 1024 00fd 77000000 		.4byte	0x77
 1025 0101 03       		.uleb128 0x3
 1026 0102 BD040000 		.4byte	.LASF23
 1027 0106 04       		.byte	0x4
 1028 0107 2D       		.byte	0x2d
 1029 0108 77000000 		.4byte	0x77
 1030 010c 03       		.uleb128 0x3
 1031 010d 7F040000 		.4byte	.LASF24
 1032 0111 04       		.byte	0x4
 1033 0112 2E       		.byte	0x2e
 1034 0113 77000000 		.4byte	0x77
 1035 0117 03       		.uleb128 0x3
 1036 0118 20040000 		.4byte	.LASF25
 1037 011c 05       		.byte	0x5
 1038 011d 23       		.byte	0x23
 1039 011e 22010000 		.4byte	0x122
 1040 0122 05       		.uleb128 0x5
 1041 0123 20040000 		.4byte	.LASF25
 1042 0127 48       		.byte	0x48
 1043 0128 06       		.byte	0x6
 1044 0129 57       		.byte	0x57
 1045 012a 47020000 		.4byte	0x247
 1046 012e 06       		.uleb128 0x6
 1047 012f 11040000 		.4byte	.LASF26
 1048 0133 06       		.byte	0x6
 1049 0134 58       		.byte	0x58
 1050 0135 6C020000 		.4byte	0x26c
 1051 0139 02       		.byte	0x2
 1052 013a 23       		.byte	0x23
 1053 013b 00       		.uleb128 0
 1054 013c 06       		.uleb128 0x6
ARM GAS  /tmp/ccWnp1Fj.s 			page 20


 1055 013d 73030000 		.4byte	.LASF27
 1056 0141 06       		.byte	0x6
 1057 0142 5A       		.byte	0x5a
 1058 0143 6C020000 		.4byte	0x26c
 1059 0147 02       		.byte	0x2
 1060 0148 23       		.byte	0x23
 1061 0149 04       		.uleb128 0x4
 1062 014a 06       		.uleb128 0x6
 1063 014b B2000000 		.4byte	.LASF28
 1064 014f 06       		.byte	0x6
 1065 0150 5C       		.byte	0x5c
 1066 0151 D5000000 		.4byte	0xd5
 1067 0155 02       		.byte	0x2
 1068 0156 23       		.byte	0x23
 1069 0157 08       		.uleb128 0x8
 1070 0158 06       		.uleb128 0x6
 1071 0159 6E050000 		.4byte	.LASF29
 1072 015d 06       		.byte	0x6
 1073 015e 5D       		.byte	0x5d
 1074 015f 3A030000 		.4byte	0x33a
 1075 0163 02       		.byte	0x2
 1076 0164 23       		.byte	0x23
 1077 0165 0C       		.uleb128 0xc
 1078 0166 06       		.uleb128 0x6
 1079 0167 7B010000 		.4byte	.LASF30
 1080 016b 06       		.byte	0x6
 1081 016c 5F       		.byte	0x5f
 1082 016d 6C020000 		.4byte	0x26c
 1083 0171 02       		.byte	0x2
 1084 0172 23       		.byte	0x23
 1085 0173 10       		.uleb128 0x10
 1086 0174 06       		.uleb128 0x6
 1087 0175 FB020000 		.4byte	.LASF31
 1088 0179 06       		.byte	0x6
 1089 017a 60       		.byte	0x60
 1090 017b 6C020000 		.4byte	0x26c
 1091 017f 02       		.byte	0x2
 1092 0180 23       		.byte	0x23
 1093 0181 14       		.uleb128 0x14
 1094 0182 06       		.uleb128 0x6
 1095 0183 1C050000 		.4byte	.LASF32
 1096 0187 06       		.byte	0x6
 1097 0188 67       		.byte	0x67
 1098 0189 B4050000 		.4byte	0x5b4
 1099 018d 02       		.byte	0x2
 1100 018e 23       		.byte	0x23
 1101 018f 18       		.uleb128 0x18
 1102 0190 06       		.uleb128 0x6
 1103 0191 E9030000 		.4byte	.LASF33
 1104 0195 06       		.byte	0x6
 1105 0196 72       		.byte	0x72
 1106 0197 B4000000 		.4byte	0xb4
 1107 019b 02       		.byte	0x2
 1108 019c 23       		.byte	0x23
 1109 019d 1C       		.uleb128 0x1c
 1110 019e 06       		.uleb128 0x6
 1111 019f 18040000 		.4byte	.LASF34
ARM GAS  /tmp/ccWnp1Fj.s 			page 21


 1112 01a3 06       		.byte	0x6
 1113 01a4 76       		.byte	0x76
 1114 01a5 A9000000 		.4byte	0xa9
 1115 01a9 02       		.byte	0x2
 1116 01aa 23       		.byte	0x23
 1117 01ab 1D       		.uleb128 0x1d
 1118 01ac 06       		.uleb128 0x6
 1119 01ad D4040000 		.4byte	.LASF35
 1120 01b1 06       		.byte	0x6
 1121 01b2 7B       		.byte	0x7b
 1122 01b3 BF000000 		.4byte	0xbf
 1123 01b7 02       		.byte	0x2
 1124 01b8 23       		.byte	0x23
 1125 01b9 1E       		.uleb128 0x1e
 1126 01ba 06       		.uleb128 0x6
 1127 01bb F1030000 		.4byte	.LASF36
 1128 01bf 06       		.byte	0x6
 1129 01c0 81       		.byte	0x81
 1130 01c1 CA000000 		.4byte	0xca
 1131 01c5 02       		.byte	0x2
 1132 01c6 23       		.byte	0x23
 1133 01c7 1F       		.uleb128 0x1f
 1134 01c8 06       		.uleb128 0x6
 1135 01c9 9D040000 		.4byte	.LASF37
 1136 01cd 06       		.byte	0x6
 1137 01ce 88       		.byte	0x88
 1138 01cf 26040000 		.4byte	0x426
 1139 01d3 02       		.byte	0x2
 1140 01d4 23       		.byte	0x23
 1141 01d5 20       		.uleb128 0x20
 1142 01d6 07       		.uleb128 0x7
 1143 01d7 705F7500 		.ascii	"p_u\000"
 1144 01db 06       		.byte	0x6
 1145 01dc AD       		.byte	0xad
 1146 01dd 7F050000 		.4byte	0x57f
 1147 01e1 02       		.byte	0x2
 1148 01e2 23       		.byte	0x23
 1149 01e3 24       		.uleb128 0x24
 1150 01e4 06       		.uleb128 0x6
 1151 01e5 74050000 		.4byte	.LASF38
 1152 01e9 06       		.byte	0x6
 1153 01ea B2       		.byte	0xb2
 1154 01eb 94020000 		.4byte	0x294
 1155 01ef 02       		.byte	0x2
 1156 01f0 23       		.byte	0x23
 1157 01f1 28       		.uleb128 0x28
 1158 01f2 06       		.uleb128 0x6
 1159 01f3 AB040000 		.4byte	.LASF39
 1160 01f7 06       		.byte	0x6
 1161 01f8 B8       		.byte	0xb8
 1162 01f9 72020000 		.4byte	0x272
 1163 01fd 02       		.byte	0x2
 1164 01fe 23       		.byte	0x23
 1165 01ff 2C       		.uleb128 0x2c
 1166 0200 06       		.uleb128 0x6
 1167 0201 13000000 		.4byte	.LASF40
 1168 0205 06       		.byte	0x6
ARM GAS  /tmp/ccWnp1Fj.s 			page 22


 1169 0206 BC       		.byte	0xbc
 1170 0207 E0000000 		.4byte	0xe0
 1171 020b 02       		.byte	0x2
 1172 020c 23       		.byte	0x23
 1173 020d 34       		.uleb128 0x34
 1174 020e 06       		.uleb128 0x6
 1175 020f 30040000 		.4byte	.LASF41
 1176 0213 06       		.byte	0x6
 1177 0214 C2       		.byte	0xc2
 1178 0215 F6000000 		.4byte	0xf6
 1179 0219 02       		.byte	0x2
 1180 021a 23       		.byte	0x23
 1181 021b 38       		.uleb128 0x38
 1182 021c 06       		.uleb128 0x6
 1183 021d D5030000 		.4byte	.LASF42
 1184 0221 06       		.byte	0x6
 1185 0222 C9       		.byte	0xc9
 1186 0223 C6050000 		.4byte	0x5c6
 1187 0227 02       		.byte	0x2
 1188 0228 23       		.byte	0x23
 1189 0229 3C       		.uleb128 0x3c
 1190 022a 06       		.uleb128 0x6
 1191 022b 89040000 		.4byte	.LASF43
 1192 022f 06       		.byte	0x6
 1193 0230 CD       		.byte	0xcd
 1194 0231 D5000000 		.4byte	0xd5
 1195 0235 02       		.byte	0x2
 1196 0236 23       		.byte	0x23
 1197 0237 40       		.uleb128 0x40
 1198 0238 06       		.uleb128 0x6
 1199 0239 F4000000 		.4byte	.LASF44
 1200 023d 06       		.byte	0x6
 1201 023e D3       		.byte	0xd3
 1202 023f AA020000 		.4byte	0x2aa
 1203 0243 02       		.byte	0x2
 1204 0244 23       		.byte	0x23
 1205 0245 44       		.uleb128 0x44
 1206 0246 00       		.byte	0
 1207 0247 08       		.uleb128 0x8
 1208 0248 08       		.byte	0x8
 1209 0249 05       		.byte	0x5
 1210 024a 5A       		.byte	0x5a
 1211 024b 6C020000 		.4byte	0x26c
 1212 024f 06       		.uleb128 0x6
 1213 0250 11040000 		.4byte	.LASF26
 1214 0254 05       		.byte	0x5
 1215 0255 5B       		.byte	0x5b
 1216 0256 6C020000 		.4byte	0x26c
 1217 025a 02       		.byte	0x2
 1218 025b 23       		.byte	0x23
 1219 025c 00       		.uleb128 0
 1220 025d 06       		.uleb128 0x6
 1221 025e 73030000 		.4byte	.LASF27
 1222 0262 05       		.byte	0x5
 1223 0263 5D       		.byte	0x5d
 1224 0264 6C020000 		.4byte	0x26c
 1225 0268 02       		.byte	0x2
ARM GAS  /tmp/ccWnp1Fj.s 			page 23


 1226 0269 23       		.byte	0x23
 1227 026a 04       		.uleb128 0x4
 1228 026b 00       		.byte	0
 1229 026c 09       		.uleb128 0x9
 1230 026d 04       		.byte	0x4
 1231 026e 17010000 		.4byte	0x117
 1232 0272 03       		.uleb128 0x3
 1233 0273 19030000 		.4byte	.LASF45
 1234 0277 05       		.byte	0x5
 1235 0278 5F       		.byte	0x5f
 1236 0279 47020000 		.4byte	0x247
 1237 027d 08       		.uleb128 0x8
 1238 027e 04       		.byte	0x4
 1239 027f 05       		.byte	0x5
 1240 0280 64       		.byte	0x64
 1241 0281 94020000 		.4byte	0x294
 1242 0285 06       		.uleb128 0x6
 1243 0286 11040000 		.4byte	.LASF26
 1244 028a 05       		.byte	0x5
 1245 028b 66       		.byte	0x66
 1246 028c 6C020000 		.4byte	0x26c
 1247 0290 02       		.byte	0x2
 1248 0291 23       		.byte	0x23
 1249 0292 00       		.uleb128 0
 1250 0293 00       		.byte	0
 1251 0294 03       		.uleb128 0x3
 1252 0295 7C020000 		.4byte	.LASF46
 1253 0299 05       		.byte	0x5
 1254 029a 69       		.byte	0x69
 1255 029b 7D020000 		.4byte	0x27d
 1256 029f 03       		.uleb128 0x3
 1257 02a0 8B010000 		.4byte	.LASF47
 1258 02a4 07       		.byte	0x7
 1259 02a5 DE       		.byte	0xde
 1260 02a6 AA020000 		.4byte	0x2aa
 1261 02aa 0A       		.uleb128 0xa
 1262 02ab 04       		.byte	0x4
 1263 02ac 0B       		.uleb128 0xb
 1264 02ad A4040000 		.4byte	.LASF48
 1265 02b1 24       		.byte	0x24
 1266 02b2 07       		.byte	0x7
 1267 02b3 0501     		.2byte	0x105
 1268 02b5 3A030000 		.4byte	0x33a
 1269 02b9 0C       		.uleb128 0xc
 1270 02ba 723400   		.ascii	"r4\000"
 1271 02bd 07       		.byte	0x7
 1272 02be 1801     		.2byte	0x118
 1273 02c0 9F020000 		.4byte	0x29f
 1274 02c4 02       		.byte	0x2
 1275 02c5 23       		.byte	0x23
 1276 02c6 00       		.uleb128 0
 1277 02c7 0C       		.uleb128 0xc
 1278 02c8 723500   		.ascii	"r5\000"
 1279 02cb 07       		.byte	0x7
 1280 02cc 1901     		.2byte	0x119
 1281 02ce 9F020000 		.4byte	0x29f
 1282 02d2 02       		.byte	0x2
ARM GAS  /tmp/ccWnp1Fj.s 			page 24


 1283 02d3 23       		.byte	0x23
 1284 02d4 04       		.uleb128 0x4
 1285 02d5 0C       		.uleb128 0xc
 1286 02d6 723600   		.ascii	"r6\000"
 1287 02d9 07       		.byte	0x7
 1288 02da 1A01     		.2byte	0x11a
 1289 02dc 9F020000 		.4byte	0x29f
 1290 02e0 02       		.byte	0x2
 1291 02e1 23       		.byte	0x23
 1292 02e2 08       		.uleb128 0x8
 1293 02e3 0C       		.uleb128 0xc
 1294 02e4 723700   		.ascii	"r7\000"
 1295 02e7 07       		.byte	0x7
 1296 02e8 1B01     		.2byte	0x11b
 1297 02ea 9F020000 		.4byte	0x29f
 1298 02ee 02       		.byte	0x2
 1299 02ef 23       		.byte	0x23
 1300 02f0 0C       		.uleb128 0xc
 1301 02f1 0C       		.uleb128 0xc
 1302 02f2 723800   		.ascii	"r8\000"
 1303 02f5 07       		.byte	0x7
 1304 02f6 1C01     		.2byte	0x11c
 1305 02f8 9F020000 		.4byte	0x29f
 1306 02fc 02       		.byte	0x2
 1307 02fd 23       		.byte	0x23
 1308 02fe 10       		.uleb128 0x10
 1309 02ff 0C       		.uleb128 0xc
 1310 0300 723900   		.ascii	"r9\000"
 1311 0303 07       		.byte	0x7
 1312 0304 1D01     		.2byte	0x11d
 1313 0306 9F020000 		.4byte	0x29f
 1314 030a 02       		.byte	0x2
 1315 030b 23       		.byte	0x23
 1316 030c 14       		.uleb128 0x14
 1317 030d 0C       		.uleb128 0xc
 1318 030e 72313000 		.ascii	"r10\000"
 1319 0312 07       		.byte	0x7
 1320 0313 1E01     		.2byte	0x11e
 1321 0315 9F020000 		.4byte	0x29f
 1322 0319 02       		.byte	0x2
 1323 031a 23       		.byte	0x23
 1324 031b 18       		.uleb128 0x18
 1325 031c 0C       		.uleb128 0xc
 1326 031d 72313100 		.ascii	"r11\000"
 1327 0321 07       		.byte	0x7
 1328 0322 1F01     		.2byte	0x11f
 1329 0324 9F020000 		.4byte	0x29f
 1330 0328 02       		.byte	0x2
 1331 0329 23       		.byte	0x23
 1332 032a 1C       		.uleb128 0x1c
 1333 032b 0C       		.uleb128 0xc
 1334 032c 6C7200   		.ascii	"lr\000"
 1335 032f 07       		.byte	0x7
 1336 0330 2001     		.2byte	0x120
 1337 0332 9F020000 		.4byte	0x29f
 1338 0336 02       		.byte	0x2
 1339 0337 23       		.byte	0x23
ARM GAS  /tmp/ccWnp1Fj.s 			page 25


 1340 0338 20       		.uleb128 0x20
 1341 0339 00       		.byte	0
 1342 033a 0B       		.uleb128 0xb
 1343 033b 29020000 		.4byte	.LASF49
 1344 033f 04       		.byte	0x4
 1345 0340 07       		.byte	0x7
 1346 0341 2A01     		.2byte	0x12a
 1347 0343 57030000 		.4byte	0x357
 1348 0347 0C       		.uleb128 0xc
 1349 0348 72313300 		.ascii	"r13\000"
 1350 034c 07       		.byte	0x7
 1351 034d 2B01     		.2byte	0x12b
 1352 034f 57030000 		.4byte	0x357
 1353 0353 02       		.byte	0x2
 1354 0354 23       		.byte	0x23
 1355 0355 00       		.uleb128 0
 1356 0356 00       		.byte	0
 1357 0357 09       		.uleb128 0x9
 1358 0358 04       		.byte	0x4
 1359 0359 AC020000 		.4byte	0x2ac
 1360 035d 04       		.uleb128 0x4
 1361 035e 04       		.byte	0x4
 1362 035f 07       		.byte	0x7
 1363 0360 BF020000 		.4byte	.LASF50
 1364 0364 03       		.uleb128 0x3
 1365 0365 94040000 		.4byte	.LASF51
 1366 0369 08       		.byte	0x8
 1367 036a 51       		.byte	0x51
 1368 036b 6F030000 		.4byte	0x36f
 1369 036f 09       		.uleb128 0x9
 1370 0370 04       		.byte	0x4
 1371 0371 75030000 		.4byte	0x375
 1372 0375 0D       		.uleb128 0xd
 1373 0376 01       		.byte	0x1
 1374 0377 81030000 		.4byte	0x381
 1375 037b 0E       		.uleb128 0xe
 1376 037c AA020000 		.4byte	0x2aa
 1377 0380 00       		.byte	0
 1378 0381 03       		.uleb128 0x3
 1379 0382 5C040000 		.4byte	.LASF52
 1380 0386 08       		.byte	0x8
 1381 0387 56       		.byte	0x56
 1382 0388 8C030000 		.4byte	0x38c
 1383 038c 05       		.uleb128 0x5
 1384 038d 5C040000 		.4byte	.LASF52
 1385 0391 14       		.byte	0x14
 1386 0392 08       		.byte	0x8
 1387 0393 5D       		.byte	0x5d
 1388 0394 DF030000 		.4byte	0x3df
 1389 0398 06       		.uleb128 0x6
 1390 0399 DF010000 		.4byte	.LASF53
 1391 039d 08       		.byte	0x8
 1392 039e 5E       		.byte	0x5e
 1393 039f DF030000 		.4byte	0x3df
 1394 03a3 02       		.byte	0x2
 1395 03a4 23       		.byte	0x23
 1396 03a5 00       		.uleb128 0
ARM GAS  /tmp/ccWnp1Fj.s 			page 26


 1397 03a6 06       		.uleb128 0x6
 1398 03a7 94010000 		.4byte	.LASF54
 1399 03ab 08       		.byte	0x8
 1400 03ac 60       		.byte	0x60
 1401 03ad DF030000 		.4byte	0x3df
 1402 03b1 02       		.byte	0x2
 1403 03b2 23       		.byte	0x23
 1404 03b3 04       		.uleb128 0x4
 1405 03b4 06       		.uleb128 0x6
 1406 03b5 AC020000 		.4byte	.LASF55
 1407 03b9 08       		.byte	0x8
 1408 03ba 62       		.byte	0x62
 1409 03bb 0C010000 		.4byte	0x10c
 1410 03bf 02       		.byte	0x2
 1411 03c0 23       		.byte	0x23
 1412 03c1 08       		.uleb128 0x8
 1413 03c2 06       		.uleb128 0x6
 1414 03c3 C8020000 		.4byte	.LASF56
 1415 03c7 08       		.byte	0x8
 1416 03c8 63       		.byte	0x63
 1417 03c9 64030000 		.4byte	0x364
 1418 03cd 02       		.byte	0x2
 1419 03ce 23       		.byte	0x23
 1420 03cf 0C       		.uleb128 0xc
 1421 03d0 06       		.uleb128 0x6
 1422 03d1 B6040000 		.4byte	.LASF57
 1423 03d5 08       		.byte	0x8
 1424 03d6 65       		.byte	0x65
 1425 03d7 AA020000 		.4byte	0x2aa
 1426 03db 02       		.byte	0x2
 1427 03dc 23       		.byte	0x23
 1428 03dd 10       		.uleb128 0x10
 1429 03de 00       		.byte	0
 1430 03df 09       		.uleb128 0x9
 1431 03e0 04       		.byte	0x4
 1432 03e1 81030000 		.4byte	0x381
 1433 03e5 08       		.uleb128 0x8
 1434 03e6 10       		.byte	0x10
 1435 03e7 08       		.byte	0x8
 1436 03e8 6F       		.byte	0x6f
 1437 03e9 26040000 		.4byte	0x426
 1438 03ed 06       		.uleb128 0x6
 1439 03ee DF010000 		.4byte	.LASF53
 1440 03f2 08       		.byte	0x8
 1441 03f3 70       		.byte	0x70
 1442 03f4 DF030000 		.4byte	0x3df
 1443 03f8 02       		.byte	0x2
 1444 03f9 23       		.byte	0x23
 1445 03fa 00       		.uleb128 0
 1446 03fb 06       		.uleb128 0x6
 1447 03fc 94010000 		.4byte	.LASF54
 1448 0400 08       		.byte	0x8
 1449 0401 72       		.byte	0x72
 1450 0402 DF030000 		.4byte	0x3df
 1451 0406 02       		.byte	0x2
 1452 0407 23       		.byte	0x23
 1453 0408 04       		.uleb128 0x4
ARM GAS  /tmp/ccWnp1Fj.s 			page 27


 1454 0409 06       		.uleb128 0x6
 1455 040a AC020000 		.4byte	.LASF55
 1456 040e 08       		.byte	0x8
 1457 040f 74       		.byte	0x74
 1458 0410 0C010000 		.4byte	0x10c
 1459 0414 02       		.byte	0x2
 1460 0415 23       		.byte	0x23
 1461 0416 08       		.uleb128 0x8
 1462 0417 06       		.uleb128 0x6
 1463 0418 30050000 		.4byte	.LASF58
 1464 041c 08       		.byte	0x8
 1465 041d 75       		.byte	0x75
 1466 041e 26040000 		.4byte	0x426
 1467 0422 02       		.byte	0x2
 1468 0423 23       		.byte	0x23
 1469 0424 0C       		.uleb128 0xc
 1470 0425 00       		.byte	0
 1471 0426 0F       		.uleb128 0xf
 1472 0427 0C010000 		.4byte	0x10c
 1473 042b 03       		.uleb128 0x3
 1474 042c 43050000 		.4byte	.LASF59
 1475 0430 08       		.byte	0x8
 1476 0431 76       		.byte	0x76
 1477 0432 E5030000 		.4byte	0x3e5
 1478 0436 08       		.uleb128 0x8
 1479 0437 1C       		.byte	0x1c
 1480 0438 09       		.byte	0x9
 1481 0439 57       		.byte	0x57
 1482 043a 93040000 		.4byte	0x493
 1483 043e 06       		.uleb128 0x6
 1484 043f 54040000 		.4byte	.LASF60
 1485 0443 09       		.byte	0x9
 1486 0444 58       		.byte	0x58
 1487 0445 72020000 		.4byte	0x272
 1488 0449 02       		.byte	0x2
 1489 044a 23       		.byte	0x23
 1490 044b 00       		.uleb128 0
 1491 044c 06       		.uleb128 0x6
 1492 044d 03040000 		.4byte	.LASF61
 1493 0451 09       		.byte	0x9
 1494 0452 59       		.byte	0x59
 1495 0453 D5000000 		.4byte	0xd5
 1496 0457 02       		.byte	0x2
 1497 0458 23       		.byte	0x23
 1498 0459 08       		.uleb128 0x8
 1499 045a 06       		.uleb128 0x6
 1500 045b 13030000 		.4byte	.LASF62
 1501 045f 09       		.byte	0x9
 1502 0460 5B       		.byte	0x5b
 1503 0461 3A030000 		.4byte	0x33a
 1504 0465 02       		.byte	0x2
 1505 0466 23       		.byte	0x23
 1506 0467 0C       		.uleb128 0xc
 1507 0468 06       		.uleb128 0x6
 1508 0469 83010000 		.4byte	.LASF63
 1509 046d 09       		.byte	0x9
 1510 046e 5E       		.byte	0x5e
ARM GAS  /tmp/ccWnp1Fj.s 			page 28


 1511 046f 6C020000 		.4byte	0x26c
 1512 0473 02       		.byte	0x2
 1513 0474 23       		.byte	0x23
 1514 0475 10       		.uleb128 0x10
 1515 0476 06       		.uleb128 0x6
 1516 0477 5B030000 		.4byte	.LASF64
 1517 047b 09       		.byte	0x9
 1518 047c 5F       		.byte	0x5f
 1519 047d 6C020000 		.4byte	0x26c
 1520 0481 02       		.byte	0x2
 1521 0482 23       		.byte	0x23
 1522 0483 14       		.uleb128 0x14
 1523 0484 06       		.uleb128 0x6
 1524 0485 69040000 		.4byte	.LASF65
 1525 0489 09       		.byte	0x9
 1526 048a 62       		.byte	0x62
 1527 048b 6C020000 		.4byte	0x26c
 1528 048f 02       		.byte	0x2
 1529 0490 23       		.byte	0x23
 1530 0491 18       		.uleb128 0x18
 1531 0492 00       		.byte	0
 1532 0493 03       		.uleb128 0x3
 1533 0494 DB040000 		.4byte	.LASF66
 1534 0498 09       		.byte	0x9
 1535 0499 64       		.byte	0x64
 1536 049a 36040000 		.4byte	0x436
 1537 049e 05       		.uleb128 0x5
 1538 049f 94020000 		.4byte	.LASF67
 1539 04a3 10       		.byte	0x10
 1540 04a4 0A       		.byte	0xa
 1541 04a5 25       		.byte	0x25
 1542 04a6 D5040000 		.4byte	0x4d5
 1543 04aa 06       		.uleb128 0x6
 1544 04ab 03010000 		.4byte	.LASF68
 1545 04af 0A       		.byte	0xa
 1546 04b0 26       		.byte	0x26
 1547 04b1 72020000 		.4byte	0x272
 1548 04b5 02       		.byte	0x2
 1549 04b6 23       		.byte	0x23
 1550 04b7 00       		.uleb128 0
 1551 04b8 06       		.uleb128 0x6
 1552 04b9 4A050000 		.4byte	.LASF69
 1553 04bd 0A       		.byte	0xa
 1554 04be 28       		.byte	0x28
 1555 04bf 6C020000 		.4byte	0x26c
 1556 04c3 02       		.byte	0x2
 1557 04c4 23       		.byte	0x23
 1558 04c5 08       		.uleb128 0x8
 1559 04c6 06       		.uleb128 0x6
 1560 04c7 78040000 		.4byte	.LASF70
 1561 04cb 0A       		.byte	0xa
 1562 04cc 2A       		.byte	0x2a
 1563 04cd D5040000 		.4byte	0x4d5
 1564 04d1 02       		.byte	0x2
 1565 04d2 23       		.byte	0x23
 1566 04d3 0C       		.uleb128 0xc
 1567 04d4 00       		.byte	0
ARM GAS  /tmp/ccWnp1Fj.s 			page 29


 1568 04d5 09       		.uleb128 0x9
 1569 04d6 04       		.byte	0x4
 1570 04d7 9E040000 		.4byte	0x49e
 1571 04db 03       		.uleb128 0x3
 1572 04dc 94020000 		.4byte	.LASF67
 1573 04e0 0A       		.byte	0xa
 1574 04e1 2C       		.byte	0x2c
 1575 04e2 9E040000 		.4byte	0x49e
 1576 04e6 03       		.uleb128 0x3
 1577 04e7 F3040000 		.4byte	.LASF71
 1578 04eb 0B       		.byte	0xb
 1579 04ec 25       		.byte	0x25
 1580 04ed F1040000 		.4byte	0x4f1
 1581 04f1 05       		.uleb128 0x5
 1582 04f2 F3040000 		.4byte	.LASF71
 1583 04f6 10       		.byte	0x10
 1584 04f7 0B       		.byte	0xb
 1585 04f8 2A       		.byte	0x2a
 1586 04f9 36050000 		.4byte	0x536
 1587 04fd 06       		.uleb128 0x6
 1588 04fe 5C020000 		.4byte	.LASF72
 1589 0502 0B       		.byte	0xb
 1590 0503 2B       		.byte	0x2b
 1591 0504 36050000 		.4byte	0x536
 1592 0508 02       		.byte	0x2
 1593 0509 23       		.byte	0x23
 1594 050a 00       		.uleb128 0
 1595 050b 06       		.uleb128 0x6
 1596 050c B3030000 		.4byte	.LASF73
 1597 0510 0B       		.byte	0xb
 1598 0511 2E       		.byte	0x2e
 1599 0512 6C020000 		.4byte	0x26c
 1600 0516 02       		.byte	0x2
 1601 0517 23       		.byte	0x23
 1602 0518 04       		.uleb128 0x4
 1603 0519 06       		.uleb128 0x6
 1604 051a 63030000 		.4byte	.LASF74
 1605 051e 0B       		.byte	0xb
 1606 051f 30       		.byte	0x30
 1607 0520 F6000000 		.4byte	0xf6
 1608 0524 02       		.byte	0x2
 1609 0525 23       		.byte	0x23
 1610 0526 08       		.uleb128 0x8
 1611 0527 06       		.uleb128 0x6
 1612 0528 CC030000 		.4byte	.LASF75
 1613 052c 0B       		.byte	0xb
 1614 052d 33       		.byte	0x33
 1615 052e 01010000 		.4byte	0x101
 1616 0532 02       		.byte	0x2
 1617 0533 23       		.byte	0x23
 1618 0534 0C       		.uleb128 0xc
 1619 0535 00       		.byte	0
 1620 0536 09       		.uleb128 0x9
 1621 0537 04       		.byte	0x4
 1622 0538 E6040000 		.4byte	0x4e6
 1623 053c 05       		.uleb128 0x5
 1624 053d BA010000 		.4byte	.LASF76
ARM GAS  /tmp/ccWnp1Fj.s 			page 30


 1625 0541 04       		.byte	0x4
 1626 0542 0B       		.byte	0xb
 1627 0543 3A       		.byte	0x3a
 1628 0544 57050000 		.4byte	0x557
 1629 0548 06       		.uleb128 0x6
 1630 0549 3B050000 		.4byte	.LASF77
 1631 054d 0B       		.byte	0xb
 1632 054e 3B       		.byte	0x3b
 1633 054f 36050000 		.4byte	0x536
 1634 0553 02       		.byte	0x2
 1635 0554 23       		.byte	0x23
 1636 0555 00       		.uleb128 0
 1637 0556 00       		.byte	0
 1638 0557 03       		.uleb128 0x3
 1639 0558 BA010000 		.4byte	.LASF76
 1640 055c 0B       		.byte	0xb
 1641 055d 3E       		.byte	0x3e
 1642 055e 3C050000 		.4byte	0x53c
 1643 0562 03       		.uleb128 0x3
 1644 0563 C6010000 		.4byte	.LASF78
 1645 0567 0B       		.byte	0xb
 1646 0568 43       		.byte	0x43
 1647 0569 6D050000 		.4byte	0x56d
 1648 056d 09       		.uleb128 0x9
 1649 056e 04       		.byte	0x4
 1650 056f 73050000 		.4byte	0x573
 1651 0573 0D       		.uleb128 0xd
 1652 0574 01       		.byte	0x1
 1653 0575 7F050000 		.4byte	0x57f
 1654 0579 0E       		.uleb128 0xe
 1655 057a EB000000 		.4byte	0xeb
 1656 057e 00       		.byte	0
 1657 057f 10       		.uleb128 0x10
 1658 0580 04       		.byte	0x4
 1659 0581 06       		.byte	0x6
 1660 0582 8F       		.byte	0x8f
 1661 0583 B4050000 		.4byte	0x5b4
 1662 0587 11       		.uleb128 0x11
 1663 0588 20000000 		.4byte	.LASF79
 1664 058c 06       		.byte	0x6
 1665 058d 96       		.byte	0x96
 1666 058e E0000000 		.4byte	0xe0
 1667 0592 11       		.uleb128 0x11
 1668 0593 60000000 		.4byte	.LASF80
 1669 0597 06       		.byte	0x6
 1670 0598 9D       		.byte	0x9d
 1671 0599 E0000000 		.4byte	0xe0
 1672 059d 11       		.uleb128 0x11
 1673 059e 15050000 		.4byte	.LASF81
 1674 05a2 06       		.byte	0x6
 1675 05a3 A4       		.byte	0xa4
 1676 05a4 AA020000 		.4byte	0x2aa
 1677 05a8 11       		.uleb128 0x11
 1678 05a9 0A040000 		.4byte	.LASF82
 1679 05ad 06       		.byte	0x6
 1680 05ae AB       		.byte	0xab
 1681 05af F6000000 		.4byte	0xf6
ARM GAS  /tmp/ccWnp1Fj.s 			page 31


 1682 05b3 00       		.byte	0
 1683 05b4 09       		.uleb128 0x9
 1684 05b5 04       		.byte	0x4
 1685 05b6 BA050000 		.4byte	0x5ba
 1686 05ba 12       		.uleb128 0x12
 1687 05bb BF050000 		.4byte	0x5bf
 1688 05bf 04       		.uleb128 0x4
 1689 05c0 01       		.byte	0x1
 1690 05c1 08       		.byte	0x8
 1691 05c2 73040000 		.4byte	.LASF83
 1692 05c6 09       		.uleb128 0x9
 1693 05c7 04       		.byte	0x4
 1694 05c8 DB040000 		.4byte	0x4db
 1695 05cc 03       		.uleb128 0x3
 1696 05cd 00000000 		.4byte	.LASF84
 1697 05d1 06       		.byte	0x6
 1698 05d2 DE       		.byte	0xde
 1699 05d3 D7050000 		.4byte	0x5d7
 1700 05d7 09       		.uleb128 0x9
 1701 05d8 04       		.byte	0x4
 1702 05d9 DD050000 		.4byte	0x5dd
 1703 05dd 13       		.uleb128 0x13
 1704 05de 01       		.byte	0x1
 1705 05df E0000000 		.4byte	0xe0
 1706 05e3 ED050000 		.4byte	0x5ed
 1707 05e7 0E       		.uleb128 0xe
 1708 05e8 AA020000 		.4byte	0x2aa
 1709 05ec 00       		.byte	0
 1710 05ed 05       		.uleb128 0x5
 1711 05ee 27040000 		.4byte	.LASF85
 1712 05f2 10       		.byte	0x10
 1713 05f3 0C       		.byte	0xc
 1714 05f4 3B       		.byte	0x3b
 1715 05f5 32060000 		.4byte	0x632
 1716 05f9 06       		.uleb128 0x6
 1717 05fa 24020000 		.4byte	.LASF86
 1718 05fe 0C       		.byte	0xc
 1719 05ff 3C       		.byte	0x3c
 1720 0600 B4050000 		.4byte	0x5b4
 1721 0604 02       		.byte	0x2
 1722 0605 23       		.byte	0x23
 1723 0606 00       		.uleb128 0
 1724 0607 06       		.uleb128 0x6
 1725 0608 26030000 		.4byte	.LASF87
 1726 060c 0C       		.byte	0xc
 1727 060d 3D       		.byte	0x3d
 1728 060e 34060000 		.4byte	0x634
 1729 0612 02       		.byte	0x2
 1730 0613 23       		.byte	0x23
 1731 0614 04       		.uleb128 0x4
 1732 0615 06       		.uleb128 0x6
 1733 0616 10020000 		.4byte	.LASF88
 1734 061a 0C       		.byte	0xc
 1735 061b 3E       		.byte	0x3e
 1736 061c 34060000 		.4byte	0x634
 1737 0620 02       		.byte	0x2
 1738 0621 23       		.byte	0x23
ARM GAS  /tmp/ccWnp1Fj.s 			page 32


 1739 0622 08       		.uleb128 0x8
 1740 0623 06       		.uleb128 0x6
 1741 0624 7A030000 		.4byte	.LASF89
 1742 0628 0C       		.byte	0xc
 1743 0629 3F       		.byte	0x3f
 1744 062a 34060000 		.4byte	0x634
 1745 062e 02       		.byte	0x2
 1746 062f 23       		.byte	0x23
 1747 0630 0C       		.uleb128 0xc
 1748 0631 00       		.byte	0
 1749 0632 14       		.uleb128 0x14
 1750 0633 01       		.byte	0x1
 1751 0634 09       		.uleb128 0x9
 1752 0635 04       		.byte	0x4
 1753 0636 32060000 		.4byte	0x632
 1754 063a 15       		.uleb128 0x15
 1755 063b BF030000 		.4byte	.LASF127
 1756 063f 01       		.byte	0x1
 1757 0640 FC       		.byte	0xfc
 1758 0641 01       		.byte	0x1
 1759 0642 01       		.byte	0x1
 1760 0643 51060000 		.4byte	0x651
 1761 0647 16       		.uleb128 0x16
 1762 0648 6D00     		.ascii	"m\000"
 1763 064a 01       		.byte	0x1
 1764 064b FD       		.byte	0xfd
 1765 064c F6000000 		.4byte	0xf6
 1766 0650 00       		.byte	0
 1767 0651 17       		.uleb128 0x17
 1768 0652 DE020000 		.4byte	.LASF90
 1769 0656 01       		.byte	0x1
 1770 0657 F7       		.byte	0xf7
 1771 0658 01       		.byte	0x1
 1772 0659 00000000 		.4byte	.LFB16
 1773 065d 08000000 		.4byte	.LFE16
 1774 0661 02       		.byte	0x2
 1775 0662 7D       		.byte	0x7d
 1776 0663 00       		.sleb128 0
 1777 0664 01       		.byte	0x1
 1778 0665 7B060000 		.4byte	0x67b
 1779 0669 18       		.uleb128 0x18
 1780 066a 08000000 		.4byte	.LVL0
 1781 066e 01       		.byte	0x1
 1782 066f 490F0000 		.4byte	0xf49
 1783 0673 19       		.uleb128 0x19
 1784 0674 01       		.byte	0x1
 1785 0675 50       		.byte	0x50
 1786 0676 02       		.byte	0x2
 1787 0677 09       		.byte	0x9
 1788 0678 FF       		.byte	0xff
 1789 0679 00       		.byte	0
 1790 067a 00       		.byte	0
 1791 067b 17       		.uleb128 0x17
 1792 067c 08000000 		.4byte	.LASF91
 1793 0680 01       		.byte	0x1
 1794 0681 80       		.byte	0x80
 1795 0682 01       		.byte	0x1
ARM GAS  /tmp/ccWnp1Fj.s 			page 33


 1796 0683 00000000 		.4byte	.LFB12
 1797 0687 08000000 		.4byte	.LFE12
 1798 068b 02       		.byte	0x2
 1799 068c 7D       		.byte	0x7d
 1800 068d 00       		.sleb128 0
 1801 068e 01       		.byte	0x1
 1802 068f A5060000 		.4byte	0x6a5
 1803 0693 18       		.uleb128 0x18
 1804 0694 08000000 		.4byte	.LVL1
 1805 0698 01       		.byte	0x1
 1806 0699 490F0000 		.4byte	0xf49
 1807 069d 19       		.uleb128 0x19
 1808 069e 01       		.byte	0x1
 1809 069f 50       		.byte	0x50
 1810 06a0 02       		.byte	0x2
 1811 06a1 09       		.byte	0x9
 1812 06a2 FF       		.byte	0xff
 1813 06a3 00       		.byte	0
 1814 06a4 00       		.byte	0
 1815 06a5 17       		.uleb128 0x17
 1816 06a6 B4020000 		.4byte	.LASF92
 1817 06aa 01       		.byte	0x1
 1818 06ab 4B       		.byte	0x4b
 1819 06ac 01       		.byte	0x1
 1820 06ad 00000000 		.4byte	.LFB7
 1821 06b1 08000000 		.4byte	.LFE7
 1822 06b5 02       		.byte	0x2
 1823 06b6 7D       		.byte	0x7d
 1824 06b7 00       		.sleb128 0
 1825 06b8 01       		.byte	0x1
 1826 06b9 CF060000 		.4byte	0x6cf
 1827 06bd 18       		.uleb128 0x18
 1828 06be 08000000 		.4byte	.LVL2
 1829 06c2 01       		.byte	0x1
 1830 06c3 490F0000 		.4byte	0xf49
 1831 06c7 19       		.uleb128 0x19
 1832 06c8 01       		.byte	0x1
 1833 06c9 50       		.byte	0x50
 1834 06ca 02       		.byte	0x2
 1835 06cb 09       		.byte	0x9
 1836 06cc FF       		.byte	0xff
 1837 06cd 00       		.byte	0
 1838 06ce 00       		.byte	0
 1839 06cf 1A       		.uleb128 0x1a
 1840 06d0 B9000000 		.4byte	.LASF93
 1841 06d4 01       		.byte	0x1
 1842 06d5 95       		.byte	0x95
 1843 06d6 01       		.byte	0x1
 1844 06d7 00000000 		.4byte	.LFB15
 1845 06db 54020000 		.4byte	.LFE15
 1846 06df 00000000 		.4byte	.LLST0
 1847 06e3 01       		.byte	0x1
 1848 06e4 890A0000 		.4byte	0xa89
 1849 06e8 1B       		.uleb128 0x1b
 1850 06e9 6D00     		.ascii	"m\000"
 1851 06eb 01       		.byte	0x1
 1852 06ec 96       		.byte	0x96
ARM GAS  /tmp/ccWnp1Fj.s 			page 34


 1853 06ed F6000000 		.4byte	0xf6
 1854 06f1 2D000000 		.4byte	.LLST1
 1855 06f5 1C       		.uleb128 0x1c
 1856 06f6 656C3100 		.ascii	"el1\000"
 1857 06fa 01       		.byte	0x1
 1858 06fb 97       		.byte	0x97
 1859 06fc E6040000 		.4byte	0x4e6
 1860 0700 02       		.byte	0x2
 1861 0701 91       		.byte	0x91
 1862 0702 48       		.sleb128 -56
 1863 0703 1C       		.uleb128 0x1c
 1864 0704 656C3200 		.ascii	"el2\000"
 1865 0708 01       		.byte	0x1
 1866 0709 97       		.byte	0x97
 1867 070a E6040000 		.4byte	0x4e6
 1868 070e 02       		.byte	0x2
 1869 070f 91       		.byte	0x91
 1870 0710 58       		.sleb128 -40
 1871 0711 1D       		.uleb128 0x1d
 1872 0712 2E010000 		.4byte	.LASF94
 1873 0716 01       		.byte	0x1
 1874 0717 98       		.byte	0x98
 1875 0718 0C010000 		.4byte	0x10c
 1876 071c E0000000 		.4byte	.LLST2
 1877 0720 1E       		.uleb128 0x1e
 1878 0721 0C000000 		.4byte	.LVL3
 1879 0725 610F0000 		.4byte	0xf61
 1880 0729 33070000 		.4byte	0x733
 1881 072d 19       		.uleb128 0x19
 1882 072e 01       		.byte	0x1
 1883 072f 50       		.byte	0x50
 1884 0730 01       		.byte	0x1
 1885 0731 35       		.byte	0x35
 1886 0732 00       		.byte	0
 1887 0733 1E       		.uleb128 0x1e
 1888 0734 14000000 		.4byte	.LVL4
 1889 0738 790F0000 		.4byte	0xf79
 1890 073c 47070000 		.4byte	0x747
 1891 0740 19       		.uleb128 0x19
 1892 0741 01       		.byte	0x1
 1893 0742 50       		.byte	0x50
 1894 0743 02       		.byte	0x2
 1895 0744 09       		.byte	0x9
 1896 0745 FF       		.byte	0xff
 1897 0746 00       		.byte	0
 1898 0747 1E       		.uleb128 0x1e
 1899 0748 20000000 		.4byte	.LVL7
 1900 074c 910F0000 		.4byte	0xf91
 1901 0750 5A070000 		.4byte	0x75a
 1902 0754 19       		.uleb128 0x19
 1903 0755 01       		.byte	0x1
 1904 0756 50       		.byte	0x50
 1905 0757 01       		.byte	0x1
 1906 0758 31       		.byte	0x31
 1907 0759 00       		.byte	0
 1908 075a 1E       		.uleb128 0x1e
 1909 075b 30000000 		.4byte	.LVL8
ARM GAS  /tmp/ccWnp1Fj.s 			page 35


 1910 075f 790F0000 		.4byte	0xf79
 1911 0763 6E070000 		.4byte	0x76e
 1912 0767 19       		.uleb128 0x19
 1913 0768 01       		.byte	0x1
 1914 0769 50       		.byte	0x50
 1915 076a 02       		.byte	0x2
 1916 076b 09       		.byte	0x9
 1917 076c FF       		.byte	0xff
 1918 076d 00       		.byte	0
 1919 076e 1E       		.uleb128 0x1e
 1920 076f 3C000000 		.4byte	.LVL10
 1921 0773 910F0000 		.4byte	0xf91
 1922 0777 81070000 		.4byte	0x781
 1923 077b 19       		.uleb128 0x19
 1924 077c 01       		.byte	0x1
 1925 077d 50       		.byte	0x50
 1926 077e 01       		.byte	0x1
 1927 077f 32       		.byte	0x32
 1928 0780 00       		.byte	0
 1929 0781 1E       		.uleb128 0x1e
 1930 0782 48000000 		.4byte	.LVL11
 1931 0786 490F0000 		.4byte	0xf49
 1932 078a 95070000 		.4byte	0x795
 1933 078e 19       		.uleb128 0x19
 1934 078f 01       		.byte	0x1
 1935 0790 50       		.byte	0x50
 1936 0791 02       		.byte	0x2
 1937 0792 09       		.byte	0x9
 1938 0793 FF       		.byte	0xff
 1939 0794 00       		.byte	0
 1940 0795 1E       		.uleb128 0x1e
 1941 0796 56000000 		.4byte	.LVL13
 1942 079a 910F0000 		.4byte	0xf91
 1943 079e A8070000 		.4byte	0x7a8
 1944 07a2 19       		.uleb128 0x19
 1945 07a3 01       		.byte	0x1
 1946 07a4 50       		.byte	0x50
 1947 07a5 01       		.byte	0x1
 1948 07a6 33       		.byte	0x33
 1949 07a7 00       		.byte	0
 1950 07a8 1F       		.uleb128 0x1f
 1951 07a9 64000000 		.4byte	.LVL14
 1952 07ad AE0F0000 		.4byte	0xfae
 1953 07b1 1E       		.uleb128 0x1e
 1954 07b2 80000000 		.4byte	.LVL16
 1955 07b6 BC0F0000 		.4byte	0xfbc
 1956 07ba CF070000 		.4byte	0x7cf
 1957 07be 19       		.uleb128 0x19
 1958 07bf 01       		.byte	0x1
 1959 07c0 53       		.byte	0x53
 1960 07c1 05       		.byte	0x5
 1961 07c2 03       		.byte	0x3
 1962 07c3 00000000 		.4byte	thread1
 1963 07c7 19       		.uleb128 0x19
 1964 07c8 01       		.byte	0x1
 1965 07c9 51       		.byte	0x51
 1966 07ca 03       		.byte	0x3
ARM GAS  /tmp/ccWnp1Fj.s 			page 36


 1967 07cb 0A       		.byte	0xa
 1968 07cc 3001     		.2byte	0x130
 1969 07ce 00       		.byte	0
 1970 07cf 1E       		.uleb128 0x1e
 1971 07d0 8A000000 		.4byte	.LVL17
 1972 07d4 790F0000 		.4byte	0xf79
 1973 07d8 E3070000 		.4byte	0x7e3
 1974 07dc 19       		.uleb128 0x19
 1975 07dd 01       		.byte	0x1
 1976 07de 50       		.byte	0x50
 1977 07df 02       		.byte	0x2
 1978 07e0 09       		.byte	0x9
 1979 07e1 FF       		.byte	0xff
 1980 07e2 00       		.byte	0
 1981 07e3 1E       		.uleb128 0x1e
 1982 07e4 9A000000 		.4byte	.LVL21
 1983 07e8 E90F0000 		.4byte	0xfe9
 1984 07ec 02080000 		.4byte	0x802
 1985 07f0 19       		.uleb128 0x19
 1986 07f1 01       		.byte	0x1
 1987 07f2 52       		.byte	0x52
 1988 07f3 02       		.byte	0x2
 1989 07f4 74       		.byte	0x74
 1990 07f5 37       		.sleb128 55
 1991 07f6 19       		.uleb128 0x19
 1992 07f7 01       		.byte	0x1
 1993 07f8 51       		.byte	0x51
 1994 07f9 02       		.byte	0x2
 1995 07fa 74       		.byte	0x74
 1996 07fb 32       		.sleb128 50
 1997 07fc 19       		.uleb128 0x19
 1998 07fd 01       		.byte	0x1
 1999 07fe 50       		.byte	0x50
 2000 07ff 01       		.byte	0x1
 2001 0800 34       		.byte	0x34
 2002 0801 00       		.byte	0
 2003 0802 1E       		.uleb128 0x1e
 2004 0803 AC000000 		.4byte	.LVL22
 2005 0807 910F0000 		.4byte	0xf91
 2006 080b 1D080000 		.4byte	0x81d
 2007 080f 19       		.uleb128 0x19
 2008 0810 01       		.byte	0x1
 2009 0811 51       		.byte	0x51
 2010 0812 04       		.byte	0x4
 2011 0813 79       		.byte	0x79
 2012 0814 00       		.sleb128 0
 2013 0815 31       		.byte	0x31
 2014 0816 29       		.byte	0x29
 2015 0817 19       		.uleb128 0x19
 2016 0818 01       		.byte	0x1
 2017 0819 50       		.byte	0x50
 2018 081a 01       		.byte	0x1
 2019 081b 35       		.byte	0x35
 2020 081c 00       		.byte	0
 2021 081d 1E       		.uleb128 0x1e
 2022 081e B8000000 		.4byte	.LVL23
 2023 0822 490F0000 		.4byte	0xf49
ARM GAS  /tmp/ccWnp1Fj.s 			page 37


 2024 0826 31080000 		.4byte	0x831
 2025 082a 19       		.uleb128 0x19
 2026 082b 01       		.byte	0x1
 2027 082c 50       		.byte	0x50
 2028 082d 02       		.byte	0x2
 2029 082e 09       		.byte	0x9
 2030 082f FF       		.byte	0xff
 2031 0830 00       		.byte	0
 2032 0831 1E       		.uleb128 0x1e
 2033 0832 C6000000 		.4byte	.LVL25
 2034 0836 910F0000 		.4byte	0xf91
 2035 083a 44080000 		.4byte	0x844
 2036 083e 19       		.uleb128 0x19
 2037 083f 01       		.byte	0x1
 2038 0840 50       		.byte	0x50
 2039 0841 01       		.byte	0x1
 2040 0842 36       		.byte	0x36
 2041 0843 00       		.byte	0
 2042 0844 1F       		.uleb128 0x1f
 2043 0845 CE000000 		.4byte	.LVL26
 2044 0849 0B100000 		.4byte	0x100b
 2045 084d 1E       		.uleb128 0x1e
 2046 084e D4000000 		.4byte	.LVL27
 2047 0852 610F0000 		.4byte	0xf61
 2048 0856 60080000 		.4byte	0x860
 2049 085a 19       		.uleb128 0x19
 2050 085b 01       		.byte	0x1
 2051 085c 50       		.byte	0x50
 2052 085d 01       		.byte	0x1
 2053 085e 35       		.byte	0x35
 2054 085f 00       		.byte	0
 2055 0860 1E       		.uleb128 0x1e
 2056 0861 DC000000 		.4byte	.LVL28
 2057 0865 15100000 		.4byte	0x1015
 2058 0869 74080000 		.4byte	0x874
 2059 086d 19       		.uleb128 0x19
 2060 086e 01       		.byte	0x1
 2061 086f 50       		.byte	0x50
 2062 0870 02       		.byte	0x2
 2063 0871 09       		.byte	0x9
 2064 0872 FF       		.byte	0xff
 2065 0873 00       		.byte	0
 2066 0874 1E       		.uleb128 0x1e
 2067 0875 EE000000 		.4byte	.LVL30
 2068 0879 910F0000 		.4byte	0xf91
 2069 087d 87080000 		.4byte	0x887
 2070 0881 19       		.uleb128 0x19
 2071 0882 01       		.byte	0x1
 2072 0883 50       		.byte	0x50
 2073 0884 01       		.byte	0x1
 2074 0885 37       		.byte	0x37
 2075 0886 00       		.byte	0
 2076 0887 1E       		.uleb128 0x1e
 2077 0888 FA000000 		.4byte	.LVL31
 2078 088c 490F0000 		.4byte	0xf49
 2079 0890 9B080000 		.4byte	0x89b
 2080 0894 19       		.uleb128 0x19
ARM GAS  /tmp/ccWnp1Fj.s 			page 38


 2081 0895 01       		.byte	0x1
 2082 0896 50       		.byte	0x50
 2083 0897 02       		.byte	0x2
 2084 0898 09       		.byte	0x9
 2085 0899 FF       		.byte	0xff
 2086 089a 00       		.byte	0
 2087 089b 1E       		.uleb128 0x1e
 2088 089c 08010000 		.4byte	.LVL33
 2089 08a0 910F0000 		.4byte	0xf91
 2090 08a4 AE080000 		.4byte	0x8ae
 2091 08a8 19       		.uleb128 0x19
 2092 08a9 01       		.byte	0x1
 2093 08aa 50       		.byte	0x50
 2094 08ab 01       		.byte	0x1
 2095 08ac 38       		.byte	0x38
 2096 08ad 00       		.byte	0
 2097 08ae 1F       		.uleb128 0x1f
 2098 08af 10010000 		.4byte	.LVL34
 2099 08b3 AE0F0000 		.4byte	0xfae
 2100 08b7 1E       		.uleb128 0x1e
 2101 08b8 26010000 		.4byte	.LVL36
 2102 08bc BC0F0000 		.4byte	0xfbc
 2103 08c0 DC080000 		.4byte	0x8dc
 2104 08c4 19       		.uleb128 0x19
 2105 08c5 01       		.byte	0x1
 2106 08c6 53       		.byte	0x53
 2107 08c7 05       		.byte	0x5
 2108 08c8 03       		.byte	0x3
 2109 08c9 00000000 		.4byte	thread1
 2110 08cd 19       		.uleb128 0x19
 2111 08ce 01       		.byte	0x1
 2112 08cf 51       		.byte	0x51
 2113 08d0 03       		.byte	0x3
 2114 08d1 0A       		.byte	0xa
 2115 08d2 3001     		.2byte	0x130
 2116 08d4 19       		.uleb128 0x19
 2117 08d5 01       		.byte	0x1
 2118 08d6 50       		.byte	0x50
 2119 08d7 03       		.byte	0x3
 2120 08d8 91       		.byte	0x91
 2121 08d9 44       		.sleb128 -60
 2122 08da 06       		.byte	0x6
 2123 08db 00       		.byte	0
 2124 08dc 1E       		.uleb128 0x1e
 2125 08dd 30010000 		.4byte	.LVL37
 2126 08e1 15100000 		.4byte	0x1015
 2127 08e5 F0080000 		.4byte	0x8f0
 2128 08e9 19       		.uleb128 0x19
 2129 08ea 01       		.byte	0x1
 2130 08eb 50       		.byte	0x50
 2131 08ec 02       		.byte	0x2
 2132 08ed 09       		.byte	0x9
 2133 08ee FF       		.byte	0xff
 2134 08ef 00       		.byte	0
 2135 08f0 1E       		.uleb128 0x1e
 2136 08f1 40010000 		.4byte	.LVL41
 2137 08f5 E90F0000 		.4byte	0xfe9
ARM GAS  /tmp/ccWnp1Fj.s 			page 39


 2138 08f9 0F090000 		.4byte	0x90f
 2139 08fd 19       		.uleb128 0x19
 2140 08fe 01       		.byte	0x1
 2141 08ff 52       		.byte	0x52
 2142 0900 02       		.byte	0x2
 2143 0901 74       		.byte	0x74
 2144 0902 37       		.sleb128 55
 2145 0903 19       		.uleb128 0x19
 2146 0904 01       		.byte	0x1
 2147 0905 51       		.byte	0x51
 2148 0906 02       		.byte	0x2
 2149 0907 74       		.byte	0x74
 2150 0908 32       		.sleb128 50
 2151 0909 19       		.uleb128 0x19
 2152 090a 01       		.byte	0x1
 2153 090b 50       		.byte	0x50
 2154 090c 01       		.byte	0x1
 2155 090d 39       		.byte	0x39
 2156 090e 00       		.byte	0
 2157 090f 1E       		.uleb128 0x1e
 2158 0910 58010000 		.4byte	.LVL42
 2159 0914 910F0000 		.4byte	0xf91
 2160 0918 2A090000 		.4byte	0x92a
 2161 091c 19       		.uleb128 0x19
 2162 091d 01       		.byte	0x1
 2163 091e 51       		.byte	0x51
 2164 091f 04       		.byte	0x4
 2165 0920 79       		.byte	0x79
 2166 0921 00       		.sleb128 0
 2167 0922 31       		.byte	0x31
 2168 0923 29       		.byte	0x29
 2169 0924 19       		.uleb128 0x19
 2170 0925 01       		.byte	0x1
 2171 0926 50       		.byte	0x50
 2172 0927 01       		.byte	0x1
 2173 0928 3A       		.byte	0x3a
 2174 0929 00       		.byte	0
 2175 092a 1E       		.uleb128 0x1e
 2176 092b 66010000 		.4byte	.LVL43
 2177 092f 490F0000 		.4byte	0xf49
 2178 0933 3E090000 		.4byte	0x93e
 2179 0937 19       		.uleb128 0x19
 2180 0938 01       		.byte	0x1
 2181 0939 50       		.byte	0x50
 2182 093a 02       		.byte	0x2
 2183 093b 09       		.byte	0x9
 2184 093c FF       		.byte	0xff
 2185 093d 00       		.byte	0
 2186 093e 1E       		.uleb128 0x1e
 2187 093f 74010000 		.4byte	.LVL45
 2188 0943 910F0000 		.4byte	0xf91
 2189 0947 51090000 		.4byte	0x951
 2190 094b 19       		.uleb128 0x19
 2191 094c 01       		.byte	0x1
 2192 094d 50       		.byte	0x50
 2193 094e 01       		.byte	0x1
 2194 094f 3B       		.byte	0x3b
ARM GAS  /tmp/ccWnp1Fj.s 			page 40


 2195 0950 00       		.byte	0
 2196 0951 1F       		.uleb128 0x1f
 2197 0952 84010000 		.4byte	.LVL47
 2198 0956 0B100000 		.4byte	0x100b
 2199 095a 1E       		.uleb128 0x1e
 2200 095b 94010000 		.4byte	.LVL48
 2201 095f 2D100000 		.4byte	0x102d
 2202 0963 79090000 		.4byte	0x979
 2203 0967 19       		.uleb128 0x19
 2204 0968 01       		.byte	0x1
 2205 0969 52       		.byte	0x52
 2206 096a 01       		.byte	0x1
 2207 096b 31       		.byte	0x31
 2208 096c 19       		.uleb128 0x19
 2209 096d 01       		.byte	0x1
 2210 096e 51       		.byte	0x51
 2211 096f 02       		.byte	0x2
 2212 0970 91       		.byte	0x91
 2213 0971 48       		.sleb128 -56
 2214 0972 19       		.uleb128 0x19
 2215 0973 01       		.byte	0x1
 2216 0974 50       		.byte	0x50
 2217 0975 02       		.byte	0x2
 2218 0976 79       		.byte	0x79
 2219 0977 00       		.sleb128 0
 2220 0978 00       		.byte	0
 2221 0979 1E       		.uleb128 0x1e
 2222 097a 9E010000 		.4byte	.LVL49
 2223 097e 2D100000 		.4byte	0x102d
 2224 0982 98090000 		.4byte	0x998
 2225 0986 19       		.uleb128 0x19
 2226 0987 01       		.byte	0x1
 2227 0988 52       		.byte	0x52
 2228 0989 01       		.byte	0x1
 2229 098a 34       		.byte	0x34
 2230 098b 19       		.uleb128 0x19
 2231 098c 01       		.byte	0x1
 2232 098d 51       		.byte	0x51
 2233 098e 02       		.byte	0x2
 2234 098f 91       		.byte	0x91
 2235 0990 58       		.sleb128 -40
 2236 0991 19       		.uleb128 0x19
 2237 0992 01       		.byte	0x1
 2238 0993 50       		.byte	0x50
 2239 0994 02       		.byte	0x2
 2240 0995 74       		.byte	0x74
 2241 0996 00       		.sleb128 0
 2242 0997 00       		.byte	0
 2243 0998 1F       		.uleb128 0x1f
 2244 0999 A2010000 		.4byte	.LVL50
 2245 099d AE0F0000 		.4byte	0xfae
 2246 09a1 1E       		.uleb128 0x1e
 2247 09a2 BA010000 		.4byte	.LVL52
 2248 09a6 BC0F0000 		.4byte	0xfbc
 2249 09aa D0090000 		.4byte	0x9d0
 2250 09ae 19       		.uleb128 0x19
 2251 09af 01       		.byte	0x1
ARM GAS  /tmp/ccWnp1Fj.s 			page 41


 2252 09b0 53       		.byte	0x53
 2253 09b1 05       		.byte	0x5
 2254 09b2 03       		.byte	0x3
 2255 09b3 00000000 		.4byte	thread2
 2256 09b7 19       		.uleb128 0x19
 2257 09b8 01       		.byte	0x1
 2258 09b9 51       		.byte	0x51
 2259 09ba 03       		.byte	0x3
 2260 09bb 0A       		.byte	0xa
 2261 09bc 3001     		.2byte	0x130
 2262 09be 19       		.uleb128 0x19
 2263 09bf 01       		.byte	0x1
 2264 09c0 50       		.byte	0x50
 2265 09c1 03       		.byte	0x3
 2266 09c2 91       		.byte	0x91
 2267 09c3 44       		.sleb128 -60
 2268 09c4 06       		.byte	0x6
 2269 09c5 19       		.uleb128 0x19
 2270 09c6 02       		.byte	0x2
 2271 09c7 7D       		.byte	0x7d
 2272 09c8 00       		.sleb128 0
 2273 09c9 05       		.byte	0x5
 2274 09ca 03       		.byte	0x3
 2275 09cb 00000000 		.4byte	.LC0
 2276 09cf 00       		.byte	0
 2277 09d0 1E       		.uleb128 0x1e
 2278 09d1 C2010000 		.4byte	.LVL53
 2279 09d5 51100000 		.4byte	0x1051
 2280 09d9 E3090000 		.4byte	0x9e3
 2281 09dd 19       		.uleb128 0x19
 2282 09de 01       		.byte	0x1
 2283 09df 50       		.byte	0x50
 2284 09e0 01       		.byte	0x1
 2285 09e1 35       		.byte	0x35
 2286 09e2 00       		.byte	0
 2287 09e3 1E       		.uleb128 0x1e
 2288 09e4 D0010000 		.4byte	.LVL55
 2289 09e8 E90F0000 		.4byte	0xfe9
 2290 09ec 020A0000 		.4byte	0xa02
 2291 09f0 19       		.uleb128 0x19
 2292 09f1 01       		.byte	0x1
 2293 09f2 52       		.byte	0x52
 2294 09f3 02       		.byte	0x2
 2295 09f4 75       		.byte	0x75
 2296 09f5 37       		.sleb128 55
 2297 09f6 19       		.uleb128 0x19
 2298 09f7 01       		.byte	0x1
 2299 09f8 51       		.byte	0x51
 2300 09f9 02       		.byte	0x2
 2301 09fa 75       		.byte	0x75
 2302 09fb 32       		.sleb128 50
 2303 09fc 19       		.uleb128 0x19
 2304 09fd 01       		.byte	0x1
 2305 09fe 50       		.byte	0x50
 2306 09ff 01       		.byte	0x1
 2307 0a00 3C       		.byte	0x3c
 2308 0a01 00       		.byte	0
ARM GAS  /tmp/ccWnp1Fj.s 			page 42


 2309 0a02 1E       		.uleb128 0x1e
 2310 0a03 DE010000 		.4byte	.LVL56
 2311 0a07 490F0000 		.4byte	0xf49
 2312 0a0b 160A0000 		.4byte	0xa16
 2313 0a0f 19       		.uleb128 0x19
 2314 0a10 01       		.byte	0x1
 2315 0a11 50       		.byte	0x50
 2316 0a12 02       		.byte	0x2
 2317 0a13 09       		.byte	0x9
 2318 0a14 FF       		.byte	0xff
 2319 0a15 00       		.byte	0
 2320 0a16 1E       		.uleb128 0x1e
 2321 0a17 EC010000 		.4byte	.LVL58
 2322 0a1b 910F0000 		.4byte	0xf91
 2323 0a1f 290A0000 		.4byte	0xa29
 2324 0a23 19       		.uleb128 0x19
 2325 0a24 01       		.byte	0x1
 2326 0a25 50       		.byte	0x50
 2327 0a26 01       		.byte	0x1
 2328 0a27 3D       		.byte	0x3d
 2329 0a28 00       		.byte	0
 2330 0a29 1F       		.uleb128 0x1f
 2331 0a2a F6010000 		.4byte	.LVL59
 2332 0a2e 0B100000 		.4byte	0x100b
 2333 0a32 1E       		.uleb128 0x1e
 2334 0a33 FE010000 		.4byte	.LVL60
 2335 0a37 69100000 		.4byte	0x1069
 2336 0a3b 4C0A0000 		.4byte	0xa4c
 2337 0a3f 19       		.uleb128 0x19
 2338 0a40 01       		.byte	0x1
 2339 0a41 51       		.byte	0x51
 2340 0a42 02       		.byte	0x2
 2341 0a43 91       		.byte	0x91
 2342 0a44 48       		.sleb128 -56
 2343 0a45 19       		.uleb128 0x19
 2344 0a46 01       		.byte	0x1
 2345 0a47 50       		.byte	0x50
 2346 0a48 02       		.byte	0x2
 2347 0a49 79       		.byte	0x79
 2348 0a4a 00       		.sleb128 0
 2349 0a4b 00       		.byte	0
 2350 0a4c 1E       		.uleb128 0x1e
 2351 0a4d 06020000 		.4byte	.LVL61
 2352 0a51 69100000 		.4byte	0x1069
 2353 0a55 660A0000 		.4byte	0xa66
 2354 0a59 19       		.uleb128 0x19
 2355 0a5a 01       		.byte	0x1
 2356 0a5b 51       		.byte	0x51
 2357 0a5c 02       		.byte	0x2
 2358 0a5d 91       		.byte	0x91
 2359 0a5e 58       		.sleb128 -40
 2360 0a5f 19       		.uleb128 0x19
 2361 0a60 01       		.byte	0x1
 2362 0a61 50       		.byte	0x50
 2363 0a62 02       		.byte	0x2
 2364 0a63 74       		.byte	0x74
 2365 0a64 00       		.sleb128 0
ARM GAS  /tmp/ccWnp1Fj.s 			page 43


 2366 0a65 00       		.byte	0
 2367 0a66 1E       		.uleb128 0x1e
 2368 0a67 18020000 		.4byte	.LVL62
 2369 0a6b 910F0000 		.4byte	0xf91
 2370 0a6f 790A0000 		.4byte	0xa79
 2371 0a73 19       		.uleb128 0x19
 2372 0a74 01       		.byte	0x1
 2373 0a75 50       		.byte	0x50
 2374 0a76 01       		.byte	0x1
 2375 0a77 3E       		.byte	0x3e
 2376 0a78 00       		.byte	0
 2377 0a79 20       		.uleb128 0x20
 2378 0a7a 2C020000 		.4byte	.LVL63
 2379 0a7e 910F0000 		.4byte	0xf91
 2380 0a82 19       		.uleb128 0x19
 2381 0a83 01       		.byte	0x1
 2382 0a84 50       		.byte	0x50
 2383 0a85 01       		.byte	0x1
 2384 0a86 3F       		.byte	0x3f
 2385 0a87 00       		.byte	0
 2386 0a88 00       		.byte	0
 2387 0a89 21       		.uleb128 0x21
 2388 0a8a 0B030000 		.4byte	.LASF95
 2389 0a8e 01       		.byte	0x1
 2390 0a8f 8C       		.byte	0x8c
 2391 0a90 01       		.byte	0x1
 2392 0a91 E0000000 		.4byte	0xe0
 2393 0a95 00000000 		.4byte	.LFB14
 2394 0a99 24000000 		.4byte	.LFE14
 2395 0a9d 4A010000 		.4byte	.LLST3
 2396 0aa1 01       		.byte	0x1
 2397 0aa2 FC0A0000 		.4byte	0xafc
 2398 0aa6 22       		.uleb128 0x22
 2399 0aa7 7000     		.ascii	"p\000"
 2400 0aa9 01       		.byte	0x1
 2401 0aaa 8C       		.byte	0x8c
 2402 0aab AA020000 		.4byte	0x2aa
 2403 0aaf 6A010000 		.4byte	.LLST4
 2404 0ab3 1E       		.uleb128 0x1e
 2405 0ab4 0A000000 		.4byte	.LVL66
 2406 0ab8 82100000 		.4byte	0x1082
 2407 0abc CF0A0000 		.4byte	0xacf
 2408 0ac0 19       		.uleb128 0x19
 2409 0ac1 01       		.byte	0x1
 2410 0ac2 51       		.byte	0x51
 2411 0ac3 01       		.byte	0x1
 2412 0ac4 30       		.byte	0x30
 2413 0ac5 19       		.uleb128 0x19
 2414 0ac6 01       		.byte	0x1
 2415 0ac7 50       		.byte	0x50
 2416 0ac8 05       		.byte	0x5
 2417 0ac9 03       		.byte	0x3
 2418 0aca 00000000 		.4byte	.LANCHOR0
 2419 0ace 00       		.byte	0
 2420 0acf 1E       		.uleb128 0x1e
 2421 0ad0 10000000 		.4byte	.LVL67
 2422 0ad4 9B100000 		.4byte	0x109b
ARM GAS  /tmp/ccWnp1Fj.s 			page 44


 2423 0ad8 E30A0000 		.4byte	0xae3
 2424 0adc 19       		.uleb128 0x19
 2425 0add 01       		.byte	0x1
 2426 0ade 50       		.byte	0x50
 2427 0adf 02       		.byte	0x2
 2428 0ae0 08       		.byte	0x8
 2429 0ae1 32       		.byte	0x32
 2430 0ae2 00       		.byte	0
 2431 0ae3 20       		.uleb128 0x20
 2432 0ae4 18000000 		.4byte	.LVL68
 2433 0ae8 82100000 		.4byte	0x1082
 2434 0aec 19       		.uleb128 0x19
 2435 0aed 01       		.byte	0x1
 2436 0aee 51       		.byte	0x51
 2437 0aef 01       		.byte	0x1
 2438 0af0 30       		.byte	0x30
 2439 0af1 19       		.uleb128 0x19
 2440 0af2 01       		.byte	0x1
 2441 0af3 50       		.byte	0x50
 2442 0af4 05       		.byte	0x5
 2443 0af5 03       		.byte	0x3
 2444 0af6 00000000 		.4byte	.LANCHOR1
 2445 0afa 00       		.byte	0
 2446 0afb 00       		.byte	0
 2447 0afc 21       		.uleb128 0x21
 2448 0afd 03030000 		.4byte	.LASF96
 2449 0b01 01       		.byte	0x1
 2450 0b02 85       		.byte	0x85
 2451 0b03 01       		.byte	0x1
 2452 0b04 E0000000 		.4byte	0xe0
 2453 0b08 00000000 		.4byte	.LFB13
 2454 0b0c 16000000 		.4byte	.LFE13
 2455 0b10 8B010000 		.4byte	.LLST5
 2456 0b14 01       		.byte	0x1
 2457 0b15 500B0000 		.4byte	0xb50
 2458 0b19 22       		.uleb128 0x22
 2459 0b1a 7000     		.ascii	"p\000"
 2460 0b1c 01       		.byte	0x1
 2461 0b1d 85       		.byte	0x85
 2462 0b1e AA020000 		.4byte	0x2aa
 2463 0b22 AB010000 		.4byte	.LLST6
 2464 0b26 1E       		.uleb128 0x1e
 2465 0b27 0A000000 		.4byte	.LVL71
 2466 0b2b 9B100000 		.4byte	0x109b
 2467 0b2f 3A0B0000 		.4byte	0xb3a
 2468 0b33 19       		.uleb128 0x19
 2469 0b34 01       		.byte	0x1
 2470 0b35 50       		.byte	0x50
 2471 0b36 02       		.byte	0x2
 2472 0b37 08       		.byte	0x8
 2473 0b38 32       		.byte	0x32
 2474 0b39 00       		.byte	0
 2475 0b3a 20       		.uleb128 0x20
 2476 0b3b 12000000 		.4byte	.LVL72
 2477 0b3f B0100000 		.4byte	0x10b0
 2478 0b43 19       		.uleb128 0x19
 2479 0b44 01       		.byte	0x1
ARM GAS  /tmp/ccWnp1Fj.s 			page 45


 2480 0b45 51       		.byte	0x51
 2481 0b46 01       		.byte	0x1
 2482 0b47 31       		.byte	0x31
 2483 0b48 19       		.uleb128 0x19
 2484 0b49 01       		.byte	0x1
 2485 0b4a 50       		.byte	0x50
 2486 0b4b 02       		.byte	0x2
 2487 0b4c 74       		.byte	0x74
 2488 0b4d 00       		.sleb128 0
 2489 0b4e 00       		.byte	0
 2490 0b4f 00       		.byte	0
 2491 0b50 1A       		.uleb128 0x1a
 2492 0b51 61050000 		.4byte	.LASF97
 2493 0b55 01       		.byte	0x1
 2494 0b56 55       		.byte	0x55
 2495 0b57 01       		.byte	0x1
 2496 0b58 00000000 		.4byte	.LFB11
 2497 0b5c 88000000 		.4byte	.LFE11
 2498 0b60 C9010000 		.4byte	.LLST7
 2499 0b64 01       		.byte	0x1
 2500 0b65 650C0000 		.4byte	0xc65
 2501 0b69 1C       		.uleb128 0x1c
 2502 0b6a 656C3100 		.ascii	"el1\000"
 2503 0b6e 01       		.byte	0x1
 2504 0b6f 56       		.byte	0x56
 2505 0b70 E6040000 		.4byte	0x4e6
 2506 0b74 02       		.byte	0x2
 2507 0b75 91       		.byte	0x91
 2508 0b76 58       		.sleb128 -40
 2509 0b77 1C       		.uleb128 0x1c
 2510 0b78 656C3200 		.ascii	"el2\000"
 2511 0b7c 01       		.byte	0x1
 2512 0b7d 56       		.byte	0x56
 2513 0b7e E6040000 		.4byte	0x4e6
 2514 0b82 02       		.byte	0x2
 2515 0b83 91       		.byte	0x91
 2516 0b84 68       		.sleb128 -24
 2517 0b85 1E       		.uleb128 0x1e
 2518 0b86 12000000 		.4byte	.LVL73
 2519 0b8a 2D100000 		.4byte	0x102d
 2520 0b8e A40B0000 		.4byte	0xba4
 2521 0b92 19       		.uleb128 0x19
 2522 0b93 01       		.byte	0x1
 2523 0b94 52       		.byte	0x52
 2524 0b95 01       		.byte	0x1
 2525 0b96 31       		.byte	0x31
 2526 0b97 19       		.uleb128 0x19
 2527 0b98 01       		.byte	0x1
 2528 0b99 51       		.byte	0x51
 2529 0b9a 02       		.byte	0x2
 2530 0b9b 7D       		.byte	0x7d
 2531 0b9c 00       		.sleb128 0
 2532 0b9d 19       		.uleb128 0x19
 2533 0b9e 01       		.byte	0x1
 2534 0b9f 50       		.byte	0x50
 2535 0ba0 02       		.byte	0x2
 2536 0ba1 74       		.byte	0x74
ARM GAS  /tmp/ccWnp1Fj.s 			page 46


 2537 0ba2 00       		.sleb128 0
 2538 0ba3 00       		.byte	0
 2539 0ba4 1E       		.uleb128 0x1e
 2540 0ba5 1C000000 		.4byte	.LVL74
 2541 0ba9 2D100000 		.4byte	0x102d
 2542 0bad C30B0000 		.4byte	0xbc3
 2543 0bb1 19       		.uleb128 0x19
 2544 0bb2 01       		.byte	0x1
 2545 0bb3 52       		.byte	0x52
 2546 0bb4 01       		.byte	0x1
 2547 0bb5 32       		.byte	0x32
 2548 0bb6 19       		.uleb128 0x19
 2549 0bb7 01       		.byte	0x1
 2550 0bb8 51       		.byte	0x51
 2551 0bb9 02       		.byte	0x2
 2552 0bba 91       		.byte	0x91
 2553 0bbb 68       		.sleb128 -24
 2554 0bbc 19       		.uleb128 0x19
 2555 0bbd 01       		.byte	0x1
 2556 0bbe 50       		.byte	0x50
 2557 0bbf 02       		.byte	0x2
 2558 0bc0 74       		.byte	0x74
 2559 0bc1 00       		.sleb128 0
 2560 0bc2 00       		.byte	0
 2561 0bc3 1E       		.uleb128 0x1e
 2562 0bc4 2A000000 		.4byte	.LVL75
 2563 0bc8 910F0000 		.4byte	0xf91
 2564 0bcc D60B0000 		.4byte	0xbd6
 2565 0bd0 19       		.uleb128 0x19
 2566 0bd1 01       		.byte	0x1
 2567 0bd2 50       		.byte	0x50
 2568 0bd3 01       		.byte	0x1
 2569 0bd4 31       		.byte	0x31
 2570 0bd5 00       		.byte	0
 2571 0bd6 1E       		.uleb128 0x1e
 2572 0bd7 38000000 		.4byte	.LVL76
 2573 0bdb 69100000 		.4byte	0x1069
 2574 0bdf F00B0000 		.4byte	0xbf0
 2575 0be3 19       		.uleb128 0x19
 2576 0be4 01       		.byte	0x1
 2577 0be5 51       		.byte	0x51
 2578 0be6 02       		.byte	0x2
 2579 0be7 7D       		.byte	0x7d
 2580 0be8 00       		.sleb128 0
 2581 0be9 19       		.uleb128 0x19
 2582 0bea 01       		.byte	0x1
 2583 0beb 50       		.byte	0x50
 2584 0bec 02       		.byte	0x2
 2585 0bed 74       		.byte	0x74
 2586 0bee 00       		.sleb128 0
 2587 0bef 00       		.byte	0
 2588 0bf0 1E       		.uleb128 0x1e
 2589 0bf1 46000000 		.4byte	.LVL77
 2590 0bf5 910F0000 		.4byte	0xf91
 2591 0bf9 030C0000 		.4byte	0xc03
 2592 0bfd 19       		.uleb128 0x19
 2593 0bfe 01       		.byte	0x1
ARM GAS  /tmp/ccWnp1Fj.s 			page 47


 2594 0bff 50       		.byte	0x50
 2595 0c00 01       		.byte	0x1
 2596 0c01 32       		.byte	0x32
 2597 0c02 00       		.byte	0
 2598 0c03 1E       		.uleb128 0x1e
 2599 0c04 52000000 		.4byte	.LVL78
 2600 0c08 69100000 		.4byte	0x1069
 2601 0c0c 1D0C0000 		.4byte	0xc1d
 2602 0c10 19       		.uleb128 0x19
 2603 0c11 01       		.byte	0x1
 2604 0c12 51       		.byte	0x51
 2605 0c13 02       		.byte	0x2
 2606 0c14 91       		.byte	0x91
 2607 0c15 68       		.sleb128 -24
 2608 0c16 19       		.uleb128 0x19
 2609 0c17 01       		.byte	0x1
 2610 0c18 50       		.byte	0x50
 2611 0c19 02       		.byte	0x2
 2612 0c1a 74       		.byte	0x74
 2613 0c1b 00       		.sleb128 0
 2614 0c1c 00       		.byte	0
 2615 0c1d 1E       		.uleb128 0x1e
 2616 0c1e 66000000 		.4byte	.LVL79
 2617 0c22 910F0000 		.4byte	0xf91
 2618 0c26 300C0000 		.4byte	0xc30
 2619 0c2a 19       		.uleb128 0x19
 2620 0c2b 01       		.byte	0x1
 2621 0c2c 50       		.byte	0x50
 2622 0c2d 01       		.byte	0x1
 2623 0c2e 33       		.byte	0x33
 2624 0c2f 00       		.byte	0
 2625 0c30 1E       		.uleb128 0x1e
 2626 0c31 72000000 		.4byte	.LVL80
 2627 0c35 C9100000 		.4byte	0x10c9
 2628 0c39 4C0C0000 		.4byte	0xc4c
 2629 0c3d 19       		.uleb128 0x19
 2630 0c3e 01       		.byte	0x1
 2631 0c3f 51       		.byte	0x51
 2632 0c40 01       		.byte	0x1
 2633 0c41 37       		.byte	0x37
 2634 0c42 19       		.uleb128 0x19
 2635 0c43 01       		.byte	0x1
 2636 0c44 50       		.byte	0x50
 2637 0c45 05       		.byte	0x5
 2638 0c46 03       		.byte	0x3
 2639 0c47 00000000 		.4byte	.LANCHOR2
 2640 0c4b 00       		.byte	0
 2641 0c4c 20       		.uleb128 0x20
 2642 0c4d 7A000000 		.4byte	.LVL81
 2643 0c51 ED100000 		.4byte	0x10ed
 2644 0c55 19       		.uleb128 0x19
 2645 0c56 01       		.byte	0x1
 2646 0c57 51       		.byte	0x51
 2647 0c58 05       		.byte	0x5
 2648 0c59 03       		.byte	0x3
 2649 0c5a 04000000 		.4byte	.LC1
 2650 0c5e 19       		.uleb128 0x19
ARM GAS  /tmp/ccWnp1Fj.s 			page 48


 2651 0c5f 01       		.byte	0x1
 2652 0c60 50       		.byte	0x50
 2653 0c61 01       		.byte	0x1
 2654 0c62 34       		.byte	0x34
 2655 0c63 00       		.byte	0
 2656 0c64 00       		.byte	0
 2657 0c65 23       		.uleb128 0x23
 2658 0c66 683300   		.ascii	"h3\000"
 2659 0c69 01       		.byte	0x1
 2660 0c6a 52       		.byte	0x52
 2661 0c6b 01       		.byte	0x1
 2662 0c6c 00000000 		.4byte	.LFB10
 2663 0c70 06000000 		.4byte	.LFE10
 2664 0c74 02       		.byte	0x2
 2665 0c75 7D       		.byte	0x7d
 2666 0c76 00       		.sleb128 0
 2667 0c77 01       		.byte	0x1
 2668 0c78 9C0C0000 		.4byte	0xc9c
 2669 0c7c 22       		.uleb128 0x22
 2670 0c7d 696400   		.ascii	"id\000"
 2671 0c80 01       		.byte	0x1
 2672 0c81 52       		.byte	0x52
 2673 0c82 EB000000 		.4byte	0xeb
 2674 0c86 F5010000 		.4byte	.LLST8
 2675 0c8a 18       		.uleb128 0x18
 2676 0c8b 06000000 		.4byte	.LVL84
 2677 0c8f 01       		.byte	0x1
 2678 0c90 10110000 		.4byte	0x1110
 2679 0c94 19       		.uleb128 0x19
 2680 0c95 01       		.byte	0x1
 2681 0c96 50       		.byte	0x50
 2682 0c97 02       		.byte	0x2
 2683 0c98 08       		.byte	0x8
 2684 0c99 43       		.byte	0x43
 2685 0c9a 00       		.byte	0
 2686 0c9b 00       		.byte	0
 2687 0c9c 23       		.uleb128 0x23
 2688 0c9d 683200   		.ascii	"h2\000"
 2689 0ca0 01       		.byte	0x1
 2690 0ca1 51       		.byte	0x51
 2691 0ca2 01       		.byte	0x1
 2692 0ca3 00000000 		.4byte	.LFB9
 2693 0ca7 06000000 		.4byte	.LFE9
 2694 0cab 02       		.byte	0x2
 2695 0cac 7D       		.byte	0x7d
 2696 0cad 00       		.sleb128 0
 2697 0cae 01       		.byte	0x1
 2698 0caf D30C0000 		.4byte	0xcd3
 2699 0cb3 22       		.uleb128 0x22
 2700 0cb4 696400   		.ascii	"id\000"
 2701 0cb7 01       		.byte	0x1
 2702 0cb8 51       		.byte	0x51
 2703 0cb9 EB000000 		.4byte	0xeb
 2704 0cbd 16020000 		.4byte	.LLST9
 2705 0cc1 18       		.uleb128 0x18
 2706 0cc2 06000000 		.4byte	.LVL87
 2707 0cc6 01       		.byte	0x1
ARM GAS  /tmp/ccWnp1Fj.s 			page 49


 2708 0cc7 10110000 		.4byte	0x1110
 2709 0ccb 19       		.uleb128 0x19
 2710 0ccc 01       		.byte	0x1
 2711 0ccd 50       		.byte	0x50
 2712 0cce 02       		.byte	0x2
 2713 0ccf 08       		.byte	0x8
 2714 0cd0 42       		.byte	0x42
 2715 0cd1 00       		.byte	0
 2716 0cd2 00       		.byte	0
 2717 0cd3 23       		.uleb128 0x23
 2718 0cd4 683100   		.ascii	"h1\000"
 2719 0cd7 01       		.byte	0x1
 2720 0cd8 50       		.byte	0x50
 2721 0cd9 01       		.byte	0x1
 2722 0cda 00000000 		.4byte	.LFB8
 2723 0cde 06000000 		.4byte	.LFE8
 2724 0ce2 02       		.byte	0x2
 2725 0ce3 7D       		.byte	0x7d
 2726 0ce4 00       		.sleb128 0
 2727 0ce5 01       		.byte	0x1
 2728 0ce6 0A0D0000 		.4byte	0xd0a
 2729 0cea 22       		.uleb128 0x22
 2730 0ceb 696400   		.ascii	"id\000"
 2731 0cee 01       		.byte	0x1
 2732 0cef 50       		.byte	0x50
 2733 0cf0 EB000000 		.4byte	0xeb
 2734 0cf4 37020000 		.4byte	.LLST10
 2735 0cf8 18       		.uleb128 0x18
 2736 0cf9 06000000 		.4byte	.LVL90
 2737 0cfd 01       		.byte	0x1
 2738 0cfe 10110000 		.4byte	0x1110
 2739 0d02 19       		.uleb128 0x19
 2740 0d03 01       		.byte	0x1
 2741 0d04 50       		.byte	0x50
 2742 0d05 02       		.byte	0x2
 2743 0d06 08       		.byte	0x8
 2744 0d07 41       		.byte	0x41
 2745 0d08 00       		.byte	0
 2746 0d09 00       		.byte	0
 2747 0d0a 24       		.uleb128 0x24
 2748 0d0b 3A060000 		.4byte	0x63a
 2749 0d0f 00000000 		.4byte	.LFB17
 2750 0d13 AA000000 		.4byte	.LFE17
 2751 0d17 58020000 		.4byte	.LLST11
 2752 0d1b 01       		.byte	0x1
 2753 0d1c 440E0000 		.4byte	0xe44
 2754 0d20 25       		.uleb128 0x25
 2755 0d21 47060000 		.4byte	0x647
 2756 0d25 78020000 		.4byte	.LLST12
 2757 0d29 26       		.uleb128 0x26
 2758 0d2a 3A060000 		.4byte	0x63a
 2759 0d2e 56000000 		.4byte	.LBB4
 2760 0d32 00000000 		.4byte	.Ldebug_ranges0+0
 2761 0d36 01       		.byte	0x1
 2762 0d37 FC       		.byte	0xfc
 2763 0d38 CD0D0000 		.4byte	0xdcd
 2764 0d3c 27       		.uleb128 0x27
ARM GAS  /tmp/ccWnp1Fj.s 			page 50


 2765 0d3d 18000000 		.4byte	.Ldebug_ranges0+0x18
 2766 0d41 25       		.uleb128 0x25
 2767 0d42 47060000 		.4byte	0x647
 2768 0d46 A1020000 		.4byte	.LLST13
 2769 0d4a 1E       		.uleb128 0x1e
 2770 0d4b 60000000 		.4byte	.LVL100
 2771 0d4f 24110000 		.4byte	0x1124
 2772 0d53 630D0000 		.4byte	0xd63
 2773 0d57 19       		.uleb128 0x19
 2774 0d58 01       		.byte	0x1
 2775 0d59 51       		.byte	0x51
 2776 0d5a 01       		.byte	0x1
 2777 0d5b 3A       		.byte	0x3a
 2778 0d5c 19       		.uleb128 0x19
 2779 0d5d 01       		.byte	0x1
 2780 0d5e 50       		.byte	0x50
 2781 0d5f 02       		.byte	0x2
 2782 0d60 09       		.byte	0x9
 2783 0d61 FF       		.byte	0xff
 2784 0d62 00       		.byte	0
 2785 0d63 1E       		.uleb128 0x1e
 2786 0d64 6E000000 		.4byte	.LVL102
 2787 0d68 910F0000 		.4byte	0xf91
 2788 0d6c 760D0000 		.4byte	0xd76
 2789 0d70 19       		.uleb128 0x19
 2790 0d71 01       		.byte	0x1
 2791 0d72 50       		.byte	0x50
 2792 0d73 01       		.byte	0x1
 2793 0d74 34       		.byte	0x34
 2794 0d75 00       		.byte	0
 2795 0d76 1E       		.uleb128 0x1e
 2796 0d77 7C000000 		.4byte	.LVL103
 2797 0d7b 41110000 		.4byte	0x1141
 2798 0d7f 8F0D0000 		.4byte	0xd8f
 2799 0d83 19       		.uleb128 0x19
 2800 0d84 01       		.byte	0x1
 2801 0d85 51       		.byte	0x51
 2802 0d86 01       		.byte	0x1
 2803 0d87 3A       		.byte	0x3a
 2804 0d88 19       		.uleb128 0x19
 2805 0d89 01       		.byte	0x1
 2806 0d8a 50       		.byte	0x50
 2807 0d8b 02       		.byte	0x2
 2808 0d8c 09       		.byte	0x9
 2809 0d8d FF       		.byte	0xff
 2810 0d8e 00       		.byte	0
 2811 0d8f 1E       		.uleb128 0x1e
 2812 0d90 8A000000 		.4byte	.LVL105
 2813 0d94 910F0000 		.4byte	0xf91
 2814 0d98 A20D0000 		.4byte	0xda2
 2815 0d9c 19       		.uleb128 0x19
 2816 0d9d 01       		.byte	0x1
 2817 0d9e 50       		.byte	0x50
 2818 0d9f 01       		.byte	0x1
 2819 0da0 35       		.byte	0x35
 2820 0da1 00       		.byte	0
 2821 0da2 1E       		.uleb128 0x1e
ARM GAS  /tmp/ccWnp1Fj.s 			page 51


 2822 0da3 98000000 		.4byte	.LVL106
 2823 0da7 5E110000 		.4byte	0x115e
 2824 0dab BB0D0000 		.4byte	0xdbb
 2825 0daf 19       		.uleb128 0x19
 2826 0db0 01       		.byte	0x1
 2827 0db1 51       		.byte	0x51
 2828 0db2 01       		.byte	0x1
 2829 0db3 3A       		.byte	0x3a
 2830 0db4 19       		.uleb128 0x19
 2831 0db5 01       		.byte	0x1
 2832 0db6 50       		.byte	0x50
 2833 0db7 02       		.byte	0x2
 2834 0db8 09       		.byte	0x9
 2835 0db9 FF       		.byte	0xff
 2836 0dba 00       		.byte	0
 2837 0dbb 18       		.uleb128 0x18
 2838 0dbc AA000000 		.4byte	.LVL108
 2839 0dc0 01       		.byte	0x1
 2840 0dc1 910F0000 		.4byte	0xf91
 2841 0dc5 19       		.uleb128 0x19
 2842 0dc6 01       		.byte	0x1
 2843 0dc7 50       		.byte	0x50
 2844 0dc8 01       		.byte	0x1
 2845 0dc9 36       		.byte	0x36
 2846 0dca 00       		.byte	0
 2847 0dcb 00       		.byte	0
 2848 0dcc 00       		.byte	0
 2849 0dcd 1E       		.uleb128 0x1e
 2850 0dce 0C000000 		.4byte	.LVL91
 2851 0dd2 24110000 		.4byte	0x1124
 2852 0dd6 E60D0000 		.4byte	0xde6
 2853 0dda 19       		.uleb128 0x19
 2854 0ddb 01       		.byte	0x1
 2855 0ddc 51       		.byte	0x51
 2856 0ddd 01       		.byte	0x1
 2857 0dde 30       		.byte	0x30
 2858 0ddf 19       		.uleb128 0x19
 2859 0de0 01       		.byte	0x1
 2860 0de1 50       		.byte	0x50
 2861 0de2 02       		.byte	0x2
 2862 0de3 09       		.byte	0x9
 2863 0de4 FF       		.byte	0xff
 2864 0de5 00       		.byte	0
 2865 0de6 1E       		.uleb128 0x1e
 2866 0de7 1A000000 		.4byte	.LVL93
 2867 0deb 910F0000 		.4byte	0xf91
 2868 0def F90D0000 		.4byte	0xdf9
 2869 0df3 19       		.uleb128 0x19
 2870 0df4 01       		.byte	0x1
 2871 0df5 50       		.byte	0x50
 2872 0df6 01       		.byte	0x1
 2873 0df7 31       		.byte	0x31
 2874 0df8 00       		.byte	0
 2875 0df9 1E       		.uleb128 0x1e
 2876 0dfa 28000000 		.4byte	.LVL94
 2877 0dfe 41110000 		.4byte	0x1141
 2878 0e02 0D0E0000 		.4byte	0xe0d
ARM GAS  /tmp/ccWnp1Fj.s 			page 52


 2879 0e06 19       		.uleb128 0x19
 2880 0e07 01       		.byte	0x1
 2881 0e08 50       		.byte	0x50
 2882 0e09 02       		.byte	0x2
 2883 0e0a 09       		.byte	0x9
 2884 0e0b FF       		.byte	0xff
 2885 0e0c 00       		.byte	0
 2886 0e0d 1E       		.uleb128 0x1e
 2887 0e0e 36000000 		.4byte	.LVL96
 2888 0e12 910F0000 		.4byte	0xf91
 2889 0e16 200E0000 		.4byte	0xe20
 2890 0e1a 19       		.uleb128 0x19
 2891 0e1b 01       		.byte	0x1
 2892 0e1c 50       		.byte	0x50
 2893 0e1d 01       		.byte	0x1
 2894 0e1e 32       		.byte	0x32
 2895 0e1f 00       		.byte	0
 2896 0e20 1E       		.uleb128 0x1e
 2897 0e21 44000000 		.4byte	.LVL97
 2898 0e25 5E110000 		.4byte	0x115e
 2899 0e29 340E0000 		.4byte	0xe34
 2900 0e2d 19       		.uleb128 0x19
 2901 0e2e 01       		.byte	0x1
 2902 0e2f 50       		.byte	0x50
 2903 0e30 02       		.byte	0x2
 2904 0e31 09       		.byte	0x9
 2905 0e32 FF       		.byte	0xff
 2906 0e33 00       		.byte	0
 2907 0e34 20       		.uleb128 0x20
 2908 0e35 52000000 		.4byte	.LVL99
 2909 0e39 910F0000 		.4byte	0xf91
 2910 0e3d 19       		.uleb128 0x19
 2911 0e3e 01       		.byte	0x1
 2912 0e3f 50       		.byte	0x50
 2913 0e40 01       		.byte	0x1
 2914 0e41 33       		.byte	0x33
 2915 0e42 00       		.byte	0
 2916 0e43 00       		.byte	0
 2917 0e44 1C       		.uleb128 0x1c
 2918 0e45 65733100 		.ascii	"es1\000"
 2919 0e49 01       		.byte	0x1
 2920 0e4a 3B       		.byte	0x3b
 2921 0e4b 57050000 		.4byte	0x557
 2922 0e4f 05       		.byte	0x5
 2923 0e50 03       		.byte	0x3
 2924 0e51 00000000 		.4byte	es1
 2925 0e55 1C       		.uleb128 0x1c
 2926 0e56 65733200 		.ascii	"es2\000"
 2927 0e5a 01       		.byte	0x1
 2928 0e5b 3C       		.byte	0x3c
 2929 0e5c 57050000 		.4byte	0x557
 2930 0e60 05       		.byte	0x5
 2931 0e61 03       		.byte	0x3
 2932 0e62 00000000 		.4byte	es2
 2933 0e66 28       		.uleb128 0x28
 2934 0e67 62050000 		.4byte	0x562
 2935 0e6b 760E0000 		.4byte	0xe76
ARM GAS  /tmp/ccWnp1Fj.s 			page 53


 2936 0e6f 29       		.uleb128 0x29
 2937 0e70 5D030000 		.4byte	0x35d
 2938 0e74 02       		.byte	0x2
 2939 0e75 00       		.byte	0
 2940 0e76 2A       		.uleb128 0x2a
 2941 0e77 44040000 		.4byte	.LASF98
 2942 0e7b 01       		.byte	0x1
 2943 0e7c 53       		.byte	0x53
 2944 0e7d 870E0000 		.4byte	0xe87
 2945 0e81 05       		.byte	0x5
 2946 0e82 03       		.byte	0x3
 2947 0e83 00000000 		.4byte	evhndl
 2948 0e87 12       		.uleb128 0x12
 2949 0e88 660E0000 		.4byte	0xe66
 2950 0e8c 2B       		.uleb128 0x2b
 2951 0e8d 27000000 		.4byte	.LASF99
 2952 0e91 08       		.byte	0x8
 2953 0e92 EE       		.byte	0xee
 2954 0e93 2B040000 		.4byte	0x42b
 2955 0e97 01       		.byte	0x1
 2956 0e98 01       		.byte	0x1
 2957 0e99 2B       		.uleb128 0x2b
 2958 0e9a E5040000 		.4byte	.LASF100
 2959 0e9e 09       		.byte	0x9
 2960 0e9f 68       		.byte	0x68
 2961 0ea0 93040000 		.4byte	0x493
 2962 0ea4 01       		.byte	0x1
 2963 0ea5 01       		.byte	0x1
 2964 0ea6 28       		.uleb128 0x28
 2965 0ea7 6C020000 		.4byte	0x26c
 2966 0eab B60E0000 		.4byte	0xeb6
 2967 0eaf 29       		.uleb128 0x29
 2968 0eb0 5D030000 		.4byte	0x35d
 2969 0eb4 04       		.byte	0x4
 2970 0eb5 00       		.byte	0
 2971 0eb6 2B       		.uleb128 0x2b
 2972 0eb7 FB030000 		.4byte	.LASF101
 2973 0ebb 0C       		.byte	0xc
 2974 0ebc A5       		.byte	0xa5
 2975 0ebd A60E0000 		.4byte	0xea6
 2976 0ec1 01       		.byte	0x1
 2977 0ec2 01       		.byte	0x1
 2978 0ec3 28       		.uleb128 0x28
 2979 0ec4 AA020000 		.4byte	0x2aa
 2980 0ec8 CE0E0000 		.4byte	0xece
 2981 0ecc 2C       		.uleb128 0x2c
 2982 0ecd 00       		.byte	0
 2983 0ece 2D       		.uleb128 0x2d
 2984 0ecf 776100   		.ascii	"wa\000"
 2985 0ed2 0C       		.byte	0xc
 2986 0ed3 A7       		.byte	0xa7
 2987 0ed4 DA0E0000 		.4byte	0xeda
 2988 0ed8 01       		.byte	0x1
 2989 0ed9 01       		.byte	0x1
 2990 0eda 12       		.uleb128 0x12
 2991 0edb C30E0000 		.4byte	0xec3
 2992 0edf 2E       		.uleb128 0x2e
ARM GAS  /tmp/ccWnp1Fj.s 			page 54


 2993 0ee0 3B040000 		.4byte	.LASF102
 2994 0ee4 01       		.byte	0x1
 2995 0ee5 6B       		.byte	0x6b
 2996 0ee6 F10E0000 		.4byte	0xef1
 2997 0eea 01       		.byte	0x1
 2998 0eeb 05       		.byte	0x5
 2999 0eec 03       		.byte	0x3
 3000 0eed 00000000 		.4byte	testevt1
 3001 0ef1 12       		.uleb128 0x12
 3002 0ef2 ED050000 		.4byte	0x5ed
 3003 0ef6 2E       		.uleb128 0x2e
 3004 0ef7 5C010000 		.4byte	.LASF103
 3005 0efb 01       		.byte	0x1
 3006 0efc E0       		.byte	0xe0
 3007 0efd F10E0000 		.4byte	0xef1
 3008 0f01 01       		.byte	0x1
 3009 0f02 05       		.byte	0x5
 3010 0f03 03       		.byte	0x3
 3011 0f04 00000000 		.4byte	testevt2
 3012 0f08 2F       		.uleb128 0x2f
 3013 0f09 72010000 		.4byte	.LASF104
 3014 0f0d 01       		.byte	0x1
 3015 0f0e 1001     		.2byte	0x110
 3016 0f10 F10E0000 		.4byte	0xef1
 3017 0f14 01       		.byte	0x1
 3018 0f15 05       		.byte	0x5
 3019 0f16 03       		.byte	0x3
 3020 0f17 00000000 		.4byte	testevt3
 3021 0f1b 28       		.uleb128 0x28
 3022 0f1c 2B0F0000 		.4byte	0xf2b
 3023 0f20 2B0F0000 		.4byte	0xf2b
 3024 0f24 29       		.uleb128 0x29
 3025 0f25 5D030000 		.4byte	0x35d
 3026 0f29 03       		.byte	0x3
 3027 0f2a 00       		.byte	0
 3028 0f2b 09       		.uleb128 0x9
 3029 0f2c 04       		.byte	0x4
 3030 0f2d F10E0000 		.4byte	0xef1
 3031 0f31 2F       		.uleb128 0x2f
 3032 0f32 19020000 		.4byte	.LASF105
 3033 0f36 01       		.byte	0x1
 3034 0f37 1B01     		.2byte	0x11b
 3035 0f39 440F0000 		.4byte	0xf44
 3036 0f3d 01       		.byte	0x1
 3037 0f3e 05       		.byte	0x5
 3038 0f3f 03       		.byte	0x3
 3039 0f40 00000000 		.4byte	patternevt
 3040 0f44 12       		.uleb128 0x12
 3041 0f45 1B0F0000 		.4byte	0xf1b
 3042 0f49 30       		.uleb128 0x30
 3043 0f4a 01       		.byte	0x1
 3044 0f4b F9010000 		.4byte	.LASF106
 3045 0f4f 0B       		.byte	0xb
 3046 0f50 AC       		.byte	0xac
 3047 0f51 01       		.byte	0x1
 3048 0f52 F6000000 		.4byte	0xf6
 3049 0f56 01       		.byte	0x1
ARM GAS  /tmp/ccWnp1Fj.s 			page 55


 3050 0f57 610F0000 		.4byte	0xf61
 3051 0f5b 0E       		.uleb128 0xe
 3052 0f5c F6000000 		.4byte	0xf6
 3053 0f60 00       		.byte	0
 3054 0f61 30       		.uleb128 0x30
 3055 0f62 01       		.byte	0x1
 3056 0f63 51000000 		.4byte	.LASF107
 3057 0f67 0B       		.byte	0xb
 3058 0f68 AD       		.byte	0xad
 3059 0f69 01       		.byte	0x1
 3060 0f6a F6000000 		.4byte	0xf6
 3061 0f6e 01       		.byte	0x1
 3062 0f6f 790F0000 		.4byte	0xf79
 3063 0f73 0E       		.uleb128 0xe
 3064 0f74 F6000000 		.4byte	0xf6
 3065 0f78 00       		.byte	0
 3066 0f79 30       		.uleb128 0x30
 3067 0f7a 01       		.byte	0x1
 3068 0f7b A6030000 		.4byte	.LASF108
 3069 0f7f 0B       		.byte	0xb
 3070 0f80 B6       		.byte	0xb6
 3071 0f81 01       		.byte	0x1
 3072 0f82 F6000000 		.4byte	0xf6
 3073 0f86 01       		.byte	0x1
 3074 0f87 910F0000 		.4byte	0xf91
 3075 0f8b 0E       		.uleb128 0xe
 3076 0f8c F6000000 		.4byte	0xf6
 3077 0f90 00       		.byte	0
 3078 0f91 30       		.uleb128 0x30
 3079 0f92 01       		.byte	0x1
 3080 0f93 23050000 		.4byte	.LASF109
 3081 0f97 0C       		.byte	0xc
 3082 0f98 58       		.byte	0x58
 3083 0f99 01       		.byte	0x1
 3084 0f9a 97000000 		.4byte	0x97
 3085 0f9e 01       		.byte	0x1
 3086 0f9f AE0F0000 		.4byte	0xfae
 3087 0fa3 0E       		.uleb128 0xe
 3088 0fa4 37000000 		.4byte	0x37
 3089 0fa8 0E       		.uleb128 0xe
 3090 0fa9 97000000 		.4byte	0x97
 3091 0fad 00       		.byte	0
 3092 0fae 31       		.uleb128 0x31
 3093 0faf 01       		.byte	0x1
 3094 0fb0 52050000 		.4byte	.LASF128
 3095 0fb4 0C       		.byte	0xc
 3096 0fb5 5D       		.byte	0x5d
 3097 0fb6 01       		.byte	0x1
 3098 0fb7 0C010000 		.4byte	0x10c
 3099 0fbb 01       		.byte	0x1
 3100 0fbc 32       		.uleb128 0x32
 3101 0fbd 01       		.byte	0x1
 3102 0fbe 9A020000 		.4byte	.LASF110
 3103 0fc2 06       		.byte	0x6
 3104 0fc3 6901     		.2byte	0x169
 3105 0fc5 01       		.byte	0x1
 3106 0fc6 6C020000 		.4byte	0x26c
ARM GAS  /tmp/ccWnp1Fj.s 			page 56


 3107 0fca 01       		.byte	0x1
 3108 0fcb E90F0000 		.4byte	0xfe9
 3109 0fcf 0E       		.uleb128 0xe
 3110 0fd0 AA020000 		.4byte	0x2aa
 3111 0fd4 0E       		.uleb128 0xe
 3112 0fd5 2C000000 		.4byte	0x2c
 3113 0fd9 0E       		.uleb128 0xe
 3114 0fda D5000000 		.4byte	0xd5
 3115 0fde 0E       		.uleb128 0xe
 3116 0fdf CC050000 		.4byte	0x5cc
 3117 0fe3 0E       		.uleb128 0xe
 3118 0fe4 AA020000 		.4byte	0x2aa
 3119 0fe8 00       		.byte	0
 3120 0fe9 30       		.uleb128 0x30
 3121 0fea 01       		.byte	0x1
 3122 0feb 43010000 		.4byte	.LASF111
 3123 0fef 0C       		.byte	0xc
 3124 0ff0 5A       		.byte	0x5a
 3125 0ff1 01       		.byte	0x1
 3126 0ff2 97000000 		.4byte	0x97
 3127 0ff6 01       		.byte	0x1
 3128 0ff7 0B100000 		.4byte	0x100b
 3129 0ffb 0E       		.uleb128 0xe
 3130 0ffc 37000000 		.4byte	0x37
 3131 1000 0E       		.uleb128 0xe
 3132 1001 0C010000 		.4byte	0x10c
 3133 1005 0E       		.uleb128 0xe
 3134 1006 0C010000 		.4byte	0x10c
 3135 100a 00       		.byte	0
 3136 100b 33       		.uleb128 0x33
 3137 100c 01       		.byte	0x1
 3138 100d E9020000 		.4byte	.LASF129
 3139 1011 0C       		.byte	0xc
 3140 1012 5C       		.byte	0x5c
 3141 1013 01       		.byte	0x1
 3142 1014 01       		.byte	0x1
 3143 1015 30       		.uleb128 0x30
 3144 1016 01       		.byte	0x1
 3145 1017 65010000 		.4byte	.LASF112
 3146 101b 0B       		.byte	0xb
 3147 101c B7       		.byte	0xb7
 3148 101d 01       		.byte	0x1
 3149 101e F6000000 		.4byte	0xf6
 3150 1022 01       		.byte	0x1
 3151 1023 2D100000 		.4byte	0x102d
 3152 1027 0E       		.uleb128 0xe
 3153 1028 F6000000 		.4byte	0xf6
 3154 102c 00       		.byte	0
 3155 102d 34       		.uleb128 0x34
 3156 102e 01       		.byte	0x1
 3157 102f 44020000 		.4byte	.LASF114
 3158 1033 0B       		.byte	0xb
 3159 1034 A8       		.byte	0xa8
 3160 1035 01       		.byte	0x1
 3161 1036 01       		.byte	0x1
 3162 1037 4B100000 		.4byte	0x104b
 3163 103b 0E       		.uleb128 0xe
ARM GAS  /tmp/ccWnp1Fj.s 			page 57


 3164 103c 4B100000 		.4byte	0x104b
 3165 1040 0E       		.uleb128 0xe
 3166 1041 36050000 		.4byte	0x536
 3167 1045 0E       		.uleb128 0xe
 3168 1046 F6000000 		.4byte	0xf6
 3169 104a 00       		.byte	0
 3170 104b 09       		.uleb128 0x9
 3171 104c 04       		.byte	0x4
 3172 104d 57050000 		.4byte	0x557
 3173 1051 30       		.uleb128 0x30
 3174 1052 01       		.byte	0x1
 3175 1053 42030000 		.4byte	.LASF113
 3176 1057 0B       		.byte	0xb
 3177 1058 B8       		.byte	0xb8
 3178 1059 01       		.byte	0x1
 3179 105a F6000000 		.4byte	0xf6
 3180 105e 01       		.byte	0x1
 3181 105f 69100000 		.4byte	0x1069
 3182 1063 0E       		.uleb128 0xe
 3183 1064 F6000000 		.4byte	0xf6
 3184 1068 00       		.byte	0
 3185 1069 34       		.uleb128 0x34
 3186 106a 01       		.byte	0x1
 3187 106b 64020000 		.4byte	.LASF115
 3188 106f 0B       		.byte	0xb
 3189 1070 AB       		.byte	0xab
 3190 1071 01       		.byte	0x1
 3191 1072 01       		.byte	0x1
 3192 1073 82100000 		.4byte	0x1082
 3193 1077 0E       		.uleb128 0xe
 3194 1078 4B100000 		.4byte	0x104b
 3195 107c 0E       		.uleb128 0xe
 3196 107d 36050000 		.4byte	0x536
 3197 1081 00       		.byte	0
 3198 1082 34       		.uleb128 0x34
 3199 1083 01       		.byte	0x1
 3200 1084 9C010000 		.4byte	.LASF116
 3201 1088 0B       		.byte	0xb
 3202 1089 B2       		.byte	0xb2
 3203 108a 01       		.byte	0x1
 3204 108b 01       		.byte	0x1
 3205 108c 9B100000 		.4byte	0x109b
 3206 1090 0E       		.uleb128 0xe
 3207 1091 4B100000 		.4byte	0x104b
 3208 1095 0E       		.uleb128 0xe
 3209 1096 01010000 		.4byte	0x101
 3210 109a 00       		.byte	0
 3211 109b 35       		.uleb128 0x35
 3212 109c 01       		.byte	0x1
 3213 109d C9040000 		.4byte	.LASF117
 3214 10a1 06       		.byte	0x6
 3215 10a2 6E01     		.2byte	0x16e
 3216 10a4 01       		.byte	0x1
 3217 10a5 01       		.byte	0x1
 3218 10a6 B0100000 		.4byte	0x10b0
 3219 10aa 0E       		.uleb128 0xe
 3220 10ab 0C010000 		.4byte	0x10c
ARM GAS  /tmp/ccWnp1Fj.s 			page 58


 3221 10af 00       		.byte	0
 3222 10b0 34       		.uleb128 0x34
 3223 10b1 01       		.byte	0x1
 3224 10b2 2E000000 		.4byte	.LASF118
 3225 10b6 0B       		.byte	0xb
 3226 10b7 B0       		.byte	0xb0
 3227 10b8 01       		.byte	0x1
 3228 10b9 01       		.byte	0x1
 3229 10ba C9100000 		.4byte	0x10c9
 3230 10be 0E       		.uleb128 0xe
 3231 10bf 6C020000 		.4byte	0x26c
 3232 10c3 0E       		.uleb128 0xe
 3233 10c4 F6000000 		.4byte	0xf6
 3234 10c8 00       		.byte	0
 3235 10c9 34       		.uleb128 0x34
 3236 10ca 01       		.byte	0x1
 3237 10cb D0020000 		.4byte	.LASF119
 3238 10cf 0B       		.byte	0xb
 3239 10d0 B4       		.byte	0xb4
 3240 10d1 01       		.byte	0x1
 3241 10d2 01       		.byte	0x1
 3242 10d3 E2100000 		.4byte	0x10e2
 3243 10d7 0E       		.uleb128 0xe
 3244 10d8 E2100000 		.4byte	0x10e2
 3245 10dc 0E       		.uleb128 0xe
 3246 10dd F6000000 		.4byte	0xf6
 3247 10e1 00       		.byte	0
 3248 10e2 09       		.uleb128 0x9
 3249 10e3 04       		.byte	0x4
 3250 10e4 E8100000 		.4byte	0x10e8
 3251 10e8 12       		.uleb128 0x12
 3252 10e9 62050000 		.4byte	0x562
 3253 10ed 30       		.uleb128 0x30
 3254 10ee 01       		.byte	0x1
 3255 10ef 2C030000 		.4byte	.LASF120
 3256 10f3 0C       		.byte	0xc
 3257 10f4 59       		.byte	0x59
 3258 10f5 01       		.byte	0x1
 3259 10f6 97000000 		.4byte	0x97
 3260 10fa 01       		.byte	0x1
 3261 10fb 0A110000 		.4byte	0x110a
 3262 10ff 0E       		.uleb128 0xe
 3263 1100 37000000 		.4byte	0x37
 3264 1104 0E       		.uleb128 0xe
 3265 1105 0A110000 		.4byte	0x110a
 3266 1109 00       		.byte	0
 3267 110a 09       		.uleb128 0x9
 3268 110b 04       		.byte	0x4
 3269 110c BF050000 		.4byte	0x5bf
 3270 1110 34       		.uleb128 0x34
 3271 1111 01       		.byte	0x1
 3272 1112 0B010000 		.4byte	.LASF121
 3273 1116 0C       		.byte	0xc
 3274 1117 56       		.byte	0x56
 3275 1118 01       		.byte	0x1
 3276 1119 01       		.byte	0x1
 3277 111a 24110000 		.4byte	0x1124
ARM GAS  /tmp/ccWnp1Fj.s 			page 59


 3278 111e 0E       		.uleb128 0xe
 3279 111f BF050000 		.4byte	0x5bf
 3280 1123 00       		.byte	0
 3281 1124 30       		.uleb128 0x30
 3282 1125 01       		.byte	0x1
 3283 1126 01050000 		.4byte	.LASF122
 3284 112a 0B       		.byte	0xb
 3285 112b BB       		.byte	0xbb
 3286 112c 01       		.byte	0x1
 3287 112d F6000000 		.4byte	0xf6
 3288 1131 01       		.byte	0x1
 3289 1132 41110000 		.4byte	0x1141
 3290 1136 0E       		.uleb128 0xe
 3291 1137 F6000000 		.4byte	0xf6
 3292 113b 0E       		.uleb128 0xe
 3293 113c 0C010000 		.4byte	0x10c
 3294 1140 00       		.byte	0
 3295 1141 30       		.uleb128 0x30
 3296 1142 01       		.byte	0x1
 3297 1143 69000000 		.4byte	.LASF123
 3298 1147 0B       		.byte	0xb
 3299 1148 BC       		.byte	0xbc
 3300 1149 01       		.byte	0x1
 3301 114a F6000000 		.4byte	0xf6
 3302 114e 01       		.byte	0x1
 3303 114f 5E110000 		.4byte	0x115e
 3304 1153 0E       		.uleb128 0xe
 3305 1154 F6000000 		.4byte	0xf6
 3306 1158 0E       		.uleb128 0xe
 3307 1159 0C010000 		.4byte	0x10c
 3308 115d 00       		.byte	0
 3309 115e 36       		.uleb128 0x36
 3310 115f 01       		.byte	0x1
 3311 1160 E0000000 		.4byte	.LASF124
 3312 1164 0B       		.byte	0xb
 3313 1165 BD       		.byte	0xbd
 3314 1166 01       		.byte	0x1
 3315 1167 F6000000 		.4byte	0xf6
 3316 116b 01       		.byte	0x1
 3317 116c 0E       		.uleb128 0xe
 3318 116d F6000000 		.4byte	0xf6
 3319 1171 0E       		.uleb128 0xe
 3320 1172 0C010000 		.4byte	0x10c
 3321 1176 00       		.byte	0
 3322 1177 00       		.byte	0
 3323              		.section	.debug_abbrev,"",%progbits
 3324              	.Ldebug_abbrev0:
 3325 0000 01       		.uleb128 0x1
 3326 0001 11       		.uleb128 0x11
 3327 0002 01       		.byte	0x1
 3328 0003 25       		.uleb128 0x25
 3329 0004 0E       		.uleb128 0xe
 3330 0005 13       		.uleb128 0x13
 3331 0006 0B       		.uleb128 0xb
 3332 0007 03       		.uleb128 0x3
 3333 0008 0E       		.uleb128 0xe
 3334 0009 55       		.uleb128 0x55
ARM GAS  /tmp/ccWnp1Fj.s 			page 60


 3335 000a 06       		.uleb128 0x6
 3336 000b 11       		.uleb128 0x11
 3337 000c 01       		.uleb128 0x1
 3338 000d 52       		.uleb128 0x52
 3339 000e 01       		.uleb128 0x1
 3340 000f 10       		.uleb128 0x10
 3341 0010 06       		.uleb128 0x6
 3342 0011 00       		.byte	0
 3343 0012 00       		.byte	0
 3344 0013 02       		.uleb128 0x2
 3345 0014 24       		.uleb128 0x24
 3346 0015 00       		.byte	0
 3347 0016 0B       		.uleb128 0xb
 3348 0017 0B       		.uleb128 0xb
 3349 0018 3E       		.uleb128 0x3e
 3350 0019 0B       		.uleb128 0xb
 3351 001a 03       		.uleb128 0x3
 3352 001b 08       		.uleb128 0x8
 3353 001c 00       		.byte	0
 3354 001d 00       		.byte	0
 3355 001e 03       		.uleb128 0x3
 3356 001f 16       		.uleb128 0x16
 3357 0020 00       		.byte	0
 3358 0021 03       		.uleb128 0x3
 3359 0022 0E       		.uleb128 0xe
 3360 0023 3A       		.uleb128 0x3a
 3361 0024 0B       		.uleb128 0xb
 3362 0025 3B       		.uleb128 0x3b
 3363 0026 0B       		.uleb128 0xb
 3364 0027 49       		.uleb128 0x49
 3365 0028 13       		.uleb128 0x13
 3366 0029 00       		.byte	0
 3367 002a 00       		.byte	0
 3368 002b 04       		.uleb128 0x4
 3369 002c 24       		.uleb128 0x24
 3370 002d 00       		.byte	0
 3371 002e 0B       		.uleb128 0xb
 3372 002f 0B       		.uleb128 0xb
 3373 0030 3E       		.uleb128 0x3e
 3374 0031 0B       		.uleb128 0xb
 3375 0032 03       		.uleb128 0x3
 3376 0033 0E       		.uleb128 0xe
 3377 0034 00       		.byte	0
 3378 0035 00       		.byte	0
 3379 0036 05       		.uleb128 0x5
 3380 0037 13       		.uleb128 0x13
 3381 0038 01       		.byte	0x1
 3382 0039 03       		.uleb128 0x3
 3383 003a 0E       		.uleb128 0xe
 3384 003b 0B       		.uleb128 0xb
 3385 003c 0B       		.uleb128 0xb
 3386 003d 3A       		.uleb128 0x3a
 3387 003e 0B       		.uleb128 0xb
 3388 003f 3B       		.uleb128 0x3b
 3389 0040 0B       		.uleb128 0xb
 3390 0041 01       		.uleb128 0x1
 3391 0042 13       		.uleb128 0x13
ARM GAS  /tmp/ccWnp1Fj.s 			page 61


 3392 0043 00       		.byte	0
 3393 0044 00       		.byte	0
 3394 0045 06       		.uleb128 0x6
 3395 0046 0D       		.uleb128 0xd
 3396 0047 00       		.byte	0
 3397 0048 03       		.uleb128 0x3
 3398 0049 0E       		.uleb128 0xe
 3399 004a 3A       		.uleb128 0x3a
 3400 004b 0B       		.uleb128 0xb
 3401 004c 3B       		.uleb128 0x3b
 3402 004d 0B       		.uleb128 0xb
 3403 004e 49       		.uleb128 0x49
 3404 004f 13       		.uleb128 0x13
 3405 0050 38       		.uleb128 0x38
 3406 0051 0A       		.uleb128 0xa
 3407 0052 00       		.byte	0
 3408 0053 00       		.byte	0
 3409 0054 07       		.uleb128 0x7
 3410 0055 0D       		.uleb128 0xd
 3411 0056 00       		.byte	0
 3412 0057 03       		.uleb128 0x3
 3413 0058 08       		.uleb128 0x8
 3414 0059 3A       		.uleb128 0x3a
 3415 005a 0B       		.uleb128 0xb
 3416 005b 3B       		.uleb128 0x3b
 3417 005c 0B       		.uleb128 0xb
 3418 005d 49       		.uleb128 0x49
 3419 005e 13       		.uleb128 0x13
 3420 005f 38       		.uleb128 0x38
 3421 0060 0A       		.uleb128 0xa
 3422 0061 00       		.byte	0
 3423 0062 00       		.byte	0
 3424 0063 08       		.uleb128 0x8
 3425 0064 13       		.uleb128 0x13
 3426 0065 01       		.byte	0x1
 3427 0066 0B       		.uleb128 0xb
 3428 0067 0B       		.uleb128 0xb
 3429 0068 3A       		.uleb128 0x3a
 3430 0069 0B       		.uleb128 0xb
 3431 006a 3B       		.uleb128 0x3b
 3432 006b 0B       		.uleb128 0xb
 3433 006c 01       		.uleb128 0x1
 3434 006d 13       		.uleb128 0x13
 3435 006e 00       		.byte	0
 3436 006f 00       		.byte	0
 3437 0070 09       		.uleb128 0x9
 3438 0071 0F       		.uleb128 0xf
 3439 0072 00       		.byte	0
 3440 0073 0B       		.uleb128 0xb
 3441 0074 0B       		.uleb128 0xb
 3442 0075 49       		.uleb128 0x49
 3443 0076 13       		.uleb128 0x13
 3444 0077 00       		.byte	0
 3445 0078 00       		.byte	0
 3446 0079 0A       		.uleb128 0xa
 3447 007a 0F       		.uleb128 0xf
 3448 007b 00       		.byte	0
ARM GAS  /tmp/ccWnp1Fj.s 			page 62


 3449 007c 0B       		.uleb128 0xb
 3450 007d 0B       		.uleb128 0xb
 3451 007e 00       		.byte	0
 3452 007f 00       		.byte	0
 3453 0080 0B       		.uleb128 0xb
 3454 0081 13       		.uleb128 0x13
 3455 0082 01       		.byte	0x1
 3456 0083 03       		.uleb128 0x3
 3457 0084 0E       		.uleb128 0xe
 3458 0085 0B       		.uleb128 0xb
 3459 0086 0B       		.uleb128 0xb
 3460 0087 3A       		.uleb128 0x3a
 3461 0088 0B       		.uleb128 0xb
 3462 0089 3B       		.uleb128 0x3b
 3463 008a 05       		.uleb128 0x5
 3464 008b 01       		.uleb128 0x1
 3465 008c 13       		.uleb128 0x13
 3466 008d 00       		.byte	0
 3467 008e 00       		.byte	0
 3468 008f 0C       		.uleb128 0xc
 3469 0090 0D       		.uleb128 0xd
 3470 0091 00       		.byte	0
 3471 0092 03       		.uleb128 0x3
 3472 0093 08       		.uleb128 0x8
 3473 0094 3A       		.uleb128 0x3a
 3474 0095 0B       		.uleb128 0xb
 3475 0096 3B       		.uleb128 0x3b
 3476 0097 05       		.uleb128 0x5
 3477 0098 49       		.uleb128 0x49
 3478 0099 13       		.uleb128 0x13
 3479 009a 38       		.uleb128 0x38
 3480 009b 0A       		.uleb128 0xa
 3481 009c 00       		.byte	0
 3482 009d 00       		.byte	0
 3483 009e 0D       		.uleb128 0xd
 3484 009f 15       		.uleb128 0x15
 3485 00a0 01       		.byte	0x1
 3486 00a1 27       		.uleb128 0x27
 3487 00a2 0C       		.uleb128 0xc
 3488 00a3 01       		.uleb128 0x1
 3489 00a4 13       		.uleb128 0x13
 3490 00a5 00       		.byte	0
 3491 00a6 00       		.byte	0
 3492 00a7 0E       		.uleb128 0xe
 3493 00a8 05       		.uleb128 0x5
 3494 00a9 00       		.byte	0
 3495 00aa 49       		.uleb128 0x49
 3496 00ab 13       		.uleb128 0x13
 3497 00ac 00       		.byte	0
 3498 00ad 00       		.byte	0
 3499 00ae 0F       		.uleb128 0xf
 3500 00af 35       		.uleb128 0x35
 3501 00b0 00       		.byte	0
 3502 00b1 49       		.uleb128 0x49
 3503 00b2 13       		.uleb128 0x13
 3504 00b3 00       		.byte	0
 3505 00b4 00       		.byte	0
ARM GAS  /tmp/ccWnp1Fj.s 			page 63


 3506 00b5 10       		.uleb128 0x10
 3507 00b6 17       		.uleb128 0x17
 3508 00b7 01       		.byte	0x1
 3509 00b8 0B       		.uleb128 0xb
 3510 00b9 0B       		.uleb128 0xb
 3511 00ba 3A       		.uleb128 0x3a
 3512 00bb 0B       		.uleb128 0xb
 3513 00bc 3B       		.uleb128 0x3b
 3514 00bd 0B       		.uleb128 0xb
 3515 00be 01       		.uleb128 0x1
 3516 00bf 13       		.uleb128 0x13
 3517 00c0 00       		.byte	0
 3518 00c1 00       		.byte	0
 3519 00c2 11       		.uleb128 0x11
 3520 00c3 0D       		.uleb128 0xd
 3521 00c4 00       		.byte	0
 3522 00c5 03       		.uleb128 0x3
 3523 00c6 0E       		.uleb128 0xe
 3524 00c7 3A       		.uleb128 0x3a
 3525 00c8 0B       		.uleb128 0xb
 3526 00c9 3B       		.uleb128 0x3b
 3527 00ca 0B       		.uleb128 0xb
 3528 00cb 49       		.uleb128 0x49
 3529 00cc 13       		.uleb128 0x13
 3530 00cd 00       		.byte	0
 3531 00ce 00       		.byte	0
 3532 00cf 12       		.uleb128 0x12
 3533 00d0 26       		.uleb128 0x26
 3534 00d1 00       		.byte	0
 3535 00d2 49       		.uleb128 0x49
 3536 00d3 13       		.uleb128 0x13
 3537 00d4 00       		.byte	0
 3538 00d5 00       		.byte	0
 3539 00d6 13       		.uleb128 0x13
 3540 00d7 15       		.uleb128 0x15
 3541 00d8 01       		.byte	0x1
 3542 00d9 27       		.uleb128 0x27
 3543 00da 0C       		.uleb128 0xc
 3544 00db 49       		.uleb128 0x49
 3545 00dc 13       		.uleb128 0x13
 3546 00dd 01       		.uleb128 0x1
 3547 00de 13       		.uleb128 0x13
 3548 00df 00       		.byte	0
 3549 00e0 00       		.byte	0
 3550 00e1 14       		.uleb128 0x14
 3551 00e2 15       		.uleb128 0x15
 3552 00e3 00       		.byte	0
 3553 00e4 27       		.uleb128 0x27
 3554 00e5 0C       		.uleb128 0xc
 3555 00e6 00       		.byte	0
 3556 00e7 00       		.byte	0
 3557 00e8 15       		.uleb128 0x15
 3558 00e9 2E       		.uleb128 0x2e
 3559 00ea 01       		.byte	0x1
 3560 00eb 03       		.uleb128 0x3
 3561 00ec 0E       		.uleb128 0xe
 3562 00ed 3A       		.uleb128 0x3a
ARM GAS  /tmp/ccWnp1Fj.s 			page 64


 3563 00ee 0B       		.uleb128 0xb
 3564 00ef 3B       		.uleb128 0x3b
 3565 00f0 0B       		.uleb128 0xb
 3566 00f1 27       		.uleb128 0x27
 3567 00f2 0C       		.uleb128 0xc
 3568 00f3 20       		.uleb128 0x20
 3569 00f4 0B       		.uleb128 0xb
 3570 00f5 01       		.uleb128 0x1
 3571 00f6 13       		.uleb128 0x13
 3572 00f7 00       		.byte	0
 3573 00f8 00       		.byte	0
 3574 00f9 16       		.uleb128 0x16
 3575 00fa 34       		.uleb128 0x34
 3576 00fb 00       		.byte	0
 3577 00fc 03       		.uleb128 0x3
 3578 00fd 08       		.uleb128 0x8
 3579 00fe 3A       		.uleb128 0x3a
 3580 00ff 0B       		.uleb128 0xb
 3581 0100 3B       		.uleb128 0x3b
 3582 0101 0B       		.uleb128 0xb
 3583 0102 49       		.uleb128 0x49
 3584 0103 13       		.uleb128 0x13
 3585 0104 00       		.byte	0
 3586 0105 00       		.byte	0
 3587 0106 17       		.uleb128 0x17
 3588 0107 2E       		.uleb128 0x2e
 3589 0108 01       		.byte	0x1
 3590 0109 03       		.uleb128 0x3
 3591 010a 0E       		.uleb128 0xe
 3592 010b 3A       		.uleb128 0x3a
 3593 010c 0B       		.uleb128 0xb
 3594 010d 3B       		.uleb128 0x3b
 3595 010e 0B       		.uleb128 0xb
 3596 010f 27       		.uleb128 0x27
 3597 0110 0C       		.uleb128 0xc
 3598 0111 11       		.uleb128 0x11
 3599 0112 01       		.uleb128 0x1
 3600 0113 12       		.uleb128 0x12
 3601 0114 01       		.uleb128 0x1
 3602 0115 40       		.uleb128 0x40
 3603 0116 0A       		.uleb128 0xa
 3604 0117 9742     		.uleb128 0x2117
 3605 0119 0C       		.uleb128 0xc
 3606 011a 01       		.uleb128 0x1
 3607 011b 13       		.uleb128 0x13
 3608 011c 00       		.byte	0
 3609 011d 00       		.byte	0
 3610 011e 18       		.uleb128 0x18
 3611 011f 898201   		.uleb128 0x4109
 3612 0122 01       		.byte	0x1
 3613 0123 11       		.uleb128 0x11
 3614 0124 01       		.uleb128 0x1
 3615 0125 9542     		.uleb128 0x2115
 3616 0127 0C       		.uleb128 0xc
 3617 0128 31       		.uleb128 0x31
 3618 0129 13       		.uleb128 0x13
 3619 012a 00       		.byte	0
ARM GAS  /tmp/ccWnp1Fj.s 			page 65


 3620 012b 00       		.byte	0
 3621 012c 19       		.uleb128 0x19
 3622 012d 8A8201   		.uleb128 0x410a
 3623 0130 00       		.byte	0
 3624 0131 02       		.uleb128 0x2
 3625 0132 0A       		.uleb128 0xa
 3626 0133 9142     		.uleb128 0x2111
 3627 0135 0A       		.uleb128 0xa
 3628 0136 00       		.byte	0
 3629 0137 00       		.byte	0
 3630 0138 1A       		.uleb128 0x1a
 3631 0139 2E       		.uleb128 0x2e
 3632 013a 01       		.byte	0x1
 3633 013b 03       		.uleb128 0x3
 3634 013c 0E       		.uleb128 0xe
 3635 013d 3A       		.uleb128 0x3a
 3636 013e 0B       		.uleb128 0xb
 3637 013f 3B       		.uleb128 0x3b
 3638 0140 0B       		.uleb128 0xb
 3639 0141 27       		.uleb128 0x27
 3640 0142 0C       		.uleb128 0xc
 3641 0143 11       		.uleb128 0x11
 3642 0144 01       		.uleb128 0x1
 3643 0145 12       		.uleb128 0x12
 3644 0146 01       		.uleb128 0x1
 3645 0147 40       		.uleb128 0x40
 3646 0148 06       		.uleb128 0x6
 3647 0149 9742     		.uleb128 0x2117
 3648 014b 0C       		.uleb128 0xc
 3649 014c 01       		.uleb128 0x1
 3650 014d 13       		.uleb128 0x13
 3651 014e 00       		.byte	0
 3652 014f 00       		.byte	0
 3653 0150 1B       		.uleb128 0x1b
 3654 0151 34       		.uleb128 0x34
 3655 0152 00       		.byte	0
 3656 0153 03       		.uleb128 0x3
 3657 0154 08       		.uleb128 0x8
 3658 0155 3A       		.uleb128 0x3a
 3659 0156 0B       		.uleb128 0xb
 3660 0157 3B       		.uleb128 0x3b
 3661 0158 0B       		.uleb128 0xb
 3662 0159 49       		.uleb128 0x49
 3663 015a 13       		.uleb128 0x13
 3664 015b 02       		.uleb128 0x2
 3665 015c 06       		.uleb128 0x6
 3666 015d 00       		.byte	0
 3667 015e 00       		.byte	0
 3668 015f 1C       		.uleb128 0x1c
 3669 0160 34       		.uleb128 0x34
 3670 0161 00       		.byte	0
 3671 0162 03       		.uleb128 0x3
 3672 0163 08       		.uleb128 0x8
 3673 0164 3A       		.uleb128 0x3a
 3674 0165 0B       		.uleb128 0xb
 3675 0166 3B       		.uleb128 0x3b
 3676 0167 0B       		.uleb128 0xb
ARM GAS  /tmp/ccWnp1Fj.s 			page 66


 3677 0168 49       		.uleb128 0x49
 3678 0169 13       		.uleb128 0x13
 3679 016a 02       		.uleb128 0x2
 3680 016b 0A       		.uleb128 0xa
 3681 016c 00       		.byte	0
 3682 016d 00       		.byte	0
 3683 016e 1D       		.uleb128 0x1d
 3684 016f 34       		.uleb128 0x34
 3685 0170 00       		.byte	0
 3686 0171 03       		.uleb128 0x3
 3687 0172 0E       		.uleb128 0xe
 3688 0173 3A       		.uleb128 0x3a
 3689 0174 0B       		.uleb128 0xb
 3690 0175 3B       		.uleb128 0x3b
 3691 0176 0B       		.uleb128 0xb
 3692 0177 49       		.uleb128 0x49
 3693 0178 13       		.uleb128 0x13
 3694 0179 02       		.uleb128 0x2
 3695 017a 06       		.uleb128 0x6
 3696 017b 00       		.byte	0
 3697 017c 00       		.byte	0
 3698 017d 1E       		.uleb128 0x1e
 3699 017e 898201   		.uleb128 0x4109
 3700 0181 01       		.byte	0x1
 3701 0182 11       		.uleb128 0x11
 3702 0183 01       		.uleb128 0x1
 3703 0184 31       		.uleb128 0x31
 3704 0185 13       		.uleb128 0x13
 3705 0186 01       		.uleb128 0x1
 3706 0187 13       		.uleb128 0x13
 3707 0188 00       		.byte	0
 3708 0189 00       		.byte	0
 3709 018a 1F       		.uleb128 0x1f
 3710 018b 898201   		.uleb128 0x4109
 3711 018e 00       		.byte	0
 3712 018f 11       		.uleb128 0x11
 3713 0190 01       		.uleb128 0x1
 3714 0191 31       		.uleb128 0x31
 3715 0192 13       		.uleb128 0x13
 3716 0193 00       		.byte	0
 3717 0194 00       		.byte	0
 3718 0195 20       		.uleb128 0x20
 3719 0196 898201   		.uleb128 0x4109
 3720 0199 01       		.byte	0x1
 3721 019a 11       		.uleb128 0x11
 3722 019b 01       		.uleb128 0x1
 3723 019c 31       		.uleb128 0x31
 3724 019d 13       		.uleb128 0x13
 3725 019e 00       		.byte	0
 3726 019f 00       		.byte	0
 3727 01a0 21       		.uleb128 0x21
 3728 01a1 2E       		.uleb128 0x2e
 3729 01a2 01       		.byte	0x1
 3730 01a3 03       		.uleb128 0x3
 3731 01a4 0E       		.uleb128 0xe
 3732 01a5 3A       		.uleb128 0x3a
 3733 01a6 0B       		.uleb128 0xb
ARM GAS  /tmp/ccWnp1Fj.s 			page 67


 3734 01a7 3B       		.uleb128 0x3b
 3735 01a8 0B       		.uleb128 0xb
 3736 01a9 27       		.uleb128 0x27
 3737 01aa 0C       		.uleb128 0xc
 3738 01ab 49       		.uleb128 0x49
 3739 01ac 13       		.uleb128 0x13
 3740 01ad 11       		.uleb128 0x11
 3741 01ae 01       		.uleb128 0x1
 3742 01af 12       		.uleb128 0x12
 3743 01b0 01       		.uleb128 0x1
 3744 01b1 40       		.uleb128 0x40
 3745 01b2 06       		.uleb128 0x6
 3746 01b3 9742     		.uleb128 0x2117
 3747 01b5 0C       		.uleb128 0xc
 3748 01b6 01       		.uleb128 0x1
 3749 01b7 13       		.uleb128 0x13
 3750 01b8 00       		.byte	0
 3751 01b9 00       		.byte	0
 3752 01ba 22       		.uleb128 0x22
 3753 01bb 05       		.uleb128 0x5
 3754 01bc 00       		.byte	0
 3755 01bd 03       		.uleb128 0x3
 3756 01be 08       		.uleb128 0x8
 3757 01bf 3A       		.uleb128 0x3a
 3758 01c0 0B       		.uleb128 0xb
 3759 01c1 3B       		.uleb128 0x3b
 3760 01c2 0B       		.uleb128 0xb
 3761 01c3 49       		.uleb128 0x49
 3762 01c4 13       		.uleb128 0x13
 3763 01c5 02       		.uleb128 0x2
 3764 01c6 06       		.uleb128 0x6
 3765 01c7 00       		.byte	0
 3766 01c8 00       		.byte	0
 3767 01c9 23       		.uleb128 0x23
 3768 01ca 2E       		.uleb128 0x2e
 3769 01cb 01       		.byte	0x1
 3770 01cc 03       		.uleb128 0x3
 3771 01cd 08       		.uleb128 0x8
 3772 01ce 3A       		.uleb128 0x3a
 3773 01cf 0B       		.uleb128 0xb
 3774 01d0 3B       		.uleb128 0x3b
 3775 01d1 0B       		.uleb128 0xb
 3776 01d2 27       		.uleb128 0x27
 3777 01d3 0C       		.uleb128 0xc
 3778 01d4 11       		.uleb128 0x11
 3779 01d5 01       		.uleb128 0x1
 3780 01d6 12       		.uleb128 0x12
 3781 01d7 01       		.uleb128 0x1
 3782 01d8 40       		.uleb128 0x40
 3783 01d9 0A       		.uleb128 0xa
 3784 01da 9742     		.uleb128 0x2117
 3785 01dc 0C       		.uleb128 0xc
 3786 01dd 01       		.uleb128 0x1
 3787 01de 13       		.uleb128 0x13
 3788 01df 00       		.byte	0
 3789 01e0 00       		.byte	0
 3790 01e1 24       		.uleb128 0x24
ARM GAS  /tmp/ccWnp1Fj.s 			page 68


 3791 01e2 2E       		.uleb128 0x2e
 3792 01e3 01       		.byte	0x1
 3793 01e4 31       		.uleb128 0x31
 3794 01e5 13       		.uleb128 0x13
 3795 01e6 11       		.uleb128 0x11
 3796 01e7 01       		.uleb128 0x1
 3797 01e8 12       		.uleb128 0x12
 3798 01e9 01       		.uleb128 0x1
 3799 01ea 40       		.uleb128 0x40
 3800 01eb 06       		.uleb128 0x6
 3801 01ec 9742     		.uleb128 0x2117
 3802 01ee 0C       		.uleb128 0xc
 3803 01ef 01       		.uleb128 0x1
 3804 01f0 13       		.uleb128 0x13
 3805 01f1 00       		.byte	0
 3806 01f2 00       		.byte	0
 3807 01f3 25       		.uleb128 0x25
 3808 01f4 34       		.uleb128 0x34
 3809 01f5 00       		.byte	0
 3810 01f6 31       		.uleb128 0x31
 3811 01f7 13       		.uleb128 0x13
 3812 01f8 02       		.uleb128 0x2
 3813 01f9 06       		.uleb128 0x6
 3814 01fa 00       		.byte	0
 3815 01fb 00       		.byte	0
 3816 01fc 26       		.uleb128 0x26
 3817 01fd 1D       		.uleb128 0x1d
 3818 01fe 01       		.byte	0x1
 3819 01ff 31       		.uleb128 0x31
 3820 0200 13       		.uleb128 0x13
 3821 0201 52       		.uleb128 0x52
 3822 0202 01       		.uleb128 0x1
 3823 0203 55       		.uleb128 0x55
 3824 0204 06       		.uleb128 0x6
 3825 0205 58       		.uleb128 0x58
 3826 0206 0B       		.uleb128 0xb
 3827 0207 59       		.uleb128 0x59
 3828 0208 0B       		.uleb128 0xb
 3829 0209 01       		.uleb128 0x1
 3830 020a 13       		.uleb128 0x13
 3831 020b 00       		.byte	0
 3832 020c 00       		.byte	0
 3833 020d 27       		.uleb128 0x27
 3834 020e 0B       		.uleb128 0xb
 3835 020f 01       		.byte	0x1
 3836 0210 55       		.uleb128 0x55
 3837 0211 06       		.uleb128 0x6
 3838 0212 00       		.byte	0
 3839 0213 00       		.byte	0
 3840 0214 28       		.uleb128 0x28
 3841 0215 01       		.uleb128 0x1
 3842 0216 01       		.byte	0x1
 3843 0217 49       		.uleb128 0x49
 3844 0218 13       		.uleb128 0x13
 3845 0219 01       		.uleb128 0x1
 3846 021a 13       		.uleb128 0x13
 3847 021b 00       		.byte	0
ARM GAS  /tmp/ccWnp1Fj.s 			page 69


 3848 021c 00       		.byte	0
 3849 021d 29       		.uleb128 0x29
 3850 021e 21       		.uleb128 0x21
 3851 021f 00       		.byte	0
 3852 0220 49       		.uleb128 0x49
 3853 0221 13       		.uleb128 0x13
 3854 0222 2F       		.uleb128 0x2f
 3855 0223 0B       		.uleb128 0xb
 3856 0224 00       		.byte	0
 3857 0225 00       		.byte	0
 3858 0226 2A       		.uleb128 0x2a
 3859 0227 34       		.uleb128 0x34
 3860 0228 00       		.byte	0
 3861 0229 03       		.uleb128 0x3
 3862 022a 0E       		.uleb128 0xe
 3863 022b 3A       		.uleb128 0x3a
 3864 022c 0B       		.uleb128 0xb
 3865 022d 3B       		.uleb128 0x3b
 3866 022e 0B       		.uleb128 0xb
 3867 022f 49       		.uleb128 0x49
 3868 0230 13       		.uleb128 0x13
 3869 0231 02       		.uleb128 0x2
 3870 0232 0A       		.uleb128 0xa
 3871 0233 00       		.byte	0
 3872 0234 00       		.byte	0
 3873 0235 2B       		.uleb128 0x2b
 3874 0236 34       		.uleb128 0x34
 3875 0237 00       		.byte	0
 3876 0238 03       		.uleb128 0x3
 3877 0239 0E       		.uleb128 0xe
 3878 023a 3A       		.uleb128 0x3a
 3879 023b 0B       		.uleb128 0xb
 3880 023c 3B       		.uleb128 0x3b
 3881 023d 0B       		.uleb128 0xb
 3882 023e 49       		.uleb128 0x49
 3883 023f 13       		.uleb128 0x13
 3884 0240 3F       		.uleb128 0x3f
 3885 0241 0C       		.uleb128 0xc
 3886 0242 3C       		.uleb128 0x3c
 3887 0243 0C       		.uleb128 0xc
 3888 0244 00       		.byte	0
 3889 0245 00       		.byte	0
 3890 0246 2C       		.uleb128 0x2c
 3891 0247 21       		.uleb128 0x21
 3892 0248 00       		.byte	0
 3893 0249 00       		.byte	0
 3894 024a 00       		.byte	0
 3895 024b 2D       		.uleb128 0x2d
 3896 024c 34       		.uleb128 0x34
 3897 024d 00       		.byte	0
 3898 024e 03       		.uleb128 0x3
 3899 024f 08       		.uleb128 0x8
 3900 0250 3A       		.uleb128 0x3a
 3901 0251 0B       		.uleb128 0xb
 3902 0252 3B       		.uleb128 0x3b
 3903 0253 0B       		.uleb128 0xb
 3904 0254 49       		.uleb128 0x49
ARM GAS  /tmp/ccWnp1Fj.s 			page 70


 3905 0255 13       		.uleb128 0x13
 3906 0256 3F       		.uleb128 0x3f
 3907 0257 0C       		.uleb128 0xc
 3908 0258 3C       		.uleb128 0x3c
 3909 0259 0C       		.uleb128 0xc
 3910 025a 00       		.byte	0
 3911 025b 00       		.byte	0
 3912 025c 2E       		.uleb128 0x2e
 3913 025d 34       		.uleb128 0x34
 3914 025e 00       		.byte	0
 3915 025f 03       		.uleb128 0x3
 3916 0260 0E       		.uleb128 0xe
 3917 0261 3A       		.uleb128 0x3a
 3918 0262 0B       		.uleb128 0xb
 3919 0263 3B       		.uleb128 0x3b
 3920 0264 0B       		.uleb128 0xb
 3921 0265 49       		.uleb128 0x49
 3922 0266 13       		.uleb128 0x13
 3923 0267 3F       		.uleb128 0x3f
 3924 0268 0C       		.uleb128 0xc
 3925 0269 02       		.uleb128 0x2
 3926 026a 0A       		.uleb128 0xa
 3927 026b 00       		.byte	0
 3928 026c 00       		.byte	0
 3929 026d 2F       		.uleb128 0x2f
 3930 026e 34       		.uleb128 0x34
 3931 026f 00       		.byte	0
 3932 0270 03       		.uleb128 0x3
 3933 0271 0E       		.uleb128 0xe
 3934 0272 3A       		.uleb128 0x3a
 3935 0273 0B       		.uleb128 0xb
 3936 0274 3B       		.uleb128 0x3b
 3937 0275 05       		.uleb128 0x5
 3938 0276 49       		.uleb128 0x49
 3939 0277 13       		.uleb128 0x13
 3940 0278 3F       		.uleb128 0x3f
 3941 0279 0C       		.uleb128 0xc
 3942 027a 02       		.uleb128 0x2
 3943 027b 0A       		.uleb128 0xa
 3944 027c 00       		.byte	0
 3945 027d 00       		.byte	0
 3946 027e 30       		.uleb128 0x30
 3947 027f 2E       		.uleb128 0x2e
 3948 0280 01       		.byte	0x1
 3949 0281 3F       		.uleb128 0x3f
 3950 0282 0C       		.uleb128 0xc
 3951 0283 03       		.uleb128 0x3
 3952 0284 0E       		.uleb128 0xe
 3953 0285 3A       		.uleb128 0x3a
 3954 0286 0B       		.uleb128 0xb
 3955 0287 3B       		.uleb128 0x3b
 3956 0288 0B       		.uleb128 0xb
 3957 0289 27       		.uleb128 0x27
 3958 028a 0C       		.uleb128 0xc
 3959 028b 49       		.uleb128 0x49
 3960 028c 13       		.uleb128 0x13
 3961 028d 3C       		.uleb128 0x3c
ARM GAS  /tmp/ccWnp1Fj.s 			page 71


 3962 028e 0C       		.uleb128 0xc
 3963 028f 01       		.uleb128 0x1
 3964 0290 13       		.uleb128 0x13
 3965 0291 00       		.byte	0
 3966 0292 00       		.byte	0
 3967 0293 31       		.uleb128 0x31
 3968 0294 2E       		.uleb128 0x2e
 3969 0295 00       		.byte	0
 3970 0296 3F       		.uleb128 0x3f
 3971 0297 0C       		.uleb128 0xc
 3972 0298 03       		.uleb128 0x3
 3973 0299 0E       		.uleb128 0xe
 3974 029a 3A       		.uleb128 0x3a
 3975 029b 0B       		.uleb128 0xb
 3976 029c 3B       		.uleb128 0x3b
 3977 029d 0B       		.uleb128 0xb
 3978 029e 27       		.uleb128 0x27
 3979 029f 0C       		.uleb128 0xc
 3980 02a0 49       		.uleb128 0x49
 3981 02a1 13       		.uleb128 0x13
 3982 02a2 3C       		.uleb128 0x3c
 3983 02a3 0C       		.uleb128 0xc
 3984 02a4 00       		.byte	0
 3985 02a5 00       		.byte	0
 3986 02a6 32       		.uleb128 0x32
 3987 02a7 2E       		.uleb128 0x2e
 3988 02a8 01       		.byte	0x1
 3989 02a9 3F       		.uleb128 0x3f
 3990 02aa 0C       		.uleb128 0xc
 3991 02ab 03       		.uleb128 0x3
 3992 02ac 0E       		.uleb128 0xe
 3993 02ad 3A       		.uleb128 0x3a
 3994 02ae 0B       		.uleb128 0xb
 3995 02af 3B       		.uleb128 0x3b
 3996 02b0 05       		.uleb128 0x5
 3997 02b1 27       		.uleb128 0x27
 3998 02b2 0C       		.uleb128 0xc
 3999 02b3 49       		.uleb128 0x49
 4000 02b4 13       		.uleb128 0x13
 4001 02b5 3C       		.uleb128 0x3c
 4002 02b6 0C       		.uleb128 0xc
 4003 02b7 01       		.uleb128 0x1
 4004 02b8 13       		.uleb128 0x13
 4005 02b9 00       		.byte	0
 4006 02ba 00       		.byte	0
 4007 02bb 33       		.uleb128 0x33
 4008 02bc 2E       		.uleb128 0x2e
 4009 02bd 00       		.byte	0
 4010 02be 3F       		.uleb128 0x3f
 4011 02bf 0C       		.uleb128 0xc
 4012 02c0 03       		.uleb128 0x3
 4013 02c1 0E       		.uleb128 0xe
 4014 02c2 3A       		.uleb128 0x3a
 4015 02c3 0B       		.uleb128 0xb
 4016 02c4 3B       		.uleb128 0x3b
 4017 02c5 0B       		.uleb128 0xb
 4018 02c6 27       		.uleb128 0x27
ARM GAS  /tmp/ccWnp1Fj.s 			page 72


 4019 02c7 0C       		.uleb128 0xc
 4020 02c8 3C       		.uleb128 0x3c
 4021 02c9 0C       		.uleb128 0xc
 4022 02ca 00       		.byte	0
 4023 02cb 00       		.byte	0
 4024 02cc 34       		.uleb128 0x34
 4025 02cd 2E       		.uleb128 0x2e
 4026 02ce 01       		.byte	0x1
 4027 02cf 3F       		.uleb128 0x3f
 4028 02d0 0C       		.uleb128 0xc
 4029 02d1 03       		.uleb128 0x3
 4030 02d2 0E       		.uleb128 0xe
 4031 02d3 3A       		.uleb128 0x3a
 4032 02d4 0B       		.uleb128 0xb
 4033 02d5 3B       		.uleb128 0x3b
 4034 02d6 0B       		.uleb128 0xb
 4035 02d7 27       		.uleb128 0x27
 4036 02d8 0C       		.uleb128 0xc
 4037 02d9 3C       		.uleb128 0x3c
 4038 02da 0C       		.uleb128 0xc
 4039 02db 01       		.uleb128 0x1
 4040 02dc 13       		.uleb128 0x13
 4041 02dd 00       		.byte	0
 4042 02de 00       		.byte	0
 4043 02df 35       		.uleb128 0x35
 4044 02e0 2E       		.uleb128 0x2e
 4045 02e1 01       		.byte	0x1
 4046 02e2 3F       		.uleb128 0x3f
 4047 02e3 0C       		.uleb128 0xc
 4048 02e4 03       		.uleb128 0x3
 4049 02e5 0E       		.uleb128 0xe
 4050 02e6 3A       		.uleb128 0x3a
 4051 02e7 0B       		.uleb128 0xb
 4052 02e8 3B       		.uleb128 0x3b
 4053 02e9 05       		.uleb128 0x5
 4054 02ea 27       		.uleb128 0x27
 4055 02eb 0C       		.uleb128 0xc
 4056 02ec 3C       		.uleb128 0x3c
 4057 02ed 0C       		.uleb128 0xc
 4058 02ee 01       		.uleb128 0x1
 4059 02ef 13       		.uleb128 0x13
 4060 02f0 00       		.byte	0
 4061 02f1 00       		.byte	0
 4062 02f2 36       		.uleb128 0x36
 4063 02f3 2E       		.uleb128 0x2e
 4064 02f4 01       		.byte	0x1
 4065 02f5 3F       		.uleb128 0x3f
 4066 02f6 0C       		.uleb128 0xc
 4067 02f7 03       		.uleb128 0x3
 4068 02f8 0E       		.uleb128 0xe
 4069 02f9 3A       		.uleb128 0x3a
 4070 02fa 0B       		.uleb128 0xb
 4071 02fb 3B       		.uleb128 0x3b
 4072 02fc 0B       		.uleb128 0xb
 4073 02fd 27       		.uleb128 0x27
 4074 02fe 0C       		.uleb128 0xc
 4075 02ff 49       		.uleb128 0x49
ARM GAS  /tmp/ccWnp1Fj.s 			page 73


 4076 0300 13       		.uleb128 0x13
 4077 0301 3C       		.uleb128 0x3c
 4078 0302 0C       		.uleb128 0xc
 4079 0303 00       		.byte	0
 4080 0304 00       		.byte	0
 4081 0305 00       		.byte	0
 4082              		.section	.debug_loc,"",%progbits
 4083              	.Ldebug_loc0:
 4084              	.LLST0:
 4085 0000 00000000 		.4byte	.LFB15
 4086 0004 04000000 		.4byte	.LCFI0
 4087 0008 0200     		.2byte	0x2
 4088 000a 7D       		.byte	0x7d
 4089 000b 00       		.sleb128 0
 4090 000c 04000000 		.4byte	.LCFI0
 4091 0010 08000000 		.4byte	.LCFI1
 4092 0014 0200     		.2byte	0x2
 4093 0016 7D       		.byte	0x7d
 4094 0017 18       		.sleb128 24
 4095 0018 08000000 		.4byte	.LCFI1
 4096 001c 54020000 		.4byte	.LFE15
 4097 0020 0300     		.2byte	0x3
 4098 0022 7D       		.byte	0x7d
 4099 0023 C800     		.sleb128 72
 4100 0025 00000000 		.4byte	0
 4101 0029 00000000 		.4byte	0
 4102              	.LLST1:
 4103 002d 14000000 		.4byte	.LVL4
 4104 0031 16000000 		.4byte	.LVL5
 4105 0035 0100     		.2byte	0x1
 4106 0037 50       		.byte	0x50
 4107 0038 16000000 		.4byte	.LVL5
 4108 003c 1C000000 		.4byte	.LVL6
 4109 0040 0300     		.2byte	0x3
 4110 0042 70       		.byte	0x70
 4111 0043 01       		.sleb128 1
 4112 0044 9F       		.byte	0x9f
 4113 0045 30000000 		.4byte	.LVL8
 4114 0049 38000000 		.4byte	.LVL9
 4115 004d 0100     		.2byte	0x1
 4116 004f 50       		.byte	0x50
 4117 0050 38000000 		.4byte	.LVL9
 4118 0054 3B000000 		.4byte	.LVL10-1
 4119 0058 0300     		.2byte	0x3
 4120 005a 72       		.byte	0x72
 4121 005b 04       		.sleb128 4
 4122 005c 9F       		.byte	0x9f
 4123 005d 48000000 		.4byte	.LVL11
 4124 0061 52000000 		.4byte	.LVL12
 4125 0065 0100     		.2byte	0x1
 4126 0067 50       		.byte	0x50
 4127 0068 90000000 		.4byte	.LVL19
 4128 006c 96000000 		.4byte	.LVL20
 4129 0070 0100     		.2byte	0x1
 4130 0072 50       		.byte	0x50
 4131 0073 96000000 		.4byte	.LVL20
 4132 0077 B8000000 		.4byte	.LVL23
ARM GAS  /tmp/ccWnp1Fj.s 			page 74


 4133 007b 0100     		.2byte	0x1
 4134 007d 59       		.byte	0x59
 4135 007e B8000000 		.4byte	.LVL23
 4136 0082 C2000000 		.4byte	.LVL24
 4137 0086 0100     		.2byte	0x1
 4138 0088 50       		.byte	0x50
 4139 0089 DC000000 		.4byte	.LVL28
 4140 008d EA000000 		.4byte	.LVL29
 4141 0091 0100     		.2byte	0x1
 4142 0093 50       		.byte	0x50
 4143 0094 EA000000 		.4byte	.LVL29
 4144 0098 ED000000 		.4byte	.LVL30-1
 4145 009c 0300     		.2byte	0x3
 4146 009e 7C       		.byte	0x7c
 4147 009f 05       		.sleb128 5
 4148 00a0 9F       		.byte	0x9f
 4149 00a1 FA000000 		.4byte	.LVL31
 4150 00a5 04010000 		.4byte	.LVL32
 4151 00a9 0100     		.2byte	0x1
 4152 00ab 50       		.byte	0x50
 4153 00ac 36010000 		.4byte	.LVL39
 4154 00b0 3C010000 		.4byte	.LVL40
 4155 00b4 0100     		.2byte	0x1
 4156 00b6 50       		.byte	0x50
 4157 00b7 3C010000 		.4byte	.LVL40
 4158 00bb 66010000 		.4byte	.LVL43
 4159 00bf 0100     		.2byte	0x1
 4160 00c1 59       		.byte	0x59
 4161 00c2 66010000 		.4byte	.LVL43
 4162 00c6 70010000 		.4byte	.LVL44
 4163 00ca 0100     		.2byte	0x1
 4164 00cc 50       		.byte	0x50
 4165 00cd DE010000 		.4byte	.LVL56
 4166 00d1 E8010000 		.4byte	.LVL57
 4167 00d5 0100     		.2byte	0x1
 4168 00d7 50       		.byte	0x50
 4169 00d8 00000000 		.4byte	0
 4170 00dc 00000000 		.4byte	0
 4171              	.LLST2:
 4172 00e0 7C000000 		.4byte	.LVL15
 4173 00e4 8E000000 		.4byte	.LVL18
 4174 00e8 0300     		.2byte	0x3
 4175 00ea 74       		.byte	0x74
 4176 00eb 32       		.sleb128 50
 4177 00ec 9F       		.byte	0x9f
 4178 00ed 8E000000 		.4byte	.LVL18
 4179 00f1 99000000 		.4byte	.LVL21-1
 4180 00f5 0100     		.2byte	0x1
 4181 00f7 51       		.byte	0x51
 4182 00f8 99000000 		.4byte	.LVL21-1
 4183 00fc 34010000 		.4byte	.LVL38
 4184 0100 0300     		.2byte	0x3
 4185 0102 74       		.byte	0x74
 4186 0103 32       		.sleb128 50
 4187 0104 9F       		.byte	0x9f
 4188 0105 34010000 		.4byte	.LVL38
 4189 0109 3F010000 		.4byte	.LVL41-1
ARM GAS  /tmp/ccWnp1Fj.s 			page 75


 4190 010d 0100     		.2byte	0x1
 4191 010f 51       		.byte	0x51
 4192 0110 3F010000 		.4byte	.LVL41-1
 4193 0114 80010000 		.4byte	.LVL46
 4194 0118 0300     		.2byte	0x3
 4195 011a 74       		.byte	0x74
 4196 011b 32       		.sleb128 50
 4197 011c 9F       		.byte	0x9f
 4198 011d B6010000 		.4byte	.LVL51
 4199 0121 C8010000 		.4byte	.LVL54
 4200 0125 0300     		.2byte	0x3
 4201 0127 75       		.byte	0x75
 4202 0128 32       		.sleb128 50
 4203 0129 9F       		.byte	0x9f
 4204 012a C8010000 		.4byte	.LVL54
 4205 012e CF010000 		.4byte	.LVL55-1
 4206 0132 0100     		.2byte	0x1
 4207 0134 51       		.byte	0x51
 4208 0135 CF010000 		.4byte	.LVL55-1
 4209 0139 54020000 		.4byte	.LFE15
 4210 013d 0300     		.2byte	0x3
 4211 013f 75       		.byte	0x75
 4212 0140 32       		.sleb128 50
 4213 0141 9F       		.byte	0x9f
 4214 0142 00000000 		.4byte	0
 4215 0146 00000000 		.4byte	0
 4216              	.LLST3:
 4217 014a 00000000 		.4byte	.LFB14
 4218 014e 02000000 		.4byte	.LCFI2
 4219 0152 0200     		.2byte	0x2
 4220 0154 7D       		.byte	0x7d
 4221 0155 00       		.sleb128 0
 4222 0156 02000000 		.4byte	.LCFI2
 4223 015a 24000000 		.4byte	.LFE14
 4224 015e 0200     		.2byte	0x2
 4225 0160 7D       		.byte	0x7d
 4226 0161 08       		.sleb128 8
 4227 0162 00000000 		.4byte	0
 4228 0166 00000000 		.4byte	0
 4229              	.LLST4:
 4230 016a 00000000 		.4byte	.LVL64
 4231 016e 06000000 		.4byte	.LVL65
 4232 0172 0100     		.2byte	0x1
 4233 0174 50       		.byte	0x50
 4234 0175 06000000 		.4byte	.LVL65
 4235 0179 24000000 		.4byte	.LFE14
 4236 017d 0400     		.2byte	0x4
 4237 017f F3       		.byte	0xf3
 4238 0180 01       		.uleb128 0x1
 4239 0181 50       		.byte	0x50
 4240 0182 9F       		.byte	0x9f
 4241 0183 00000000 		.4byte	0
 4242 0187 00000000 		.4byte	0
 4243              	.LLST5:
 4244 018b 00000000 		.4byte	.LFB13
 4245 018f 02000000 		.4byte	.LCFI3
 4246 0193 0200     		.2byte	0x2
ARM GAS  /tmp/ccWnp1Fj.s 			page 76


 4247 0195 7D       		.byte	0x7d
 4248 0196 00       		.sleb128 0
 4249 0197 02000000 		.4byte	.LCFI3
 4250 019b 16000000 		.4byte	.LFE13
 4251 019f 0200     		.2byte	0x2
 4252 01a1 7D       		.byte	0x7d
 4253 01a2 08       		.sleb128 8
 4254 01a3 00000000 		.4byte	0
 4255 01a7 00000000 		.4byte	0
 4256              	.LLST6:
 4257 01ab 00000000 		.4byte	.LVL69
 4258 01af 06000000 		.4byte	.LVL70
 4259 01b3 0100     		.2byte	0x1
 4260 01b5 50       		.byte	0x50
 4261 01b6 06000000 		.4byte	.LVL70
 4262 01ba 16000000 		.4byte	.LFE13
 4263 01be 0100     		.2byte	0x1
 4264 01c0 54       		.byte	0x54
 4265 01c1 00000000 		.4byte	0
 4266 01c5 00000000 		.4byte	0
 4267              	.LLST7:
 4268 01c9 00000000 		.4byte	.LFB11
 4269 01cd 02000000 		.4byte	.LCFI4
 4270 01d1 0200     		.2byte	0x2
 4271 01d3 7D       		.byte	0x7d
 4272 01d4 00       		.sleb128 0
 4273 01d5 02000000 		.4byte	.LCFI4
 4274 01d9 06000000 		.4byte	.LCFI5
 4275 01dd 0200     		.2byte	0x2
 4276 01df 7D       		.byte	0x7d
 4277 01e0 08       		.sleb128 8
 4278 01e1 06000000 		.4byte	.LCFI5
 4279 01e5 88000000 		.4byte	.LFE11
 4280 01e9 0200     		.2byte	0x2
 4281 01eb 7D       		.byte	0x7d
 4282 01ec 28       		.sleb128 40
 4283 01ed 00000000 		.4byte	0
 4284 01f1 00000000 		.4byte	0
 4285              	.LLST8:
 4286 01f5 00000000 		.4byte	.LVL82
 4287 01f9 02000000 		.4byte	.LVL83
 4288 01fd 0100     		.2byte	0x1
 4289 01ff 50       		.byte	0x50
 4290 0200 02000000 		.4byte	.LVL83
 4291 0204 06000000 		.4byte	.LFE10
 4292 0208 0400     		.2byte	0x4
 4293 020a F3       		.byte	0xf3
 4294 020b 01       		.uleb128 0x1
 4295 020c 50       		.byte	0x50
 4296 020d 9F       		.byte	0x9f
 4297 020e 00000000 		.4byte	0
 4298 0212 00000000 		.4byte	0
 4299              	.LLST9:
 4300 0216 00000000 		.4byte	.LVL85
 4301 021a 02000000 		.4byte	.LVL86
 4302 021e 0100     		.2byte	0x1
 4303 0220 50       		.byte	0x50
ARM GAS  /tmp/ccWnp1Fj.s 			page 77


 4304 0221 02000000 		.4byte	.LVL86
 4305 0225 06000000 		.4byte	.LFE9
 4306 0229 0400     		.2byte	0x4
 4307 022b F3       		.byte	0xf3
 4308 022c 01       		.uleb128 0x1
 4309 022d 50       		.byte	0x50
 4310 022e 9F       		.byte	0x9f
 4311 022f 00000000 		.4byte	0
 4312 0233 00000000 		.4byte	0
 4313              	.LLST10:
 4314 0237 00000000 		.4byte	.LVL88
 4315 023b 02000000 		.4byte	.LVL89
 4316 023f 0100     		.2byte	0x1
 4317 0241 50       		.byte	0x50
 4318 0242 02000000 		.4byte	.LVL89
 4319 0246 06000000 		.4byte	.LFE8
 4320 024a 0400     		.2byte	0x4
 4321 024c F3       		.byte	0xf3
 4322 024d 01       		.uleb128 0x1
 4323 024e 50       		.byte	0x50
 4324 024f 9F       		.byte	0x9f
 4325 0250 00000000 		.4byte	0
 4326 0254 00000000 		.4byte	0
 4327              	.LLST11:
 4328 0258 00000000 		.4byte	.LFB17
 4329 025c 02000000 		.4byte	.LCFI6
 4330 0260 0200     		.2byte	0x2
 4331 0262 7D       		.byte	0x7d
 4332 0263 00       		.sleb128 0
 4333 0264 02000000 		.4byte	.LCFI6
 4334 0268 AA000000 		.4byte	.LFE17
 4335 026c 0200     		.2byte	0x2
 4336 026e 7D       		.byte	0x7d
 4337 026f 08       		.sleb128 8
 4338 0270 00000000 		.4byte	0
 4339 0274 00000000 		.4byte	0
 4340              	.LLST12:
 4341 0278 0C000000 		.4byte	.LVL91
 4342 027c 16000000 		.4byte	.LVL92
 4343 0280 0100     		.2byte	0x1
 4344 0282 50       		.byte	0x50
 4345 0283 28000000 		.4byte	.LVL94
 4346 0287 32000000 		.4byte	.LVL95
 4347 028b 0100     		.2byte	0x1
 4348 028d 50       		.byte	0x50
 4349 028e 44000000 		.4byte	.LVL97
 4350 0292 4E000000 		.4byte	.LVL98
 4351 0296 0100     		.2byte	0x1
 4352 0298 50       		.byte	0x50
 4353 0299 00000000 		.4byte	0
 4354 029d 00000000 		.4byte	0
 4355              	.LLST13:
 4356 02a1 60000000 		.4byte	.LVL100
 4357 02a5 6A000000 		.4byte	.LVL101
 4358 02a9 0100     		.2byte	0x1
 4359 02ab 50       		.byte	0x50
 4360 02ac 7C000000 		.4byte	.LVL103
ARM GAS  /tmp/ccWnp1Fj.s 			page 78


 4361 02b0 86000000 		.4byte	.LVL104
 4362 02b4 0100     		.2byte	0x1
 4363 02b6 50       		.byte	0x50
 4364 02b7 98000000 		.4byte	.LVL106
 4365 02bb A2000000 		.4byte	.LVL107
 4366 02bf 0100     		.2byte	0x1
 4367 02c1 50       		.byte	0x50
 4368 02c2 00000000 		.4byte	0
 4369 02c6 00000000 		.4byte	0
 4370              		.section	.debug_aranges,"",%progbits
 4371 0000 6C000000 		.4byte	0x6c
 4372 0004 0200     		.2byte	0x2
 4373 0006 00000000 		.4byte	.Ldebug_info0
 4374 000a 04       		.byte	0x4
 4375 000b 00       		.byte	0
 4376 000c 0000     		.2byte	0
 4377 000e 0000     		.2byte	0
 4378 0010 00000000 		.4byte	.LFB16
 4379 0014 08000000 		.4byte	.LFE16-.LFB16
 4380 0018 00000000 		.4byte	.LFB12
 4381 001c 08000000 		.4byte	.LFE12-.LFB12
 4382 0020 00000000 		.4byte	.LFB7
 4383 0024 08000000 		.4byte	.LFE7-.LFB7
 4384 0028 00000000 		.4byte	.LFB15
 4385 002c 54020000 		.4byte	.LFE15-.LFB15
 4386 0030 00000000 		.4byte	.LFB14
 4387 0034 24000000 		.4byte	.LFE14-.LFB14
 4388 0038 00000000 		.4byte	.LFB13
 4389 003c 16000000 		.4byte	.LFE13-.LFB13
 4390 0040 00000000 		.4byte	.LFB11
 4391 0044 88000000 		.4byte	.LFE11-.LFB11
 4392 0048 00000000 		.4byte	.LFB10
 4393 004c 06000000 		.4byte	.LFE10-.LFB10
 4394 0050 00000000 		.4byte	.LFB9
 4395 0054 06000000 		.4byte	.LFE9-.LFB9
 4396 0058 00000000 		.4byte	.LFB8
 4397 005c 06000000 		.4byte	.LFE8-.LFB8
 4398 0060 00000000 		.4byte	.LFB17
 4399 0064 AA000000 		.4byte	.LFE17-.LFB17
 4400 0068 00000000 		.4byte	0
 4401 006c 00000000 		.4byte	0
 4402              		.section	.debug_ranges,"",%progbits
 4403              	.Ldebug_ranges0:
 4404 0000 56000000 		.4byte	.LBB4
 4405 0004 A2000000 		.4byte	.LBE4
 4406 0008 A6000000 		.4byte	.LBB7
 4407 000c AA000000 		.4byte	.LBE7
 4408 0010 00000000 		.4byte	0
 4409 0014 00000000 		.4byte	0
 4410 0018 56000000 		.4byte	.LBB5
 4411 001c A2000000 		.4byte	.LBE5
 4412 0020 A6000000 		.4byte	.LBB6
 4413 0024 AA000000 		.4byte	.LBE6
 4414 0028 00000000 		.4byte	0
 4415 002c 00000000 		.4byte	0
 4416 0030 00000000 		.4byte	.LFB16
 4417 0034 08000000 		.4byte	.LFE16
ARM GAS  /tmp/ccWnp1Fj.s 			page 79


 4418 0038 00000000 		.4byte	.LFB12
 4419 003c 08000000 		.4byte	.LFE12
 4420 0040 00000000 		.4byte	.LFB7
 4421 0044 08000000 		.4byte	.LFE7
 4422 0048 00000000 		.4byte	.LFB15
 4423 004c 54020000 		.4byte	.LFE15
 4424 0050 00000000 		.4byte	.LFB14
 4425 0054 24000000 		.4byte	.LFE14
 4426 0058 00000000 		.4byte	.LFB13
 4427 005c 16000000 		.4byte	.LFE13
 4428 0060 00000000 		.4byte	.LFB11
 4429 0064 88000000 		.4byte	.LFE11
 4430 0068 00000000 		.4byte	.LFB10
 4431 006c 06000000 		.4byte	.LFE10
 4432 0070 00000000 		.4byte	.LFB9
 4433 0074 06000000 		.4byte	.LFE9
 4434 0078 00000000 		.4byte	.LFB8
 4435 007c 06000000 		.4byte	.LFE8
 4436 0080 00000000 		.4byte	.LFB17
 4437 0084 AA000000 		.4byte	.LFE17
 4438 0088 00000000 		.4byte	0
 4439 008c 00000000 		.4byte	0
 4440              		.section	.debug_line,"",%progbits
 4441              	.Ldebug_line0:
 4442 0000 67030000 		.section	.debug_str,"MS",%progbits,1
 4442      02003502 
 4442      00000201 
 4442      FB0E0D00 
 4442      01010101 
 4443              	.LASF84:
 4444 0000 7466756E 		.ascii	"tfunc_t\000"
 4444      635F7400 
 4445              	.LASF91:
 4446 0008 65767432 		.ascii	"evt2_setup\000"
 4446      5F736574 
 4446      757000
 4447              	.LASF40:
 4448 0013 705F6D73 		.ascii	"p_msg\000"
 4448      6700
 4449              	.LASF2:
 4450 0019 73697A65 		.ascii	"size_t\000"
 4450      5F7400
 4451              	.LASF79:
 4452 0020 7264796D 		.ascii	"rdymsg\000"
 4452      736700
 4453              	.LASF99:
 4454 0027 76746C69 		.ascii	"vtlist\000"
 4454      737400
 4455              	.LASF118:
 4456 002e 63684576 		.ascii	"chEvtSignal\000"
 4456      74536967 
 4456      6E616C00 
 4457              	.LASF12:
 4458 003a 6C6F6E67 		.ascii	"long long unsigned int\000"
 4458      206C6F6E 
 4458      6720756E 
 4458      7369676E 
ARM GAS  /tmp/ccWnp1Fj.s 			page 80


 4458      65642069 
 4459              	.LASF107:
 4460 0051 63684576 		.ascii	"chEvtAddEvents\000"
 4460      74416464 
 4460      4576656E 
 4460      747300
 4461              	.LASF80:
 4462 0060 65786974 		.ascii	"exitcode\000"
 4462      636F6465 
 4462      00
 4463              	.LASF123:
 4464 0069 63684576 		.ascii	"chEvtWaitAnyTimeout\000"
 4464      74576169 
 4464      74416E79 
 4464      54696D65 
 4464      6F757400 
 4465              	.LASF126:
 4466 007d 2F686F6D 		.ascii	"/home/dpeter/devel/sources/ChibiOS-RT/test/testevt."
 4466      652F6470 
 4466      65746572 
 4466      2F646576 
 4466      656C2F73 
 4467 00b0 6300     		.ascii	"c\000"
 4468              	.LASF28:
 4469 00b2 705F7072 		.ascii	"p_prio\000"
 4469      696F00
 4470              	.LASF93:
 4471 00b9 65767432 		.ascii	"evt2_execute\000"
 4471      5F657865 
 4471      63757465 
 4471      00
 4472              	.LASF11:
 4473 00c6 6C6F6E67 		.ascii	"long long int\000"
 4473      206C6F6E 
 4473      6720696E 
 4473      7400
 4474              	.LASF1:
 4475 00d4 7369676E 		.ascii	"signed char\000"
 4475      65642063 
 4475      68617200 
 4476              	.LASF124:
 4477 00e0 63684576 		.ascii	"chEvtWaitAllTimeout\000"
 4477      74576169 
 4477      74416C6C 
 4477      54696D65 
 4477      6F757400 
 4478              	.LASF44:
 4479 00f4 705F6D70 		.ascii	"p_mpool\000"
 4479      6F6F6C00 
 4480              	.LASF13:
 4481 00fc 626F6F6C 		.ascii	"bool_t\000"
 4481      5F7400
 4482              	.LASF68:
 4483 0103 6D5F7175 		.ascii	"m_queue\000"
 4483      65756500 
 4484              	.LASF121:
 4485 010b 74657374 		.ascii	"test_emit_token\000"
ARM GAS  /tmp/ccWnp1Fj.s 			page 81


 4485      5F656D69 
 4485      745F746F 
 4485      6B656E00 
 4486              	.LASF18:
 4487 011b 74736C69 		.ascii	"tslices_t\000"
 4487      6365735F 
 4487      7400
 4488              	.LASF8:
 4489 0125 6C6F6E67 		.ascii	"long int\000"
 4489      20696E74 
 4489      00
 4490              	.LASF94:
 4491 012e 74617267 		.ascii	"target_time\000"
 4491      65745F74 
 4491      696D6500 
 4492              	.LASF16:
 4493 013a 74737461 		.ascii	"tstate_t\000"
 4493      74655F74 
 4493      00
 4494              	.LASF111:
 4495 0143 5F746573 		.ascii	"_test_assert_time_window\000"
 4495      745F6173 
 4495      73657274 
 4495      5F74696D 
 4495      655F7769 
 4496              	.LASF103:
 4497 015c 74657374 		.ascii	"testevt2\000"
 4497      65767432 
 4497      00
 4498              	.LASF112:
 4499 0165 63684576 		.ascii	"chEvtWaitAny\000"
 4499      74576169 
 4499      74416E79 
 4499      00
 4500              	.LASF104:
 4501 0172 74657374 		.ascii	"testevt3\000"
 4501      65767433 
 4501      00
 4502              	.LASF30:
 4503 017b 705F6E65 		.ascii	"p_newer\000"
 4503      77657200 
 4504              	.LASF63:
 4505 0183 725F6E65 		.ascii	"r_newer\000"
 4505      77657200 
 4506              	.LASF47:
 4507 018b 72656761 		.ascii	"regarm_t\000"
 4507      726D5F74 
 4507      00
 4508              	.LASF54:
 4509 0194 76745F70 		.ascii	"vt_prev\000"
 4509      72657600 
 4510              	.LASF116:
 4511 019c 63684576 		.ascii	"chEvtBroadcastFlags\000"
 4511      7442726F 
 4511      61646361 
 4511      7374466C 
 4511      61677300 
ARM GAS  /tmp/ccWnp1Fj.s 			page 82


 4512              	.LASF21:
 4513 01b0 6576656E 		.ascii	"eventid_t\000"
 4513      7469645F 
 4513      7400
 4514              	.LASF76:
 4515 01ba 4576656E 		.ascii	"EventSource\000"
 4515      74536F75 
 4515      72636500 
 4516              	.LASF78:
 4517 01c6 65766861 		.ascii	"evhandler_t\000"
 4517      6E646C65 
 4517      725F7400 
 4518              	.LASF0:
 4519 01d2 756E7369 		.ascii	"unsigned int\000"
 4519      676E6564 
 4519      20696E74 
 4519      00
 4520              	.LASF53:
 4521 01df 76745F6E 		.ascii	"vt_next\000"
 4521      65787400 
 4522              	.LASF10:
 4523 01e7 6C6F6E67 		.ascii	"long unsigned int\000"
 4523      20756E73 
 4523      69676E65 
 4523      6420696E 
 4523      7400
 4524              	.LASF106:
 4525 01f9 63684576 		.ascii	"chEvtGetAndClearEvents\000"
 4525      74476574 
 4525      416E6443 
 4525      6C656172 
 4525      4576656E 
 4526              	.LASF88:
 4527 0210 74656172 		.ascii	"teardown\000"
 4527      646F776E 
 4527      00
 4528              	.LASF105:
 4529 0219 70617474 		.ascii	"patternevt\000"
 4529      65726E65 
 4529      767400
 4530              	.LASF86:
 4531 0224 6E616D65 		.ascii	"name\000"
 4531      00
 4532              	.LASF49:
 4533 0229 636F6E74 		.ascii	"context\000"
 4533      65787400 
 4534              	.LASF6:
 4535 0231 73686F72 		.ascii	"short unsigned int\000"
 4535      7420756E 
 4535      7369676E 
 4535      65642069 
 4535      6E7400
 4536              	.LASF114:
 4537 0244 63684576 		.ascii	"chEvtRegisterMask\000"
 4537      74526567 
 4537      69737465 
 4537      724D6173 
ARM GAS  /tmp/ccWnp1Fj.s 			page 83


 4537      6B00
 4538              	.LASF20:
 4539 0256 6D73675F 		.ascii	"msg_t\000"
 4539      7400
 4540              	.LASF72:
 4541 025c 656C5F6E 		.ascii	"el_next\000"
 4541      65787400 
 4542              	.LASF115:
 4543 0264 63684576 		.ascii	"chEvtUnregister\000"
 4543      74556E72 
 4543      65676973 
 4543      74657200 
 4544              	.LASF15:
 4545 0274 746D6F64 		.ascii	"tmode_t\000"
 4545      655F7400 
 4546              	.LASF46:
 4547 027c 54687265 		.ascii	"ThreadsList\000"
 4547      6164734C 
 4547      69737400 
 4548              	.LASF22:
 4549 0288 6576656E 		.ascii	"eventmask_t\000"
 4549      746D6173 
 4549      6B5F7400 
 4550              	.LASF67:
 4551 0294 4D757465 		.ascii	"Mutex\000"
 4551      7800
 4552              	.LASF110:
 4553 029a 63685468 		.ascii	"chThdCreateStatic\000"
 4553      64437265 
 4553      61746553 
 4553      74617469 
 4553      6300
 4554              	.LASF55:
 4555 02ac 76745F74 		.ascii	"vt_time\000"
 4555      696D6500 
 4556              	.LASF92:
 4557 02b4 65767431 		.ascii	"evt1_setup\000"
 4557      5F736574 
 4557      757000
 4558              	.LASF50:
 4559 02bf 73697A65 		.ascii	"sizetype\000"
 4559      74797065 
 4559      00
 4560              	.LASF56:
 4561 02c8 76745F66 		.ascii	"vt_func\000"
 4561      756E6300 
 4562              	.LASF119:
 4563 02d0 63684576 		.ascii	"chEvtDispatch\000"
 4563      74446973 
 4563      70617463 
 4563      6800
 4564              	.LASF90:
 4565 02de 65767433 		.ascii	"evt3_setup\000"
 4565      5F736574 
 4565      757000
 4566              	.LASF129:
 4567 02e9 74657374 		.ascii	"test_wait_threads\000"
ARM GAS  /tmp/ccWnp1Fj.s 			page 84


 4567      5F776169 
 4567      745F7468 
 4567      72656164 
 4567      7300
 4568              	.LASF31:
 4569 02fb 705F6F6C 		.ascii	"p_older\000"
 4569      64657200 
 4570              	.LASF96:
 4571 0303 74687265 		.ascii	"thread1\000"
 4571      61643100 
 4572              	.LASF95:
 4573 030b 74687265 		.ascii	"thread2\000"
 4573      61643200 
 4574              	.LASF62:
 4575 0313 725F6374 		.ascii	"r_ctx\000"
 4575      7800
 4576              	.LASF45:
 4577 0319 54687265 		.ascii	"ThreadsQueue\000"
 4577      61647351 
 4577      75657565 
 4577      00
 4578              	.LASF87:
 4579 0326 73657475 		.ascii	"setup\000"
 4579      7000
 4580              	.LASF120:
 4581 032c 5F746573 		.ascii	"_test_assert_sequence\000"
 4581      745F6173 
 4581      73657274 
 4581      5F736571 
 4581      75656E63 
 4582              	.LASF113:
 4583 0342 63684576 		.ascii	"chEvtWaitAll\000"
 4583      74576169 
 4583      74416C6C 
 4583      00
 4584              	.LASF125:
 4585 034f 474E5520 		.ascii	"GNU C 4.7.3\000"
 4585      4320342E 
 4585      372E3300 
 4586              	.LASF64:
 4587 035b 725F6F6C 		.ascii	"r_older\000"
 4587      64657200 
 4588              	.LASF74:
 4589 0363 656C5F6D 		.ascii	"el_mask\000"
 4589      61736B00 
 4590              	.LASF17:
 4591 036b 74726566 		.ascii	"trefs_t\000"
 4591      735F7400 
 4592              	.LASF27:
 4593 0373 705F7072 		.ascii	"p_prev\000"
 4593      657600
 4594              	.LASF89:
 4595 037a 65786563 		.ascii	"execute\000"
 4595      75746500 
 4596              	.LASF19:
 4597 0382 74707269 		.ascii	"tprio_t\000"
 4597      6F5F7400 
ARM GAS  /tmp/ccWnp1Fj.s 			page 85


 4598              	.LASF14:
 4599 038a 5F426F6F 		.ascii	"_Bool\000"
 4599      6C00
 4600              	.LASF7:
 4601 0390 696E7433 		.ascii	"int32_t\000"
 4601      325F7400 
 4602              	.LASF4:
 4603 0398 756E7369 		.ascii	"unsigned char\000"
 4603      676E6564 
 4603      20636861 
 4603      7200
 4604              	.LASF108:
 4605 03a6 63684576 		.ascii	"chEvtWaitOne\000"
 4605      74576169 
 4605      744F6E65 
 4605      00
 4606              	.LASF73:
 4607 03b3 656C5F6C 		.ascii	"el_listener\000"
 4607      69737465 
 4607      6E657200 
 4608              	.LASF127:
 4609 03bf 65767433 		.ascii	"evt3_execute\000"
 4609      5F657865 
 4609      63757465 
 4609      00
 4610              	.LASF75:
 4611 03cc 656C5F66 		.ascii	"el_flags\000"
 4611      6C616773 
 4611      00
 4612              	.LASF42:
 4613 03d5 705F6D74 		.ascii	"p_mtxlist\000"
 4613      786C6973 
 4613      7400
 4614              	.LASF5:
 4615 03df 73686F72 		.ascii	"short int\000"
 4615      7420696E 
 4615      7400
 4616              	.LASF33:
 4617 03e9 705F7374 		.ascii	"p_state\000"
 4617      61746500 
 4618              	.LASF36:
 4619 03f1 705F7072 		.ascii	"p_preempt\000"
 4619      65656D70 
 4619      7400
 4620              	.LASF101:
 4621 03fb 74687265 		.ascii	"threads\000"
 4621      61647300 
 4622              	.LASF61:
 4623 0403 725F7072 		.ascii	"r_prio\000"
 4623      696F00
 4624              	.LASF82:
 4625 040a 65776D61 		.ascii	"ewmask\000"
 4625      736B00
 4626              	.LASF26:
 4627 0411 705F6E65 		.ascii	"p_next\000"
 4627      787400
 4628              	.LASF34:
ARM GAS  /tmp/ccWnp1Fj.s 			page 86


 4629 0418 705F666C 		.ascii	"p_flags\000"
 4629      61677300 
 4630              	.LASF25:
 4631 0420 54687265 		.ascii	"Thread\000"
 4631      616400
 4632              	.LASF85:
 4633 0427 74657374 		.ascii	"testcase\000"
 4633      63617365 
 4633      00
 4634              	.LASF41:
 4635 0430 705F6570 		.ascii	"p_epending\000"
 4635      656E6469 
 4635      6E6700
 4636              	.LASF102:
 4637 043b 74657374 		.ascii	"testevt1\000"
 4637      65767431 
 4637      00
 4638              	.LASF98:
 4639 0444 6576686E 		.ascii	"evhndl\000"
 4639      646C00
 4640              	.LASF9:
 4641 044b 75696E74 		.ascii	"uint32_t\000"
 4641      33325F74 
 4641      00
 4642              	.LASF60:
 4643 0454 725F7175 		.ascii	"r_queue\000"
 4643      65756500 
 4644              	.LASF52:
 4645 045c 56697274 		.ascii	"VirtualTimer\000"
 4645      75616C54 
 4645      696D6572 
 4645      00
 4646              	.LASF65:
 4647 0469 725F6375 		.ascii	"r_current\000"
 4647      7272656E 
 4647      7400
 4648              	.LASF83:
 4649 0473 63686172 		.ascii	"char\000"
 4649      00
 4650              	.LASF70:
 4651 0478 6D5F6E65 		.ascii	"m_next\000"
 4651      787400
 4652              	.LASF24:
 4653 047f 73797374 		.ascii	"systime_t\000"
 4653      696D655F 
 4653      7400
 4654              	.LASF43:
 4655 0489 705F7265 		.ascii	"p_realprio\000"
 4655      616C7072 
 4655      696F00
 4656              	.LASF51:
 4657 0494 76746675 		.ascii	"vtfunc_t\000"
 4657      6E635F74 
 4657      00
 4658              	.LASF37:
 4659 049d 705F7469 		.ascii	"p_time\000"
 4659      6D6500
ARM GAS  /tmp/ccWnp1Fj.s 			page 87


 4660              	.LASF48:
 4661 04a4 696E7463 		.ascii	"intctx\000"
 4661      747800
 4662              	.LASF39:
 4663 04ab 705F6D73 		.ascii	"p_msgqueue\000"
 4663      67717565 
 4663      756500
 4664              	.LASF57:
 4665 04b6 76745F70 		.ascii	"vt_par\000"
 4665      617200
 4666              	.LASF23:
 4667 04bd 666C6167 		.ascii	"flagsmask_t\000"
 4667      736D6173 
 4667      6B5F7400 
 4668              	.LASF117:
 4669 04c9 63685468 		.ascii	"chThdSleep\000"
 4669      64536C65 
 4669      657000
 4670              	.LASF35:
 4671 04d4 705F7265 		.ascii	"p_refs\000"
 4671      667300
 4672              	.LASF66:
 4673 04db 52656164 		.ascii	"ReadyList\000"
 4673      794C6973 
 4673      7400
 4674              	.LASF100:
 4675 04e5 726C6973 		.ascii	"rlist\000"
 4675      7400
 4676              	.LASF3:
 4677 04eb 75696E74 		.ascii	"uint8_t\000"
 4677      385F7400 
 4678              	.LASF71:
 4679 04f3 4576656E 		.ascii	"EventListener\000"
 4679      744C6973 
 4679      74656E65 
 4679      7200
 4680              	.LASF122:
 4681 0501 63684576 		.ascii	"chEvtWaitOneTimeout\000"
 4681      74576169 
 4681      744F6E65 
 4681      54696D65 
 4681      6F757400 
 4682              	.LASF81:
 4683 0515 77746F62 		.ascii	"wtobjp\000"
 4683      6A7000
 4684              	.LASF32:
 4685 051c 705F6E61 		.ascii	"p_name\000"
 4685      6D6500
 4686              	.LASF109:
 4687 0523 5F746573 		.ascii	"_test_assert\000"
 4687      745F6173 
 4687      73657274 
 4687      00
 4688              	.LASF58:
 4689 0530 76745F73 		.ascii	"vt_systime\000"
 4689      79737469 
 4689      6D6500
ARM GAS  /tmp/ccWnp1Fj.s 			page 88


 4690              	.LASF77:
 4691 053b 65735F6E 		.ascii	"es_next\000"
 4691      65787400 
 4692              	.LASF59:
 4693 0543 56544C69 		.ascii	"VTList\000"
 4693      737400
 4694              	.LASF69:
 4695 054a 6D5F6F77 		.ascii	"m_owner\000"
 4695      6E657200 
 4696              	.LASF128:
 4697 0552 74657374 		.ascii	"test_wait_tick\000"
 4697      5F776169 
 4697      745F7469 
 4697      636B00
 4698              	.LASF97:
 4699 0561 65767431 		.ascii	"evt1_execute\000"
 4699      5F657865 
 4699      63757465 
 4699      00
 4700              	.LASF29:
 4701 056e 705F6374 		.ascii	"p_ctx\000"
 4701      7800
 4702              	.LASF38:
 4703 0574 705F7761 		.ascii	"p_waiting\000"
 4703      6974696E 
 4703      6700
 4704              		.ident	"GCC: (Sourcery CodeBench Lite 2013.05-23) 4.7.3"
ARM GAS  /tmp/ccWnp1Fj.s 			page 89


DEFINED SYMBOLS
                            *ABS*:00000000 testevt.c
     /tmp/ccWnp1Fj.s:19     .text.evt3_setup:00000000 $t
     /tmp/ccWnp1Fj.s:24     .text.evt3_setup:00000000 evt3_setup
     /tmp/ccWnp1Fj.s:42     .text.evt2_setup:00000000 $t
     /tmp/ccWnp1Fj.s:47     .text.evt2_setup:00000000 evt2_setup
     /tmp/ccWnp1Fj.s:64     .text.evt1_setup:00000000 $t
     /tmp/ccWnp1Fj.s:69     .text.evt1_setup:00000000 evt1_setup
     /tmp/ccWnp1Fj.s:86     .text.evt2_execute:00000000 $t
     /tmp/ccWnp1Fj.s:91     .text.evt2_execute:00000000 evt2_execute
     /tmp/ccWnp1Fj.s:430    .text.evt2_execute:00000230 $d
     /tmp/ccWnp1Fj.s:492    .text.thread1:00000000 thread1
     /tmp/ccWnp1Fj.s:448    .text.thread2:00000000 thread2
     /tmp/ccWnp1Fj.s:443    .text.thread2:00000000 $t
     /tmp/ccWnp1Fj.s:481    .text.thread2:0000001c $d
     /tmp/ccWnp1Fj.s:487    .text.thread1:00000000 $t
     /tmp/ccWnp1Fj.s:523    .text.evt1_execute:00000000 $t
     /tmp/ccWnp1Fj.s:528    .text.evt1_execute:00000000 evt1_execute
     /tmp/ccWnp1Fj.s:618    .text.evt1_execute:0000007c $d
     /tmp/ccWnp1Fj.s:625    .text.h3:00000000 $t
     /tmp/ccWnp1Fj.s:630    .text.h3:00000000 h3
     /tmp/ccWnp1Fj.s:647    .text.h2:00000000 $t
     /tmp/ccWnp1Fj.s:652    .text.h2:00000000 h2
     /tmp/ccWnp1Fj.s:669    .text.h1:00000000 $t
     /tmp/ccWnp1Fj.s:674    .text.h1:00000000 h1
     /tmp/ccWnp1Fj.s:691    .text.evt3_execute:00000000 $t
     /tmp/ccWnp1Fj.s:696    .text.evt3_execute:00000000 evt3_execute
     /tmp/ccWnp1Fj.s:819    .rodata.patternevt:00000000 patternevt
     /tmp/ccWnp1Fj.s:870    .rodata.testevt3:00000000 testevt3
     /tmp/ccWnp1Fj.s:828    .rodata.testevt2:00000000 testevt2
     /tmp/ccWnp1Fj.s:852    .rodata.testevt1:00000000 testevt1
     /tmp/ccWnp1Fj.s:816    .rodata.patternevt:00000000 $d
     /tmp/ccWnp1Fj.s:825    .rodata.testevt2:00000000 $d
     /tmp/ccWnp1Fj.s:834    .rodata.str1.4:00000000 $d
     /tmp/ccWnp1Fj.s:849    .rodata.testevt1:00000000 $d
     /tmp/ccWnp1Fj.s:858    .rodata.evhndl:00000000 $d
     /tmp/ccWnp1Fj.s:862    .rodata.evhndl:00000000 evhndl
     /tmp/ccWnp1Fj.s:867    .rodata.testevt3:00000000 $d
     /tmp/ccWnp1Fj.s:876    .data.es1:00000000 $d
     /tmp/ccWnp1Fj.s:880    .data.es1:00000000 es1
     /tmp/ccWnp1Fj.s:883    .data.es2:00000000 $d
     /tmp/ccWnp1Fj.s:887    .data.es2:00000000 es2
                     .debug_frame:00000010 $d
     /tmp/ccWnp1Fj.s:442    .text.evt2_execute:00000254 $t
     /tmp/ccWnp1Fj.s:486    .text.thread2:00000024 $t
     /tmp/ccWnp1Fj.s:624    .text.evt1_execute:00000088 $t

UNDEFINED SYMBOLS
chEvtGetAndClearEvents
chEvtAddEvents
chEvtWaitOne
_test_assert
test_wait_tick
chThdCreateStatic
_test_assert_time_window
test_wait_threads
chEvtWaitAny
ARM GAS  /tmp/ccWnp1Fj.s 			page 90


chEvtRegisterMask
chEvtWaitAll
chEvtUnregister
rlist
vtlist
threads
wa
chEvtBroadcastFlags
chThdSleep
chEvtSignal
chEvtDispatch
_test_assert_sequence
test_emit_token
chEvtWaitOneTimeout
chEvtWaitAnyTimeout
chEvtWaitAllTimeout
