ARM GAS  /tmp/ccTSudW5.s 			page 1


   1              		.syntax unified
   2              		.cpu cortex-m4
   3              		.fpu softvfp
   4              		.eabi_attribute 20, 1
   5              		.eabi_attribute 21, 1
   6              		.eabi_attribute 23, 3
   7              		.eabi_attribute 24, 1
   8              		.eabi_attribute 25, 1
   9              		.eabi_attribute 26, 1
  10              		.eabi_attribute 30, 2
  11              		.eabi_attribute 34, 1
  12              		.eabi_attribute 18, 4
  13              		.thumb
  14              		.file	"testdyn.c"
  15              		.text
  16              	.Ltext0:
  17              		.cfi_sections	.debug_frame
  18              		.section	.text.regfind,"ax",%progbits
  19              		.align	2
  20              		.p2align 4,,15
  21              		.thumb
  22              		.thumb_func
  23              		.type	regfind, %function
  24              	regfind:
  25              	.LFB12:
  26              		.file 1 "/home/dpeter/devel/sources/ChibiOS-RT/test/testdyn.c"
  27              		.loc 1 191 0
  28              		.cfi_startproc
  29              		@ args = 0, pretend = 0, frame = 0
  30              		@ frame_needed = 0, uses_anonymous_args = 0
  31              	.LVL0:
  32 0000 38B5     		push	{r3, r4, r5, lr}
  33              	.LCFI0:
  34              		.cfi_def_cfa_offset 16
  35              		.cfi_offset 3, -16
  36              		.cfi_offset 4, -12
  37              		.cfi_offset 5, -8
  38              		.cfi_offset 14, -4
  39              		.loc 1 191 0
  40 0002 0546     		mov	r5, r0
  41              		.loc 1 195 0
  42 0004 FFF7FEFF 		bl	chRegFirstThread
  43              	.LVL1:
  44              		.loc 1 193 0
  45 0008 0024     		movs	r4, #0
  46              		.loc 1 195 0
  47 000a 0346     		mov	r3, r0
  48              	.LVL2:
  49              	.L2:
  50              		.loc 1 198 0 discriminator 1
  51 000c 1846     		mov	r0, r3
  52              		.loc 1 197 0 discriminator 1
  53 000e AB42     		cmp	r3, r5
  54 0010 08BF     		it	eq
  55 0012 44F00104 		orreq	r4, r4, #1
  56              	.LVL3:
  57              		.loc 1 198 0 discriminator 1
ARM GAS  /tmp/ccTSudW5.s 			page 2


  58 0016 FFF7FEFF 		bl	chRegNextThread
  59              	.LVL4:
  60              		.loc 1 199 0 discriminator 1
  61 001a 0346     		mov	r3, r0
  62 001c 0028     		cmp	r0, #0
  63 001e F5D1     		bne	.L2
  64              		.loc 1 201 0
  65 0020 2046     		mov	r0, r4
  66              	.LVL5:
  67 0022 38BD     		pop	{r3, r4, r5, pc}
  68              		.cfi_endproc
  69              	.LFE12:
  70              		.size	regfind, .-regfind
  71 0024 AFF30080 		.section	.text.dyn3_execute,"ax",%progbits
  71      AFF30080 
  71      AFF30080 
  72              		.align	2
  73              		.p2align 4,,15
  74              		.thumb
  75              		.thumb_func
  76              		.type	dyn3_execute, %function
  77              	dyn3_execute:
  78              	.LFB14:
  79              		.loc 1 208 0
  80              		.cfi_startproc
  81              		@ args = 0, pretend = 0, frame = 0
  82              		@ frame_needed = 0, uses_anonymous_args = 0
  83              	.LVL6:
  84 0000 10B5     		push	{r4, lr}
  85              	.LCFI1:
  86              		.cfi_def_cfa_offset 8
  87              		.cfi_offset 4, -8
  88              		.cfi_offset 14, -4
  89              		.loc 1 210 0
  90 0002 494B     		ldr	r3, .L10
  91              		.loc 1 213 0
  92 0004 4949     		ldr	r1, .L10+4
  93              		.loc 1 210 0
  94 0006 9B69     		ldr	r3, [r3, #24]
  95              		.loc 1 213 0
  96 0008 4948     		ldr	r0, .L10+8
  97 000a 9A68     		ldr	r2, [r3, #8]
  98 000c 494B     		ldr	r3, .L10+12
  99              		.loc 1 208 0
 100 000e 82B0     		sub	sp, sp, #8
 101              	.LCFI2:
 102              		.cfi_def_cfa_offset 16
 103              		.loc 1 213 0
 104 0010 013A     		subs	r2, r2, #1
 105 0012 0091     		str	r1, [sp, #0]
 106 0014 4FF49871 		mov	r1, #304
 107 0018 FFF7FEFF 		bl	chThdCreateFromHeap
 108              	.LVL7:
 109 001c 0446     		mov	r4, r0
 110              	.LVL8:
 111              		.loc 1 214 0
 112 001e 0120     		movs	r0, #1
ARM GAS  /tmp/ccTSudW5.s 			page 3


 113              	.LVL9:
 114 0020 A17F     		ldrb	r1, [r4, #30]	@ zero_extendqisi2
 115 0022 B1EB000C 		subs	ip, r1, r0
 116 0026 DCF10001 		rsbs	r1, ip, #0
 117 002a 51EB0C01 		adcs	r1, r1, ip
 118 002e FFF7FEFF 		bl	_test_assert
 119              	.LVL10:
 120 0032 08B1     		cbz	r0, .L9
 121              	.L5:
 122              		.loc 1 236 0
 123 0034 02B0     		add	sp, sp, #8
 124 0036 10BD     		pop	{r4, pc}
 125              	.L9:
 126              		.loc 1 215 0
 127 0038 2046     		mov	r0, r4
 128 003a FFF7FEFF 		bl	chThdAddRef
 129              	.LVL11:
 130              		.loc 1 216 0
 131 003e A17F     		ldrb	r1, [r4, #30]	@ zero_extendqisi2
 132 0040 0220     		movs	r0, #2
 133 0042 B1EB000E 		subs	lr, r1, r0
 134 0046 DEF10001 		rsbs	r1, lr, #0
 135 004a 51EB0E01 		adcs	r1, r1, lr
 136 004e FFF7FEFF 		bl	_test_assert
 137              	.LVL12:
 138 0052 0028     		cmp	r0, #0
 139 0054 EED1     		bne	.L5
 140              		.loc 1 217 0
 141 0056 2046     		mov	r0, r4
 142 0058 FFF7FEFF 		bl	chThdRelease
 143              	.LVL13:
 144              		.loc 1 218 0
 145 005c A17F     		ldrb	r1, [r4, #30]	@ zero_extendqisi2
 146 005e 0320     		movs	r0, #3
 147 0060 4A1E     		subs	r2, r1, #1
 148 0062 5142     		rsbs	r1, r2, #0
 149 0064 5141     		adcs	r1, r1, r2
 150 0066 FFF7FEFF 		bl	_test_assert
 151              	.LVL14:
 152 006a 0028     		cmp	r0, #0
 153 006c E2D1     		bne	.L5
 154              		.loc 1 221 0
 155 006e 2046     		mov	r0, r4
 156 0070 FFF7FEFF 		bl	regfind
 157              	.LVL15:
 158 0074 0146     		mov	r1, r0
 159 0076 0420     		movs	r0, #4
 160 0078 FFF7FEFF 		bl	_test_assert
 161              	.LVL16:
 162 007c 0028     		cmp	r0, #0
 163 007e D9D1     		bne	.L5
 164              		.loc 1 222 0
 165 0080 2046     		mov	r0, r4
 166 0082 FFF7FEFF 		bl	regfind
 167              	.LVL17:
 168 0086 0146     		mov	r1, r0
 169 0088 0520     		movs	r0, #5
ARM GAS  /tmp/ccTSudW5.s 			page 4


 170 008a FFF7FEFF 		bl	_test_assert
 171              	.LVL18:
 172 008e 0028     		cmp	r0, #0
 173 0090 D0D1     		bne	.L5
 174              		.loc 1 225 0
 175 0092 2046     		mov	r0, r4
 176 0094 FFF7FEFF 		bl	chThdRelease
 177              	.LVL19:
 178              		.loc 1 226 0
 179 0098 A17F     		ldrb	r1, [r4, #30]	@ zero_extendqisi2
 180 009a 0620     		movs	r0, #6
 181 009c D1F10101 		rsbs	r1, r1, #1
 182 00a0 38BF     		it	cc
 183 00a2 0021     		movcc	r1, #0
 184 00a4 FFF7FEFF 		bl	_test_assert
 185              	.LVL20:
 186 00a8 0028     		cmp	r0, #0
 187 00aa C3D1     		bne	.L5
 188              		.loc 1 227 0
 189 00ac 217F     		ldrb	r1, [r4, #28]	@ zero_extendqisi2
 190 00ae 0720     		movs	r0, #7
 191 00b0 D1F10101 		rsbs	r1, r1, #1
 192 00b4 38BF     		it	cc
 193 00b6 0021     		movcc	r1, #0
 194 00b8 FFF7FEFF 		bl	_test_assert
 195              	.LVL21:
 196 00bc 0028     		cmp	r0, #0
 197 00be B9D1     		bne	.L5
 198              		.loc 1 228 0
 199 00c0 2046     		mov	r0, r4
 200 00c2 FFF7FEFF 		bl	regfind
 201              	.LVL22:
 202 00c6 0146     		mov	r1, r0
 203 00c8 0820     		movs	r0, #8
 204 00ca FFF7FEFF 		bl	_test_assert
 205              	.LVL23:
 206 00ce 0028     		cmp	r0, #0
 207 00d0 B0D1     		bne	.L5
 208              		.loc 1 229 0
 209 00d2 2046     		mov	r0, r4
 210 00d4 FFF7FEFF 		bl	regfind
 211              	.LVL24:
 212 00d8 0146     		mov	r1, r0
 213 00da 0920     		movs	r0, #9
 214 00dc FFF7FEFF 		bl	_test_assert
 215              	.LVL25:
 216 00e0 0028     		cmp	r0, #0
 217 00e2 A7D1     		bne	.L5
 218              		.loc 1 230 0
 219 00e4 3220     		movs	r0, #50
 220 00e6 FFF7FEFF 		bl	chThdSleep
 221              	.LVL26:
 222              		.loc 1 231 0
 223 00ea 217F     		ldrb	r1, [r4, #28]	@ zero_extendqisi2
 224 00ec 0A20     		movs	r0, #10
 225 00ee B1F10E03 		subs	r3, r1, #14
 226 00f2 5942     		rsbs	r1, r3, #0
ARM GAS  /tmp/ccTSudW5.s 			page 5


 227 00f4 5941     		adcs	r1, r1, r3
 228 00f6 FFF7FEFF 		bl	_test_assert
 229              	.LVL27:
 230 00fa 0028     		cmp	r0, #0
 231 00fc 9AD1     		bne	.L5
 232              		.loc 1 234 0
 233 00fe 2046     		mov	r0, r4
 234 0100 FFF7FEFF 		bl	regfind
 235              	.LVL28:
 236 0104 0146     		mov	r1, r0
 237 0106 0B20     		movs	r0, #11
 238 0108 FFF7FEFF 		bl	_test_assert
 239              	.LVL29:
 240 010c 0028     		cmp	r0, #0
 241 010e 91D1     		bne	.L5
 242              		.loc 1 235 0
 243 0110 2046     		mov	r0, r4
 244 0112 FFF7FEFF 		bl	regfind
 245              	.LVL30:
 246 0116 80F00101 		eor	r1, r0, #1
 247 011a C9B2     		uxtb	r1, r1
 248 011c 0C20     		movs	r0, #12
 249              		.loc 1 236 0
 250 011e 02B0     		add	sp, sp, #8
 251 0120 BDE81040 		pop	{r4, lr}
 252              		.loc 1 235 0
 253 0124 FFF7FEBF 		b	_test_assert
 254              	.LVL31:
 255              	.L11:
 256              		.align	2
 257              	.L10:
 258 0128 00000000 		.word	rlist
 259 012c 00000000 		.word	.LC0
 260 0130 00000000 		.word	.LANCHOR0
 261 0134 00000000 		.word	thread
 262              		.cfi_endproc
 263              	.LFE14:
 264              		.size	dyn3_execute, .-dyn3_execute
 265 0138 AFF30080 		.section	.text.thread,"ax",%progbits
 265      AFF30080 
 266              		.align	2
 267              		.p2align 4,,15
 268              		.thumb
 269              		.thumb_func
 270              		.type	thread, %function
 271              	thread:
 272              	.LFB7:
 273              		.loc 1 71 0
 274              		.cfi_startproc
 275              		@ args = 0, pretend = 0, frame = 0
 276              		@ frame_needed = 0, uses_anonymous_args = 0
 277              	.LVL32:
 278 0000 08B5     		push	{r3, lr}
 279              	.LCFI3:
 280              		.cfi_def_cfa_offset 8
 281              		.cfi_offset 3, -8
 282              		.cfi_offset 14, -4
ARM GAS  /tmp/ccTSudW5.s 			page 6


 283              		.loc 1 73 0
 284 0002 0078     		ldrb	r0, [r0, #0]	@ zero_extendqisi2
 285              	.LVL33:
 286 0004 FFF7FEFF 		bl	test_emit_token
 287              	.LVL34:
 288              		.loc 1 75 0
 289 0008 0020     		movs	r0, #0
 290 000a 08BD     		pop	{r3, pc}
 291              		.cfi_endproc
 292              	.LFE7:
 293              		.size	thread, .-thread
 294 000c AFF30080 		.section	.text.dyn3_setup,"ax",%progbits
 295              		.align	2
 296              		.p2align 4,,15
 297              		.thumb
 298              		.thumb_func
 299              		.type	dyn3_setup, %function
 300              	dyn3_setup:
 301              	.LFB13:
 302              		.loc 1 203 0
 303              		.cfi_startproc
 304              		@ args = 0, pretend = 0, frame = 0
 305              		@ frame_needed = 0, uses_anonymous_args = 0
 306              		@ link register save eliminated.
 307              		.loc 1 205 0
 308 0000 0248     		ldr	r0, .L14
 309 0002 0349     		ldr	r1, .L14+4
 310 0004 4FF4BE62 		mov	r2, #1520
 311              		.loc 1 206 0
 312              		.loc 1 205 0
 313 0008 FFF7FEBF 		b	chHeapInit
 314              	.LVL35:
 315              	.L15:
 316              		.align	2
 317              	.L14:
 318 000c 00000000 		.word	.LANCHOR0
 319 0010 00000000 		.word	test
 320              		.cfi_endproc
 321              	.LFE13:
 322              		.size	dyn3_setup, .-dyn3_setup
 323 0014 AFF30080 		.section	.text.dyn1_setup,"ax",%progbits
 323      AFF30080 
 323      AFF30080 
 324              		.align	2
 325              		.p2align 4,,15
 326              		.thumb
 327              		.thumb_func
 328              		.type	dyn1_setup, %function
 329              	dyn1_setup:
 330              	.LFB8:
 331              		.loc 1 78 0
 332              		.cfi_startproc
 333              		@ args = 0, pretend = 0, frame = 0
 334              		@ frame_needed = 0, uses_anonymous_args = 0
 335              		@ link register save eliminated.
 336              		.loc 1 80 0
 337 0000 0248     		ldr	r0, .L17
ARM GAS  /tmp/ccTSudW5.s 			page 7


 338 0002 0349     		ldr	r1, .L17+4
 339 0004 4FF4BE62 		mov	r2, #1520
 340              		.loc 1 81 0
 341              		.loc 1 80 0
 342 0008 FFF7FEBF 		b	chHeapInit
 343              	.LVL36:
 344              	.L18:
 345              		.align	2
 346              	.L17:
 347 000c 00000000 		.word	.LANCHOR0
 348 0010 00000000 		.word	test
 349              		.cfi_endproc
 350              	.LFE8:
 351              		.size	dyn1_setup, .-dyn1_setup
 352 0014 AFF30080 		.section	.text.dyn2_execute,"ax",%progbits
 352      AFF30080 
 352      AFF30080 
 353              		.align	2
 354              		.p2align 4,,15
 355              		.thumb
 356              		.thumb_func
 357              		.type	dyn2_execute, %function
 358              	dyn2_execute:
 359              	.LFB11:
 360              		.loc 1 141 0
 361              		.cfi_startproc
 362              		@ args = 0, pretend = 0, frame = 0
 363              		@ frame_needed = 0, uses_anonymous_args = 0
 364              		.loc 1 143 0
 365 0000 324B     		ldr	r3, .L33
 366 0002 9B69     		ldr	r3, [r3, #24]
 367              		.loc 1 141 0
 368 0004 70B5     		push	{r4, r5, r6, lr}
 369              	.LCFI4:
 370              		.cfi_def_cfa_offset 16
 371              		.cfi_offset 4, -16
 372              		.cfi_offset 5, -12
 373              		.cfi_offset 6, -8
 374              		.cfi_offset 14, -4
 375 0006 324C     		ldr	r4, .L33+4
 376              		.loc 1 143 0
 377 0008 9D68     		ldr	r5, [r3, #8]
 378              	.LVL37:
 379              		.loc 1 141 0
 380 000a 04F11006 		add	r6, r4, #16
 381              	.LVL38:
 382              	.L20:
 383              		.loc 1 147 0 discriminator 2
 384 000e 54F8041F 		ldr	r1, [r4, #4]!
 385 0012 3048     		ldr	r0, .L33+8
 386 0014 FFF7FEFF 		bl	chPoolFree
 387              	.LVL39:
 388              		.loc 1 146 0 discriminator 2
 389 0018 B442     		cmp	r4, r6
 390 001a F8D1     		bne	.L20
 391              		.loc 1 150 0
 392 001c 691E     		subs	r1, r5, #1
ARM GAS  /tmp/ccTSudW5.s 			page 8


 393 001e 2E4A     		ldr	r2, .L33+12
 394 0020 2E4B     		ldr	r3, .L33+16
 395 0022 2C48     		ldr	r0, .L33+8
 396 0024 2E4C     		ldr	r4, .L33+20
 397 0026 FFF7FEFF 		bl	chThdCreateFromMemoryPool
 398              	.LVL40:
 399              		.loc 1 151 0
 400 002a A91E     		subs	r1, r5, #2
 401              		.loc 1 150 0
 402 002c 2060     		str	r0, [r4, #0]
 403              		.loc 1 151 0
 404 002e 2A4A     		ldr	r2, .L33+12
 405 0030 2C4B     		ldr	r3, .L33+24
 406 0032 2848     		ldr	r0, .L33+8
 407 0034 FFF7FEFF 		bl	chThdCreateFromMemoryPool
 408              	.LVL41:
 409              		.loc 1 152 0
 410 0038 E91E     		subs	r1, r5, #3
 411              		.loc 1 151 0
 412 003a 6060     		str	r0, [r4, #4]
 413              		.loc 1 152 0
 414 003c 264A     		ldr	r2, .L33+12
 415 003e 2A4B     		ldr	r3, .L33+28
 416 0040 2448     		ldr	r0, .L33+8
 417 0042 FFF7FEFF 		bl	chThdCreateFromMemoryPool
 418              	.LVL42:
 419              		.loc 1 153 0
 420 0046 291F     		subs	r1, r5, #4
 421              		.loc 1 152 0
 422 0048 A060     		str	r0, [r4, #8]
 423              		.loc 1 153 0
 424 004a 234A     		ldr	r2, .L33+12
 425 004c 274B     		ldr	r3, .L33+32
 426 004e 2148     		ldr	r0, .L33+8
 427 0050 FFF7FEFF 		bl	chThdCreateFromMemoryPool
 428              	.LVL43:
 429              		.loc 1 154 0
 430 0054 691F     		subs	r1, r5, #5
 431              		.loc 1 153 0
 432 0056 E060     		str	r0, [r4, #12]
 433              		.loc 1 154 0
 434 0058 1F4A     		ldr	r2, .L33+12
 435 005a 1E48     		ldr	r0, .L33+8
 436 005c 244B     		ldr	r3, .L33+36
 437 005e FFF7FEFF 		bl	chThdCreateFromMemoryPool
 438              	.LVL44:
 439              		.loc 1 156 0
 440 0062 2168     		ldr	r1, [r4, #0]
 441              		.loc 1 154 0
 442 0064 2061     		str	r0, [r4, #16]
 443              		.loc 1 156 0
 444 0066 49B1     		cbz	r1, .L21
 445              		.loc 1 156 0 is_stmt 0 discriminator 1
 446 0068 6168     		ldr	r1, [r4, #4]
 447 006a 39B1     		cbz	r1, .L21
 448              		.loc 1 156 0 discriminator 3
 449 006c A168     		ldr	r1, [r4, #8]
ARM GAS  /tmp/ccTSudW5.s 			page 9


 450 006e 29B1     		cbz	r1, .L21
 451              		.loc 1 156 0 discriminator 4
 452 0070 E168     		ldr	r1, [r4, #12]
 453 0072 19B1     		cbz	r1, .L21
 454              		.loc 1 156 0 discriminator 5
 455 0074 D0F10101 		rsbs	r1, r0, #1
 456 0078 38BF     		it	cc
 457 007a 0021     		movcc	r1, #0
 458              	.L21:
 459              		.loc 1 156 0 discriminator 7
 460 007c 0120     		movs	r0, #1
 461 007e FFF7FEFF 		bl	_test_assert
 462              	.LVL45:
 463 0082 00B1     		cbz	r0, .L32
 464              	.L19:
 465 0084 70BD     		pop	{r4, r5, r6, pc}
 466              	.L32:
 467              		.loc 1 164 0 is_stmt 1
 468 0086 FFF7FEFF 		bl	test_wait_threads
 469              	.LVL46:
 470              		.loc 1 165 0
 471 008a 0220     		movs	r0, #2
 472 008c 1949     		ldr	r1, .L33+40
 473 008e FFF7FEFF 		bl	_test_assert_sequence
 474              	.LVL47:
 475 0092 0028     		cmp	r0, #0
 476 0094 F6D1     		bne	.L19
 477 0096 0424     		movs	r4, #4
 478              	.L25:
 479              		.loc 1 169 0
 480 0098 0E48     		ldr	r0, .L33+8
 481 009a FFF7FEFF 		bl	chPoolAlloc
 482              	.LVL48:
 483 009e 011C     		adds	r1, r0, #0
 484 00a0 18BF     		it	ne
 485 00a2 0121     		movne	r1, #1
 486 00a4 0320     		movs	r0, #3
 487 00a6 FFF7FEFF 		bl	_test_assert
 488              	.LVL49:
 489 00aa 0028     		cmp	r0, #0
 490 00ac EAD1     		bne	.L19
 491              		.loc 1 168 0
 492 00ae 013C     		subs	r4, r4, #1
 493 00b0 F2D1     		bne	.L25
 494              		.loc 1 170 0
 495 00b2 0848     		ldr	r0, .L33+8
 496 00b4 FFF7FEFF 		bl	chPoolAlloc
 497              	.LVL50:
 498 00b8 D0F10101 		rsbs	r1, r0, #1
 499 00bc 38BF     		it	cc
 500 00be 0021     		movcc	r1, #0
 501 00c0 0420     		movs	r0, #4
 502              		.loc 1 171 0
 503 00c2 BDE87040 		pop	{r4, r5, r6, lr}
 504              		.loc 1 170 0
 505 00c6 FFF7FEBF 		b	_test_assert
 506              	.LVL51:
ARM GAS  /tmp/ccTSudW5.s 			page 10


 507              	.L34:
 508 00ca 00BF     		.align	2
 509              	.L33:
 510 00cc 00000000 		.word	rlist
 511 00d0 FCFFFFFF 		.word	wa-4
 512 00d4 00000000 		.word	.LANCHOR1
 513 00d8 00000000 		.word	thread
 514 00dc 00000000 		.word	.LC0
 515 00e0 00000000 		.word	threads
 516 00e4 04000000 		.word	.LC1
 517 00e8 08000000 		.word	.LC2
 518 00ec 0C000000 		.word	.LC3
 519 00f0 10000000 		.word	.LC4
 520 00f4 14000000 		.word	.LC5
 521              		.cfi_endproc
 522              	.LFE11:
 523              		.size	dyn2_execute, .-dyn2_execute
 524 00f8 AFF30080 		.section	.text.dyn2_setup,"ax",%progbits
 524      AFF30080 
 525              		.align	2
 526              		.p2align 4,,15
 527              		.thumb
 528              		.thumb_func
 529              		.type	dyn2_setup, %function
 530              	dyn2_setup:
 531              	.LFB10:
 532              		.loc 1 136 0
 533              		.cfi_startproc
 534              		@ args = 0, pretend = 0, frame = 0
 535              		@ frame_needed = 0, uses_anonymous_args = 0
 536              		@ link register save eliminated.
 537              		.loc 1 138 0
 538 0000 0248     		ldr	r0, .L36
 539 0002 4FF49871 		mov	r1, #304
 540 0006 0022     		movs	r2, #0
 541              		.loc 1 139 0
 542              		.loc 1 138 0
 543 0008 FFF7FEBF 		b	chPoolInit
 544              	.LVL52:
 545              	.L37:
 546              		.align	2
 547              	.L36:
 548 000c 00000000 		.word	.LANCHOR1
 549              		.cfi_endproc
 550              	.LFE10:
 551              		.size	dyn2_setup, .-dyn2_setup
 552              		.section	.text.dyn1_execute,"ax",%progbits
 553              		.align	2
 554              		.p2align 4,,15
 555              		.thumb
 556              		.thumb_func
 557              		.type	dyn1_execute, %function
 558              	dyn1_execute:
 559              	.LFB9:
 560              		.loc 1 83 0
 561              		.cfi_startproc
 562              		@ args = 0, pretend = 0, frame = 8
ARM GAS  /tmp/ccTSudW5.s 			page 11


 563              		@ frame_needed = 0, uses_anonymous_args = 0
 564 0000 70B5     		push	{r4, r5, r6, lr}
 565              	.LCFI5:
 566              		.cfi_def_cfa_offset 16
 567              		.cfi_offset 4, -16
 568              		.cfi_offset 5, -12
 569              		.cfi_offset 6, -8
 570              		.cfi_offset 14, -4
 571              		.loc 1 86 0
 572 0002 334B     		ldr	r3, .L48
 573              		.loc 1 88 0
 574 0004 3348     		ldr	r0, .L48+4
 575              		.loc 1 86 0
 576 0006 9B69     		ldr	r3, [r3, #24]
 577              		.loc 1 90 0
 578 0008 334C     		ldr	r4, .L48+8
 579              		.loc 1 86 0
 580 000a 9D68     		ldr	r5, [r3, #8]
 581              	.LVL53:
 582              		.loc 1 83 0
 583 000c 84B0     		sub	sp, sp, #16
 584              	.LCFI6:
 585              		.cfi_def_cfa_offset 32
 586              		.loc 1 88 0
 587 000e 03A9     		add	r1, sp, #12
 588 0010 FFF7FEFF 		bl	chHeapStatus
 589              	.LVL54:
 590              		.loc 1 90 0
 591 0014 314A     		ldr	r2, .L48+12
 592 0016 324B     		ldr	r3, .L48+16
 593 0018 0092     		str	r2, [sp, #0]
 594 001a 4FF49871 		mov	r1, #304
 595 001e 6A1E     		subs	r2, r5, #1
 596 0020 2C48     		ldr	r0, .L48+4
 597 0022 FFF7FEFF 		bl	chThdCreateFromHeap
 598              	.LVL55:
 599 0026 2060     		str	r0, [r4, #0]
 600              		.loc 1 92 0
 601 0028 2E48     		ldr	r0, .L48+20
 602 002a 2D4B     		ldr	r3, .L48+16
 603 002c 0090     		str	r0, [sp, #0]
 604 002e AA1E     		subs	r2, r5, #2
 605 0030 4FF49871 		mov	r1, #304
 606 0034 2748     		ldr	r0, .L48+4
 607 0036 FFF7FEFF 		bl	chThdCreateFromHeap
 608              	.LVL56:
 609              		.loc 1 95 0
 610 003a 02A9     		add	r1, sp, #8
 611              		.loc 1 92 0
 612 003c 6060     		str	r0, [r4, #4]
 613              		.loc 1 95 0
 614 003e 2548     		ldr	r0, .L48+4
 615 0040 FFF7FEFF 		bl	chHeapStatus
 616              	.LVL57:
 617              		.loc 1 96 0
 618 0044 0299     		ldr	r1, [sp, #8]
 619 0046 2348     		ldr	r0, .L48+4
ARM GAS  /tmp/ccTSudW5.s 			page 12


 620 0048 FFF7FEFF 		bl	chHeapAlloc
 621              	.LVL58:
 622              		.loc 1 97 0
 623 004c 264A     		ldr	r2, .L48+24
 624 004e 244B     		ldr	r3, .L48+16
 625 0050 0092     		str	r2, [sp, #0]
 626 0052 4FF49871 		mov	r1, #304
 627              		.loc 1 96 0
 628 0056 0646     		mov	r6, r0
 629              	.LVL59:
 630              		.loc 1 97 0
 631 0058 EA1E     		subs	r2, r5, #3
 632 005a 1E48     		ldr	r0, .L48+4
 633              	.LVL60:
 634 005c FFF7FEFF 		bl	chThdCreateFromHeap
 635              	.LVL61:
 636 0060 A060     		str	r0, [r4, #8]
 637              		.loc 1 99 0
 638 0062 3046     		mov	r0, r6
 639 0064 FFF7FEFF 		bl	chHeapFree
 640              	.LVL62:
 641              		.loc 1 101 0
 642 0068 2168     		ldr	r1, [r4, #0]
 643 006a 29B1     		cbz	r1, .L39
 644              		.loc 1 101 0 is_stmt 0 discriminator 1
 645 006c 6168     		ldr	r1, [r4, #4]
 646 006e 19B1     		cbz	r1, .L39
 647              		.loc 1 101 0 discriminator 3
 648 0070 A168     		ldr	r1, [r4, #8]
 649 0072 0029     		cmp	r1, #0
 650 0074 23D0     		beq	.L46
 651              		.loc 1 101 0
 652 0076 0021     		movs	r1, #0
 653              	.L39:
 654              		.loc 1 101 0 discriminator 7
 655 0078 0120     		movs	r0, #1
 656 007a FFF7FEFF 		bl	_test_assert
 657              	.LVL63:
 658 007e 08B1     		cbz	r0, .L47
 659              	.L38:
 660              		.loc 1 115 0 is_stmt 1
 661 0080 04B0     		add	sp, sp, #16
 662 0082 70BD     		pop	{r4, r5, r6, pc}
 663              	.L47:
 664              		.loc 1 109 0
 665 0084 FFF7FEFF 		bl	test_wait_threads
 666              	.LVL64:
 667              		.loc 1 110 0
 668 0088 0220     		movs	r0, #2
 669 008a 1849     		ldr	r1, .L48+28
 670 008c FFF7FEFF 		bl	_test_assert_sequence
 671              	.LVL65:
 672 0090 0028     		cmp	r0, #0
 673 0092 F5D1     		bne	.L38
 674              		.loc 1 113 0
 675 0094 02A9     		add	r1, sp, #8
 676 0096 0F48     		ldr	r0, .L48+4
ARM GAS  /tmp/ccTSudW5.s 			page 13


 677 0098 FFF7FEFF 		bl	chHeapStatus
 678              	.LVL66:
 679 009c 421E     		subs	r2, r0, #1
 680 009e 5142     		rsbs	r1, r2, #0
 681 00a0 5141     		adcs	r1, r1, r2
 682 00a2 0320     		movs	r0, #3
 683 00a4 FFF7FEFF 		bl	_test_assert
 684              	.LVL67:
 685 00a8 0028     		cmp	r0, #0
 686 00aa E9D1     		bne	.L38
 687              		.loc 1 114 0
 688 00ac 0299     		ldr	r1, [sp, #8]
 689              	.LVL68:
 690 00ae 039B     		ldr	r3, [sp, #12]
 691 00b0 0420     		movs	r0, #4
 692 00b2 CB1A     		subs	r3, r1, r3
 693 00b4 5942     		rsbs	r1, r3, #0
 694 00b6 5941     		adcs	r1, r1, r3
 695 00b8 FFF7FEFF 		bl	_test_assert
 696              	.LVL69:
 697 00bc E0E7     		b	.L38
 698              	.LVL70:
 699              	.L46:
 700              		.loc 1 101 0 discriminator 4
 701 00be E368     		ldr	r3, [r4, #12]
 702 00c0 002B     		cmp	r3, #0
 703 00c2 D9D1     		bne	.L39
 704              		.loc 1 101 0 is_stmt 0 discriminator 5
 705 00c4 2169     		ldr	r1, [r4, #16]
 706 00c6 D1F10101 		rsbs	r1, r1, #1
 707 00ca 38BF     		it	cc
 708 00cc 0021     		movcc	r1, #0
 709 00ce D3E7     		b	.L39
 710              	.L49:
 711              		.align	2
 712              	.L48:
 713 00d0 00000000 		.word	rlist
 714 00d4 00000000 		.word	.LANCHOR0
 715 00d8 00000000 		.word	threads
 716 00dc 00000000 		.word	.LC0
 717 00e0 00000000 		.word	thread
 718 00e4 04000000 		.word	.LC1
 719 00e8 08000000 		.word	.LC2
 720 00ec 1C000000 		.word	.LC6
 721              		.cfi_endproc
 722              	.LFE9:
 723              		.size	dyn1_execute, .-dyn1_execute
 724              		.global	patterndyn
 725              		.global	testdyn3
 726              		.global	testdyn2
 727              		.global	testdyn1
 728              		.section	.rodata.testdyn1,"a",%progbits
 729              		.align	2
 730              		.type	testdyn1, %object
 731              		.size	testdyn1, 16
 732              	testdyn1:
 733 0000 78000000 		.word	.LC9
ARM GAS  /tmp/ccTSudW5.s 			page 14


 734 0004 00000000 		.word	dyn1_setup
 735 0008 00000000 		.word	0
 736 000c 00000000 		.word	dyn1_execute
 737              		.section	.rodata.testdyn2,"a",%progbits
 738              		.align	2
 739              		.type	testdyn2, %object
 740              		.size	testdyn2, 16
 741              	testdyn2:
 742 0000 48000000 		.word	.LC8
 743 0004 00000000 		.word	dyn2_setup
 744 0008 00000000 		.word	0
 745 000c 00000000 		.word	dyn2_execute
 746              		.section	.rodata.testdyn3,"a",%progbits
 747              		.align	2
 748              		.type	testdyn3, %object
 749              		.size	testdyn3, 16
 750              	testdyn3:
 751 0000 20000000 		.word	.LC7
 752 0004 00000000 		.word	dyn3_setup
 753 0008 00000000 		.word	0
 754 000c 00000000 		.word	dyn3_execute
 755              		.section	.bss.mp1,"aw",%nobits
 756              		.align	2
 757              		.set	.LANCHOR1,. + 0
 758              		.type	mp1, %object
 759              		.size	mp1, 12
 760              	mp1:
 761 0000 00000000 		.space	12
 761      00000000 
 761      00000000 
 762              		.section	.rodata.str1.4,"aMS",%progbits,1
 763              		.align	2
 764              	.LC0:
 765 0000 4100     		.ascii	"A\000"
 766 0002 0000     		.space	2
 767              	.LC1:
 768 0004 4200     		.ascii	"B\000"
 769 0006 0000     		.space	2
 770              	.LC2:
 771 0008 4300     		.ascii	"C\000"
 772 000a 0000     		.space	2
 773              	.LC3:
 774 000c 4400     		.ascii	"D\000"
 775 000e 0000     		.space	2
 776              	.LC4:
 777 0010 4500     		.ascii	"E\000"
 778 0012 0000     		.space	2
 779              	.LC5:
 780 0014 41424344 		.ascii	"ABCD\000"
 780      00
 781 0019 000000   		.space	3
 782              	.LC6:
 783 001c 414200   		.ascii	"AB\000"
 784 001f 00       		.space	1
 785              	.LC7:
 786 0020 44796E61 		.ascii	"Dynamic APIs, registry and references\000"
 786      6D696320 
ARM GAS  /tmp/ccTSudW5.s 			page 15


 786      41504973 
 786      2C207265 
 786      67697374 
 787 0046 0000     		.space	2
 788              	.LC8:
 789 0048 44796E61 		.ascii	"Dynamic APIs, threads creation from memory pool\000"
 789      6D696320 
 789      41504973 
 789      2C207468 
 789      72656164 
 790              	.LC9:
 791 0078 44796E61 		.ascii	"Dynamic APIs, threads creation from heap\000"
 791      6D696320 
 791      41504973 
 791      2C207468 
 791      72656164 
 792 00a1 000000   		.section	.rodata.patterndyn,"a",%progbits
 793              		.align	2
 794              		.type	patterndyn, %object
 795              		.size	patterndyn, 16
 796              	patterndyn:
 797 0000 00000000 		.word	testdyn1
 798 0004 00000000 		.word	testdyn2
 799 0008 00000000 		.word	testdyn3
 800 000c 00000000 		.word	0
 801              		.section	.bss.heap1,"aw",%nobits
 802              		.align	3
 803              		.set	.LANCHOR0,. + 0
 804              		.type	heap1, %object
 805              		.size	heap1, 32
 806              	heap1:
 807 0000 00000000 		.space	32
 807      00000000 
 807      00000000 
 807      00000000 
 807      00000000 
 808              		.text
 809              	.Letext0:
 810              		.file 2 "/home/dpeter/CodeSourcery/Sourcery_CodeBench_Lite_for_ARM_EABI/bin/../lib/gcc/arm-none-ea
 811              		.file 3 "/home/dpeter/CodeSourcery/Sourcery_CodeBench_Lite_for_ARM_EABI/bin/../lib/gcc/arm-none-ea
 812              		.file 4 "/home/dpeter/devel/sources/ChibiOS-RT/os/ports/GCC/ARMCMx/chtypes.h"
 813              		.file 5 "/home/dpeter/devel/sources/ChibiOS-RT/os/kernel/include/chlists.h"
 814              		.file 6 "/home/dpeter/devel/sources/ChibiOS-RT/os/kernel/include/chthreads.h"
 815              		.file 7 "/home/dpeter/devel/sources/ChibiOS-RT/os/ports/GCC/ARMCMx/chcore_v7m.h"
 816              		.file 8 "/home/dpeter/devel/sources/ChibiOS-RT/os/kernel/include/chschd.h"
 817              		.file 9 "/home/dpeter/devel/sources/ChibiOS-RT/os/kernel/include/chmtx.h"
 818              		.file 10 "/home/dpeter/devel/sources/ChibiOS-RT/os/kernel/include/chmemcore.h"
 819              		.file 11 "/home/dpeter/devel/sources/ChibiOS-RT/os/kernel/include/chheap.h"
 820              		.file 12 "/home/dpeter/devel/sources/ChibiOS-RT/os/kernel/include/chmempools.h"
 821              		.file 13 "/home/dpeter/devel/sources/ChibiOS-RT/test/test.h"
 822              		.file 14 "/home/dpeter/devel/sources/ChibiOS-RT/os/kernel/include/chregistry.h"
 823              		.file 15 "/home/dpeter/devel/sources/ChibiOS-RT/os/kernel/include/chdynamic.h"