ARM GAS  /tmp/ccWnp1Fj.s 			page 1


   1              		.syntax unified
   2              		.cpu cortex-m4
   3              		.fpu softvfp
   4              		.eabi_attribute 20, 1
   5              		.eabi_attribute 21, 1
   6              		.eabi_attribute 23, 3
   7              		.eabi_attribute 24, 1
   8              		.eabi_attribute 25, 1
   9              		.eabi_attribute 26, 1
  10              		.eabi_attribute 30, 2
  11              		.eabi_attribute 34, 1
  12              		.eabi_attribute 18, 4
  13              		.thumb
  14              		.file	"testevt.c"
  15              		.text
  16              	.Ltext0:
  17              		.cfi_sections	.debug_frame
  18              		.section	.text.evt3_setup,"ax",%progbits
  19              		.align	2
  20              		.p2align 4,,15
  21              		.thumb
  22              		.thumb_func
  23              		.type	evt3_setup, %function
  24              	evt3_setup:
  25              	.LFB16:
  26              		.file 1 "/home/dpeter/devel/sources/ChibiOS-RT/test/testevt.c"
  27              		.loc 1 247 0
  28              		.cfi_startproc
  29              		@ args = 0, pretend = 0, frame = 0
  30              		@ frame_needed = 0, uses_anonymous_args = 0
  31              		@ link register save eliminated.
  32              		.loc 1 249 0
  33 0000 4FF0FF30 		mov	r0, #-1
  34              		.loc 1 250 0
  35              		.loc 1 249 0
  36 0004 FFF7FEBF 		b	chEvtGetAndClearEvents
  37              	.LVL0:
  38              		.cfi_endproc
  39              	.LFE16:
  40              		.size	evt3_setup, .-evt3_setup
  41 0008 AFF30080 		.section	.text.evt2_setup,"ax",%progbits
  41      AFF30080 
  42              		.align	2
  43              		.p2align 4,,15
  44              		.thumb
  45              		.thumb_func
  46              		.type	evt2_setup, %function
  47              	evt2_setup:
  48              	.LFB12:
  49              		.loc 1 128 0
  50              		.cfi_startproc
  51              		@ args = 0, pretend = 0, frame = 0
  52              		@ frame_needed = 0, uses_anonymous_args = 0
  53              		@ link register save eliminated.
  54              		.loc 1 130 0
  55 0000 4FF0FF30 		mov	r0, #-1
  56              		.loc 1 131 0
ARM GAS  /tmp/ccWnp1Fj.s 			page 2


  57              		.loc 1 130 0
  58 0004 FFF7FEBF 		b	chEvtGetAndClearEvents
  59              	.LVL1:
  60              		.cfi_endproc
  61              	.LFE12:
  62              		.size	evt2_setup, .-evt2_setup
  63 0008 AFF30080 		.section	.text.evt1_setup,"ax",%progbits
  63      AFF30080 
  64              		.align	2
  65              		.p2align 4,,15
  66              		.thumb
  67              		.thumb_func
  68              		.type	evt1_setup, %function
  69              	evt1_setup:
  70              	.LFB7:
  71              		.loc 1 75 0
  72              		.cfi_startproc
  73              		@ args = 0, pretend = 0, frame = 0
  74              		@ frame_needed = 0, uses_anonymous_args = 0
  75              		@ link register save eliminated.
  76              		.loc 1 77 0
  77 0000 4FF0FF30 		mov	r0, #-1
  78              		.loc 1 78 0
  79              		.loc 1 77 0
  80 0004 FFF7FEBF 		b	chEvtGetAndClearEvents
  81              	.LVL2:
  82              		.cfi_endproc
  83              	.LFE7:
  84              		.size	evt1_setup, .-evt1_setup
  85 0008 AFF30080 		.section	.text.evt2_execute,"ax",%progbits
  85      AFF30080 
  86              		.align	2
  87              		.p2align 4,,15
  88              		.thumb
  89              		.thumb_func
  90              		.type	evt2_execute, %function
  91              	evt2_execute:
  92              	.LFB15:
  93              		.loc 1 149 0
  94              		.cfi_startproc
  95              		@ args = 0, pretend = 0, frame = 40
  96              		@ frame_needed = 0, uses_anonymous_args = 0
  97 0000 2DE9F042 		push	{r4, r5, r6, r7, r9, lr}
  98              	.LCFI0:
  99              		.cfi_def_cfa_offset 24
 100              		.cfi_offset 4, -24
 101              		.cfi_offset 5, -20
 102              		.cfi_offset 6, -16
 103              		.cfi_offset 7, -12
 104              		.cfi_offset 9, -8
 105              		.cfi_offset 14, -4
 106              		.loc 1 157 0
 107 0004 0520     		movs	r0, #5
 108              		.loc 1 149 0
 109 0006 8CB0     		sub	sp, sp, #48
 110              	.LCFI1:
 111              		.cfi_def_cfa_offset 72
ARM GAS  /tmp/ccWnp1Fj.s 			page 3


 112              		.loc 1 157 0
 113 0008 FFF7FEFF 		bl	chEvtAddEvents
 114              	.LVL3:
 115              		.loc 1 158 0
 116 000c 4FF0FF30 		mov	r0, #-1
 117 0010 FFF7FEFF 		bl	chEvtWaitOne
 118              	.LVL4:
 119              		.loc 1 159 0
 120 0014 0138     		subs	r0, r0, #1
 121              	.LVL5:
 122 0016 4142     		rsbs	r1, r0, #0
 123 0018 4141     		adcs	r1, r1, r0
 124 001a 0120     		movs	r0, #1
 125              	.LVL6:
 126 001c FFF7FEFF 		bl	_test_assert
 127              	.LVL7:
 128 0020 10B1     		cbz	r0, .L8
 129              	.L4:
 130              		.loc 1 222 0
 131 0022 0CB0     		add	sp, sp, #48
 132 0024 BDE8F082 		pop	{r4, r5, r6, r7, r9, pc}
 133              	.L8:
 134              		.loc 1 160 0
 135 0028 4FF0FF30 		mov	r0, #-1
 136 002c FFF7FEFF 		bl	chEvtWaitOne
 137              	.LVL8:
 138              		.loc 1 161 0
 139 0030 021F     		subs	r2, r0, #4
 140 0032 5142     		rsbs	r1, r2, #0
 141 0034 5141     		adcs	r1, r1, r2
 142 0036 0220     		movs	r0, #2
 143              	.LVL9:
 144 0038 FFF7FEFF 		bl	_test_assert
 145              	.LVL10:
 146 003c 0028     		cmp	r0, #0
 147 003e F0D1     		bne	.L4
 148              		.loc 1 162 0
 149 0040 4FF0FF30 		mov	r0, #-1
 150 0044 FFF7FEFF 		bl	chEvtGetAndClearEvents
 151              	.LVL11:
 152              		.loc 1 163 0
 153 0048 D0F10101 		rsbs	r1, r0, #1
 154 004c 38BF     		it	cc
 155 004e 0021     		movcc	r1, #0
 156 0050 0320     		movs	r0, #3
 157              	.LVL12:
 158 0052 FFF7FEFF 		bl	_test_assert
 159              	.LVL13:
 160 0056 0028     		cmp	r0, #0
 161 0058 E3D1     		bne	.L4
 162              		.loc 1 170 0
 163 005a 754D     		ldr	r5, .L9
 164              		.loc 1 169 0
 165 005c 754F     		ldr	r7, .L9+4
 166              		.loc 1 170 0
 167 005e 764E     		ldr	r6, .L9+8
 168              		.loc 1 168 0
ARM GAS  /tmp/ccWnp1Fj.s 			page 4


 169 0060 FFF7FEFF 		bl	test_wait_tick
 170              	.LVL14:
 171              		.loc 1 170 0
 172 0064 754B     		ldr	r3, .L9+12
 173 0066 A969     		ldr	r1, [r5, #24]
 174 0068 1B68     		ldr	r3, [r3, #0]
 175 006a 8A68     		ldr	r2, [r1, #8]
 176 006c 0393     		str	r3, [sp, #12]
 177 006e 0091     		str	r1, [sp, #0]
 178 0070 013A     		subs	r2, r2, #1
 179 0072 4FF49871 		mov	r1, #304
 180 0076 724B     		ldr	r3, .L9+16
 181 0078 0398     		ldr	r0, [sp, #12]
 182              		.loc 1 169 0
 183 007a FC68     		ldr	r4, [r7, #12]
 184              	.LVL15:
 185              		.loc 1 170 0
 186 007c FFF7FEFF 		bl	chThdCreateStatic
 187              	.LVL16:
 188 0080 3060     		str	r0, [r6, #0]
 189              		.loc 1 172 0
 190 0082 4FF0FF30 		mov	r0, #-1
 191 0086 FFF7FEFF 		bl	chEvtWaitOne
 192              	.LVL17:
 193              		.loc 1 173 0
 194 008a 04F13201 		add	r1, r4, #50
 195              	.LVL18:
 196              		.loc 1 172 0
 197 008e 8146     		mov	r9, r0
 198              	.LVL19:
 199              		.loc 1 173 0
 200 0090 04F13702 		add	r2, r4, #55
 201 0094 0420     		movs	r0, #4
 202              	.LVL20:
 203 0096 FFF7FEFF 		bl	_test_assert_time_window
 204              	.LVL21:
 205 009a 0028     		cmp	r0, #0
 206 009c C1D1     		bne	.L4
 207              		.loc 1 174 0
 208 009e 0520     		movs	r0, #5
 209 00a0 B9F10103 		subs	r3, r9, #1
 210 00a4 5942     		rsbs	r1, r3, #0
 211 00a6 5941     		adcs	r1, r1, r3
 212 00a8 FFF7FEFF 		bl	_test_assert
 213              	.LVL22:
 214 00ac 0028     		cmp	r0, #0
 215 00ae B8D1     		bne	.L4
 216              		.loc 1 175 0
 217 00b0 4FF0FF30 		mov	r0, #-1
 218 00b4 FFF7FEFF 		bl	chEvtGetAndClearEvents
 219              	.LVL23:
 220              		.loc 1 176 0
 221 00b8 D0F10101 		rsbs	r1, r0, #1
 222 00bc 38BF     		it	cc
 223 00be 0021     		movcc	r1, #0
 224 00c0 0620     		movs	r0, #6
 225              	.LVL24:
ARM GAS  /tmp/ccWnp1Fj.s 			page 5


 226 00c2 FFF7FEFF 		bl	_test_assert
 227              	.LVL25:
 228 00c6 0028     		cmp	r0, #0
 229 00c8 ABD1     		bne	.L4
 230              		.loc 1 177 0
 231 00ca FFF7FEFF 		bl	test_wait_threads
 232              	.LVL26:
 233              		.loc 1 182 0
 234 00ce 0520     		movs	r0, #5
 235 00d0 FFF7FEFF 		bl	chEvtAddEvents
 236              	.LVL27:
 237              		.loc 1 183 0
 238 00d4 4FF0FF30 		mov	r0, #-1
 239 00d8 FFF7FEFF 		bl	chEvtWaitAny
 240              	.LVL28:
 241              		.loc 1 184 0
 242 00dc B0F1050C 		subs	ip, r0, #5
 243 00e0 DCF10001 		rsbs	r1, ip, #0
 244 00e4 51EB0C01 		adcs	r1, r1, ip
 245 00e8 0720     		movs	r0, #7
 246              	.LVL29:
 247 00ea FFF7FEFF 		bl	_test_assert
 248              	.LVL30:
 249 00ee 0028     		cmp	r0, #0
 250 00f0 97D1     		bne	.L4
 251              		.loc 1 185 0
 252 00f2 4FF0FF30 		mov	r0, #-1
 253 00f6 FFF7FEFF 		bl	chEvtGetAndClearEvents
 254              	.LVL31:
 255              		.loc 1 186 0
 256 00fa D0F10101 		rsbs	r1, r0, #1
 257 00fe 38BF     		it	cc
 258 0100 0021     		movcc	r1, #0
 259 0102 0820     		movs	r0, #8
 260              	.LVL32:
 261 0104 FFF7FEFF 		bl	_test_assert
 262              	.LVL33:
 263 0108 0028     		cmp	r0, #0
 264 010a 8AD1     		bne	.L4
 265              		.loc 1 191 0
 266 010c FFF7FEFF 		bl	test_wait_tick
 267              	.LVL34:
 268              		.loc 1 193 0
 269 0110 A969     		ldr	r1, [r5, #24]
 270 0112 4B4B     		ldr	r3, .L9+16
 271 0114 8A68     		ldr	r2, [r1, #8]
 272 0116 0398     		ldr	r0, [sp, #12]
 273 0118 0091     		str	r1, [sp, #0]
 274 011a 013A     		subs	r2, r2, #1
 275 011c 4FF49871 		mov	r1, #304
 276              		.loc 1 192 0
 277 0120 FC68     		ldr	r4, [r7, #12]
 278              	.LVL35:
 279              		.loc 1 193 0
 280 0122 FFF7FEFF 		bl	chThdCreateStatic
 281              	.LVL36:
 282 0126 3060     		str	r0, [r6, #0]
ARM GAS  /tmp/ccWnp1Fj.s 			page 6


 283              		.loc 1 195 0
 284 0128 4FF0FF30 		mov	r0, #-1
 285 012c FFF7FEFF 		bl	chEvtWaitAny
 286              	.LVL37:
 287              		.loc 1 196 0
 288 0130 04F13201 		add	r1, r4, #50
 289              	.LVL38:
 290              		.loc 1 195 0
 291 0134 8146     		mov	r9, r0
 292              	.LVL39:
 293              		.loc 1 196 0
 294 0136 04F13702 		add	r2, r4, #55
 295 013a 0920     		movs	r0, #9
 296              	.LVL40:
 297 013c FFF7FEFF 		bl	_test_assert_time_window
 298              	.LVL41:
 299 0140 0028     		cmp	r0, #0
 300 0142 7FF46EAF 		bne	.L4
 301              		.loc 1 197 0
 302 0146 0A20     		movs	r0, #10
 303 0148 B9F1010E 		subs	lr, r9, #1
 304 014c DEF10001 		rsbs	r1, lr, #0
 305 0150 51EB0E01 		adcs	r1, r1, lr
 306 0154 FFF7FEFF 		bl	_test_assert
 307              	.LVL42:
 308 0158 0028     		cmp	r0, #0
 309 015a 7FF462AF 		bne	.L4
 310              		.loc 1 198 0
 311 015e 4FF0FF30 		mov	r0, #-1
 312 0162 FFF7FEFF 		bl	chEvtGetAndClearEvents
 313              	.LVL43:
 314              		.loc 1 199 0
 315 0166 D0F10101 		rsbs	r1, r0, #1
 316 016a 38BF     		it	cc
 317 016c 0021     		movcc	r1, #0
 318 016e 0B20     		movs	r0, #11
 319              	.LVL44:
 320 0170 FFF7FEFF 		bl	_test_assert
 321              	.LVL45:
 322 0174 0028     		cmp	r0, #0
 323 0176 7FF454AF 		bne	.L4
 324              		.loc 1 205 0
 325 017a DFF8D490 		ldr	r9, .L9+32
 326              		.loc 1 206 0
 327 017e 314C     		ldr	r4, .L9+20
 328              	.LVL46:
 329              		.loc 1 200 0
 330 0180 FFF7FEFF 		bl	test_wait_threads
 331              	.LVL47:
 332              		.loc 1 207 0
 333 0184 4846     		mov	r0, r9
 334 0186 04A9     		add	r1, sp, #16
 335 0188 0122     		movs	r2, #1
 336              		.loc 1 205 0
 337 018a C9F80090 		str	r9, [r9, #0]
 338              		.loc 1 206 0
 339 018e 2460     		str	r4, [r4, #0]
ARM GAS  /tmp/ccWnp1Fj.s 			page 7


 340              		.loc 1 207 0
 341 0190 FFF7FEFF 		bl	chEvtRegisterMask
 342              	.LVL48:
 343              		.loc 1 208 0
 344 0194 08A9     		add	r1, sp, #32
 345 0196 0422     		movs	r2, #4
 346 0198 2046     		mov	r0, r4
 347 019a FFF7FEFF 		bl	chEvtRegisterMask
 348              	.LVL49:
 349              		.loc 1 209 0
 350 019e FFF7FEFF 		bl	test_wait_tick
 351              	.LVL50:
 352              		.loc 1 211 0
 353 01a2 AB69     		ldr	r3, [r5, #24]
 354 01a4 2849     		ldr	r1, .L9+24
 355 01a6 9A68     		ldr	r2, [r3, #8]
 356 01a8 0398     		ldr	r0, [sp, #12]
 357 01aa 0091     		str	r1, [sp, #0]
 358 01ac 013A     		subs	r2, r2, #1
 359 01ae 4FF49871 		mov	r1, #304
 360 01b2 264B     		ldr	r3, .L9+28
 361              		.loc 1 210 0
 362 01b4 FD68     		ldr	r5, [r7, #12]
 363              	.LVL51:
 364              		.loc 1 211 0
 365 01b6 FFF7FEFF 		bl	chThdCreateStatic
 366              	.LVL52:
 367 01ba 3060     		str	r0, [r6, #0]
 368              		.loc 1 213 0
 369 01bc 0520     		movs	r0, #5
 370 01be FFF7FEFF 		bl	chEvtWaitAll
 371              	.LVL53:
 372              		.loc 1 214 0
 373 01c2 0C20     		movs	r0, #12
 374 01c4 05F13201 		add	r1, r5, #50
 375              	.LVL54:
 376 01c8 05F13702 		add	r2, r5, #55
 377 01cc FFF7FEFF 		bl	_test_assert_time_window
 378              	.LVL55:
 379 01d0 0028     		cmp	r0, #0
 380 01d2 7FF426AF 		bne	.L4
 381              		.loc 1 215 0
 382 01d6 4FF0FF30 		mov	r0, #-1
 383 01da FFF7FEFF 		bl	chEvtGetAndClearEvents
 384              	.LVL56:
 385              		.loc 1 216 0
 386 01de D0F10101 		rsbs	r1, r0, #1
 387 01e2 38BF     		it	cc
 388 01e4 0021     		movcc	r1, #0
 389 01e6 0D20     		movs	r0, #13
 390              	.LVL57:
 391 01e8 FFF7FEFF 		bl	_test_assert
 392              	.LVL58:
 393 01ec 0028     		cmp	r0, #0
 394 01ee 7FF418AF 		bne	.L4
 395              		.loc 1 217 0
 396 01f2 FFF7FEFF 		bl	test_wait_threads
ARM GAS  /tmp/ccWnp1Fj.s 			page 8


 397              	.LVL59:
 398              		.loc 1 218 0
 399 01f6 4846     		mov	r0, r9
 400 01f8 04A9     		add	r1, sp, #16
 401 01fa FFF7FEFF 		bl	chEvtUnregister
 402              	.LVL60:
 403              		.loc 1 219 0
 404 01fe 2046     		mov	r0, r4
 405 0200 08A9     		add	r1, sp, #32
 406 0202 FFF7FEFF 		bl	chEvtUnregister
 407              	.LVL61:
 408              		.loc 1 220 0
 409 0206 D9F80010 		ldr	r1, [r9, #0]
 410 020a 0E20     		movs	r0, #14
 411 020c B1EB0902 		subs	r2, r1, r9
 412 0210 5142     		rsbs	r1, r2, #0
 413 0212 5141     		adcs	r1, r1, r2
 414 0214 FFF7FEFF 		bl	_test_assert
 415              	.LVL62:
 416 0218 0028     		cmp	r0, #0
 417 021a 7FF402AF 		bne	.L4
 418              		.loc 1 221 0
 419 021e 2168     		ldr	r1, [r4, #0]
 420 0220 0F20     		movs	r0, #15
 421 0222 0B1B     		subs	r3, r1, r4
 422 0224 5942     		rsbs	r1, r3, #0
 423 0226 5941     		adcs	r1, r1, r3
 424 0228 FFF7FEFF 		bl	_test_assert
 425              	.LVL63:
 426 022c F9E6     		b	.L4
 427              	.L10:
 428 022e 00BF     		.align	2
 429              	.L9:
 430 0230 00000000 		.word	rlist
 431 0234 00000000 		.word	vtlist
 432 0238 00000000 		.word	threads
 433 023c 00000000 		.word	wa
 434 0240 00000000 		.word	thread1
 435 0244 00000000 		.word	.LANCHOR1
 436 0248 00000000 		.word	.LC0
 437 024c 00000000 		.word	thread2
 438 0250 00000000 		.word	.LANCHOR0
 439              		.cfi_endproc
 440              	.LFE15:
 441              		.size	evt2_execute, .-evt2_execute
 442 0254 AFF30080 		.section	.text.thread2,"ax",%progbits
 442      AFF30080 
 442      AFF30080 
 443              		.align	2
 444              		.p2align 4,,15
 445              		.thumb
 446              		.thumb_func
 447              		.type	thread2, %function
 448              	thread2:
 449              	.LFB14:
 450              		.loc 1 140 0
 451              		.cfi_startproc
ARM GAS  /tmp/ccWnp1Fj.s 			page 9


 452              		@ args = 0, pretend = 0, frame = 0
 453              		@ frame_needed = 0, uses_anonymous_args = 0
 454              	.LVL64:
 455 0000 08B5     		push	{r3, lr}
 456              	.LCFI2:
 457              		.cfi_def_cfa_offset 8
 458              		.cfi_offset 3, -8
 459              		.cfi_offset 14, -4
 460              		.loc 1 143 0
 461 0002 0021     		movs	r1, #0
 462 0004 0548     		ldr	r0, .L12
 463              	.LVL65:
 464 0006 FFF7FEFF 		bl	chEvtBroadcastFlags
 465              	.LVL66:
 466              		.loc 1 144 0
 467 000a 3220     		movs	r0, #50
 468 000c FFF7FEFF 		bl	chThdSleep
 469              	.LVL67:
 470              		.loc 1 145 0
 471 0010 0348     		ldr	r0, .L12+4
 472 0012 0021     		movs	r1, #0
 473 0014 FFF7FEFF 		bl	chEvtBroadcastFlags
 474              	.LVL68:
 475              		.loc 1 147 0
 476 0018 0020     		movs	r0, #0
 477 001a 08BD     		pop	{r3, pc}
 478              	.L13:
 479              		.align	2
 480              	.L12:
 481 001c 00000000 		.word	.LANCHOR0
 482 0020 00000000 		.word	.LANCHOR1
 483              		.cfi_endproc
 484              	.LFE14:
 485              		.size	thread2, .-thread2
 486 0024 AFF30080 		.section	.text.thread1,"ax",%progbits
 486      AFF30080 
 486      AFF30080 
 487              		.align	2
 488              		.p2align 4,,15
 489              		.thumb
 490              		.thumb_func
 491              		.type	thread1, %function
 492              	thread1:
 493              	.LFB13:
 494              		.loc 1 133 0
 495              		.cfi_startproc
 496              		@ args = 0, pretend = 0, frame = 0
 497              		@ frame_needed = 0, uses_anonymous_args = 0
 498              	.LVL69:
 499 0000 10B5     		push	{r4, lr}
 500              	.LCFI3:
 501              		.cfi_def_cfa_offset 8
 502              		.cfi_offset 4, -8
 503              		.cfi_offset 14, -4
 504              		.loc 1 133 0
 505 0002 0446     		mov	r4, r0
 506              		.loc 1 135 0
ARM GAS  /tmp/ccWnp1Fj.s 			page 10


 507 0004 3220     		movs	r0, #50
 508              	.LVL70:
 509 0006 FFF7FEFF 		bl	chThdSleep
 510              	.LVL71:
 511              		.loc 1 136 0
 512 000a 2046     		mov	r0, r4
 513 000c 0121     		movs	r1, #1
 514 000e FFF7FEFF 		bl	chEvtSignal
 515              	.LVL72:
 516              		.loc 1 138 0
 517 0012 0020     		movs	r0, #0
 518 0014 10BD     		pop	{r4, pc}
 519              		.cfi_endproc
 520              	.LFE13:
 521              		.size	thread1, .-thread1
 522 0016 00BFAFF3 		.section	.text.evt1_execute,"ax",%progbits
 522      0080AFF3 
 522      0080
 523              		.align	2
 524              		.p2align 4,,15
 525              		.thumb
 526              		.thumb_func
 527              		.type	evt1_execute, %function
 528              	evt1_execute:
 529              	.LFB11:
 530              		.loc 1 85 0
 531              		.cfi_startproc
 532              		@ args = 0, pretend = 0, frame = 32
 533              		@ frame_needed = 0, uses_anonymous_args = 0
 534 0000 10B5     		push	{r4, lr}
 535              	.LCFI4:
 536              		.cfi_def_cfa_offset 8
 537              		.cfi_offset 4, -8
 538              		.cfi_offset 14, -4
 539              		.loc 1 91 0
 540 0002 1E4C     		ldr	r4, .L19
 541              		.loc 1 85 0
 542 0004 88B0     		sub	sp, sp, #32
 543              	.LCFI5:
 544              		.cfi_def_cfa_offset 40
 545              		.loc 1 92 0
 546 0006 0122     		movs	r2, #1
 547 0008 2046     		mov	r0, r4
 548 000a 6946     		mov	r1, sp
 549              		.loc 1 91 0
 550 000c 2460     		str	r4, [r4, #0]
 551              		.loc 1 92 0
 552 000e FFF7FEFF 		bl	chEvtRegisterMask
 553              	.LVL73:
 554              		.loc 1 93 0
 555 0012 2046     		mov	r0, r4
 556 0014 04A9     		add	r1, sp, #16
 557 0016 0222     		movs	r2, #2
 558 0018 FFF7FEFF 		bl	chEvtRegisterMask
 559              	.LVL74:
 560              		.loc 1 94 0
 561 001c 2168     		ldr	r1, [r4, #0]
ARM GAS  /tmp/ccWnp1Fj.s 			page 11


 562 001e 0120     		movs	r0, #1
 563 0020 091B     		subs	r1, r1, r4
 564 0022 18BF     		it	ne
 565 0024 0121     		movne	r1, #1
 566 0026 FFF7FEFF 		bl	_test_assert
 567              	.LVL75:
 568 002a 08B1     		cbz	r0, .L18
 569              	.L15:
 570              		.loc 1 105 0
 571 002c 08B0     		add	sp, sp, #32
 572 002e 10BD     		pop	{r4, pc}
 573              	.L18:
 574              		.loc 1 95 0
 575 0030 2046     		mov	r0, r4
 576 0032 6946     		mov	r1, sp
 577 0034 FFF7FEFF 		bl	chEvtUnregister
 578              	.LVL76:
 579              		.loc 1 96 0
 580 0038 2168     		ldr	r1, [r4, #0]
 581 003a 0220     		movs	r0, #2
 582 003c 091B     		subs	r1, r1, r4
 583 003e 18BF     		it	ne
 584 0040 0121     		movne	r1, #1
 585 0042 FFF7FEFF 		bl	_test_assert
 586              	.LVL77:
 587 0046 0028     		cmp	r0, #0
 588 0048 F0D1     		bne	.L15
 589              		.loc 1 97 0
 590 004a 2046     		mov	r0, r4
 591 004c 04A9     		add	r1, sp, #16
 592 004e FFF7FEFF 		bl	chEvtUnregister
 593              	.LVL78:
 594              		.loc 1 98 0
 595 0052 2168     		ldr	r1, [r4, #0]
 596 0054 0320     		movs	r0, #3
 597 0056 B1EB040E 		subs	lr, r1, r4
 598 005a DEF10001 		rsbs	r1, lr, #0
 599 005e 51EB0E01 		adcs	r1, r1, lr
 600 0062 FFF7FEFF 		bl	_test_assert
 601              	.LVL79:
 602 0066 0028     		cmp	r0, #0
 603 0068 E0D1     		bne	.L15
 604              		.loc 1 103 0
 605 006a 0721     		movs	r1, #7
 606 006c 0448     		ldr	r0, .L19+4
 607 006e FFF7FEFF 		bl	chEvtDispatch
 608              	.LVL80:
 609              		.loc 1 104 0
 610 0072 0420     		movs	r0, #4
 611 0074 0349     		ldr	r1, .L19+8
 612 0076 FFF7FEFF 		bl	_test_assert_sequence
 613              	.LVL81:
 614 007a D7E7     		b	.L15
 615              	.L20:
 616              		.align	2
 617              	.L19:
 618 007c 00000000 		.word	.LANCHOR0
ARM GAS  /tmp/ccWnp1Fj.s 			page 12


 619 0080 00000000 		.word	.LANCHOR2
 620 0084 04000000 		.word	.LC1
 621              		.cfi_endproc
 622              	.LFE11:
 623              		.size	evt1_execute, .-evt1_execute
 624 0088 AFF30080 		.section	.text.h3,"ax",%progbits
 624      AFF30080 
 625              		.align	2
 626              		.p2align 4,,15
 627              		.thumb
 628              		.thumb_func
 629              		.type	h3, %function
 630              	h3:
 631              	.LFB10:
 632              		.loc 1 82 0
 633              		.cfi_startproc
 634              		@ args = 0, pretend = 0, frame = 0
 635              		@ frame_needed = 0, uses_anonymous_args = 0
 636              		@ link register save eliminated.
 637              	.LVL82:
 638              		.loc 1 82 0
 639 0000 4320     		movs	r0, #67
 640              	.LVL83:
 641 0002 FFF7FEBF 		b	test_emit_token
 642              	.LVL84:
 643              		.cfi_endproc
 644              	.LFE10:
 645              		.size	h3, .-h3
 646 0006 00BFAFF3 		.section	.text.h2,"ax",%progbits
 646      0080AFF3 
 646      0080
 647              		.align	2
 648              		.p2align 4,,15
 649              		.thumb
 650              		.thumb_func
 651              		.type	h2, %function
 652              	h2:
 653              	.LFB9:
 654              		.loc 1 81 0
 655              		.cfi_startproc
 656              		@ args = 0, pretend = 0, frame = 0
 657              		@ frame_needed = 0, uses_anonymous_args = 0
 658              		@ link register save eliminated.
 659              	.LVL85:
 660              		.loc 1 81 0
 661 0000 4220     		movs	r0, #66
 662              	.LVL86:
 663 0002 FFF7FEBF 		b	test_emit_token
 664              	.LVL87:
 665              		.cfi_endproc
 666              	.LFE9:
 667              		.size	h2, .-h2
 668 0006 00BFAFF3 		.section	.text.h1,"ax",%progbits
 668      0080AFF3 
 668      0080
 669              		.align	2
 670              		.p2align 4,,15
ARM GAS  /tmp/ccWnp1Fj.s 			page 13


 671              		.thumb
 672              		.thumb_func
 673              		.type	h1, %function
 674              	h1:
 675              	.LFB8:
 676              		.loc 1 80 0
 677              		.cfi_startproc
 678              		@ args = 0, pretend = 0, frame = 0
 679              		@ frame_needed = 0, uses_anonymous_args = 0
 680              		@ link register save eliminated.
 681              	.LVL88:
 682              		.loc 1 80 0
 683 0000 4120     		movs	r0, #65
 684              	.LVL89:
 685 0002 FFF7FEBF 		b	test_emit_token
 686              	.LVL90:
 687              		.cfi_endproc
 688              	.LFE8:
 689              		.size	h1, .-h1
 690 0006 00BFAFF3 		.section	.text.evt3_execute,"ax",%progbits
 690      0080AFF3 
 690      0080
 691              		.align	2
 692              		.p2align 4,,15
 693              		.thumb
 694              		.thumb_func
 695              		.type	evt3_execute, %function
 696              	evt3_execute:
 697              	.LFB17:
 698              		.loc 1 252 0
 699              		.cfi_startproc
 700              		@ args = 0, pretend = 0, frame = 0
 701              		@ frame_needed = 0, uses_anonymous_args = 0
 702 0000 08B5     		push	{r3, lr}
 703              	.LCFI6:
 704              		.cfi_def_cfa_offset 8
 705              		.cfi_offset 3, -8
 706              		.cfi_offset 14, -4
 707              		.loc 1 258 0
 708 0002 0021     		movs	r1, #0
 709 0004 4FF0FF30 		mov	r0, #-1
 710 0008 FFF7FEFF 		bl	chEvtWaitOneTimeout
 711              	.LVL91:
 712              		.loc 1 259 0
 713 000c D0F10101 		rsbs	r1, r0, #1
 714 0010 38BF     		it	cc
 715 0012 0021     		movcc	r1, #0
 716 0014 0120     		movs	r0, #1
 717              	.LVL92:
 718 0016 FFF7FEFF 		bl	_test_assert
 719              	.LVL93:
 720 001a 00B1     		cbz	r0, .L28
 721              	.L24:
 722 001c 08BD     		pop	{r3, pc}
 723              	.L28:
 724              		.loc 1 260 0
 725 001e 0146     		mov	r1, r0
ARM GAS  /tmp/ccWnp1Fj.s 			page 14


 726 0020 4FF0FF30 		mov	r0, #-1
 727 0024 FFF7FEFF 		bl	chEvtWaitAnyTimeout
 728              	.LVL94:
 729              		.loc 1 261 0
 730 0028 D0F10101 		rsbs	r1, r0, #1
 731 002c 38BF     		it	cc
 732 002e 0021     		movcc	r1, #0
 733 0030 0220     		movs	r0, #2
 734              	.LVL95:
 735 0032 FFF7FEFF 		bl	_test_assert
 736              	.LVL96:
 737 0036 0028     		cmp	r0, #0
 738 0038 F0D1     		bne	.L24
 739              		.loc 1 262 0
 740 003a 0146     		mov	r1, r0
 741 003c 4FF0FF30 		mov	r0, #-1
 742 0040 FFF7FEFF 		bl	chEvtWaitAllTimeout
 743              	.LVL97:
 744              		.loc 1 263 0
 745 0044 D0F10101 		rsbs	r1, r0, #1
 746 0048 38BF     		it	cc
 747 004a 0021     		movcc	r1, #0
 748 004c 0320     		movs	r0, #3
 749              	.LVL98:
 750 004e FFF7FEFF 		bl	_test_assert
 751              	.LVL99:
 752 0052 0028     		cmp	r0, #0
 753 0054 E2D1     		bne	.L24
 754              	.LBB4:
 755              	.LBB5:
 756              		.loc 1 264 0
 757 0056 0A21     		movs	r1, #10
 758 0058 4FF0FF30 		mov	r0, #-1
 759 005c FFF7FEFF 		bl	chEvtWaitOneTimeout
 760              	.LVL100:
 761              		.loc 1 265 0
 762 0060 D0F10101 		rsbs	r1, r0, #1
 763 0064 38BF     		it	cc
 764 0066 0021     		movcc	r1, #0
 765 0068 0420     		movs	r0, #4
 766              	.LVL101:
 767 006a FFF7FEFF 		bl	_test_assert
 768              	.LVL102:
 769 006e 0028     		cmp	r0, #0
 770 0070 D4D1     		bne	.L24
 771              		.loc 1 266 0
 772 0072 0A21     		movs	r1, #10
 773 0074 4FF0FF30 		mov	r0, #-1
 774 0078 FFF7FEFF 		bl	chEvtWaitAnyTimeout
 775              	.LVL103:
 776              		.loc 1 267 0
 777 007c D0F10101 		rsbs	r1, r0, #1
 778 0080 38BF     		it	cc
 779 0082 0021     		movcc	r1, #0
 780 0084 0520     		movs	r0, #5
 781              	.LVL104:
 782 0086 FFF7FEFF 		bl	_test_assert
ARM GAS  /tmp/ccWnp1Fj.s 			page 15


 783              	.LVL105:
 784 008a 0028     		cmp	r0, #0
 785 008c C6D1     		bne	.L24
 786              		.loc 1 268 0
 787 008e 0A21     		movs	r1, #10
 788 0090 4FF0FF30 		mov	r0, #-1
 789 0094 FFF7FEFF 		bl	chEvtWaitAllTimeout
 790              	.LVL106:
 791              		.loc 1 269 0
 792 0098 D0F10101 		rsbs	r1, r0, #1
 793 009c 38BF     		it	cc
 794 009e 0021     		movcc	r1, #0
 795 00a0 0620     		movs	r0, #6
 796              	.LVL107:
 797              	.LBE5:
 798              	.LBE4:
 799              		.loc 1 270 0
 800 00a2 BDE80840 		pop	{r3, lr}
 801              	.LBB7:
 802              	.LBB6:
 803              		.loc 1 269 0
 804 00a6 FFF7FEBF 		b	_test_assert
 805              	.LVL108:
 806              	.LBE6:
 807              	.LBE7:
 808              		.cfi_endproc
 809              	.LFE17:
 810              		.size	evt3_execute, .-evt3_execute
 811              		.global	patternevt
 812              		.global	testevt3
 813              		.global	testevt2
 814              		.global	testevt1
 815 00aa 00BFAFF3 		.section	.rodata.patternevt,"a",%progbits
 815      0080
 816              		.align	2
 817              		.type	patternevt, %object
 818              		.size	patternevt, 16
 819              	patternevt:
 820 0000 00000000 		.word	testevt1
 821 0004 00000000 		.word	testevt2
 822 0008 00000000 		.word	testevt3
 823 000c 00000000 		.word	0
 824              		.section	.rodata.testevt2,"a",%progbits
 825              		.align	2
 826              		.type	testevt2, %object
 827              		.size	testevt2, 16
 828              	testevt2:
 829 0000 1C000000 		.word	.LC3
 830 0004 00000000 		.word	evt2_setup
 831 0008 00000000 		.word	0
 832 000c 00000000 		.word	evt2_execute
 833              		.section	.rodata.str1.4,"aMS",%progbits,1
 834              		.align	2
 835              	.LC0:
 836 0000 4100     		.ascii	"A\000"
 837 0002 0000     		.space	2
 838              	.LC1:
ARM GAS  /tmp/ccWnp1Fj.s 			page 16


 839 0004 41424300 		.ascii	"ABC\000"
 840              	.LC2:
 841 0008 4576656E 		.ascii	"Events, timeouts\000"
 841      74732C20 
 841      74696D65 
 841      6F757473 
 841      00
 842 0019 000000   		.space	3
 843              	.LC3:
 844 001c 4576656E 		.ascii	"Events, wait and broadcast\000"
 844      74732C20 
 844      77616974 
 844      20616E64 
 844      2062726F 
 845 0037 00       		.space	1
 846              	.LC4:
 847 0038 4576656E 		.ascii	"Events, registration and dispatch\000"
 847      74732C20 
 847      72656769 
 847      73747261 
 847      74696F6E 
 848 005a 0000     		.section	.rodata.testevt1,"a",%progbits
 849              		.align	2
 850              		.type	testevt1, %object
 851              		.size	testevt1, 16
 852              	testevt1:
 853 0000 38000000 		.word	.LC4
 854 0004 00000000 		.word	evt1_setup
 855 0008 00000000 		.word	0
 856 000c 00000000 		.word	evt1_execute
 857              		.section	.rodata.evhndl,"a",%progbits
 858              		.align	2
 859              		.set	.LANCHOR2,. + 0
 860              		.type	evhndl, %object
 861              		.size	evhndl, 12
 862              	evhndl:
 863 0000 00000000 		.word	h1
 864 0004 00000000 		.word	h2
 865 0008 00000000 		.word	h3
 866              		.section	.rodata.testevt3,"a",%progbits
 867              		.align	2
 868              		.type	testevt3, %object
 869              		.size	testevt3, 16
 870              	testevt3:
 871 0000 08000000 		.word	.LC2
 872 0004 00000000 		.word	evt3_setup
 873 0008 00000000 		.word	0
 874 000c 00000000 		.word	evt3_execute
 875              		.section	.data.es1,"aw",%progbits
 876              		.align	2
 877              		.set	.LANCHOR0,. + 0
 878              		.type	es1, %object
 879              		.size	es1, 4
 880              	es1:
 881 0000 00000000 		.word	es1
 882              		.section	.data.es2,"aw",%progbits
 883              		.align	2
ARM GAS  /tmp/ccWnp1Fj.s 			page 17


 884              		.set	.LANCHOR1,. + 0
 885              		.type	es2, %object
 886              		.size	es2, 4
 887              	es2:
 888 0000 00000000 		.word	es2
 889              		.text
 890              	.Letext0:
 891              		.file 2 "/home/dpeter/CodeSourcery/Sourcery_CodeBench_Lite_for_ARM_EABI/bin/../lib/gcc/arm-none-ea
 892              		.file 3 "/home/dpeter/CodeSourcery/Sourcery_CodeBench_Lite_for_ARM_EABI/bin/../lib/gcc/arm-none-ea
 893              		.file 4 "/home/dpeter/devel/sources/ChibiOS-RT/os/ports/GCC/ARMCMx/chtypes.h"
 894              		.file 5 "/home/dpeter/devel/sources/ChibiOS-RT/os/kernel/include/chlists.h"
 895              		.file 6 "/home/dpeter/devel/sources/ChibiOS-RT/os/kernel/include/chthreads.h"
 896              		.file 7 "/home/dpeter/devel/sources/ChibiOS-RT/os/ports/GCC/ARMCMx/chcore_v7m.h"
 897              		.file 8 "/home/dpeter/devel/sources/ChibiOS-RT/os/kernel/include/chvt.h"
 898              		.file 9 "/home/dpeter/devel/sources/ChibiOS-RT/os/kernel/include/chschd.h"
 899              		.file 10 "/home/dpeter/devel/sources/ChibiOS-RT/os/kernel/include/chmtx.h"
 900              		.file 11 "/home/dpeter/devel/sources/ChibiOS-RT/os/kernel/include/chevents.h"
 901              		.file 12 "/home/dpeter/devel/sources/ChibiOS-RT/test/test.h"