ARM GAS  /tmp/cc3Dq9HF.s 			page 1


   1              		.syntax unified
   2              		.cpu cortex-m4
   3              		.fpu softvfp
   4              		.eabi_attribute 20, 1
   5              		.eabi_attribute 21, 1
   6              		.eabi_attribute 23, 3
   7              		.eabi_attribute 24, 1
   8              		.eabi_attribute 25, 1
   9              		.eabi_attribute 26, 1
  10              		.eabi_attribute 30, 2
  11              		.eabi_attribute 34, 1
  12              		.eabi_attribute 18, 4
  13              		.thumb
  14              		.file	"testbmk.c"
  15              		.text
  16              	.Ltext0:
  17              		.cfi_sections	.debug_frame
  18              		.section	.text.thread2,"ax",%progbits
  19              		.align	2
  20              		.p2align 4,,15
  21              		.thumb
  22              		.thumb_func
  23              		.type	thread2, %function
  24              	thread2:
  25              	.LFB11:
  26              		.file 1 "/home/dpeter/devel/sources/ChibiOS-RT/test/testbmk.c"
  27              		.loc 1 154 0
  28              		.cfi_startproc
  29              		@ args = 0, pretend = 0, frame = 0
  30              		@ frame_needed = 0, uses_anonymous_args = 0
  31              		@ link register save eliminated.
  32              	.LVL0:
  33              		.loc 1 157 0
  34 0000 7047     		bx	lr
  35              		.cfi_endproc
  36              	.LFE11:
  37              		.size	thread2, .-thread2
  38 0002 00BFAFF3 		.section	.text.tmo,"ax",%progbits
  38      0080AFF3 
  38      0080AFF3 
  38      0080
  39              		.align	2
  40              		.p2align 4,,15
  41              		.thumb
  42              		.thumb_func
  43              		.type	tmo, %function
  44              	tmo:
  45              	.LFB23:
  46              		.loc 1 502 0
  47              		.cfi_startproc
  48              		@ args = 0, pretend = 0, frame = 0
  49              		@ frame_needed = 0, uses_anonymous_args = 0
  50              		@ link register save eliminated.
  51              	.LVL1:
  52 0000 7047     		bx	lr
  53              		.cfi_endproc
  54              	.LFE23:
ARM GAS  /tmp/cc3Dq9HF.s 			page 2


  55              		.size	tmo, .-tmo
  56 0002 00BFAFF3 		.section	.text.bmk13_execute,"ax",%progbits
  56      0080AFF3 
  56      0080AFF3 
  56      0080
  57              		.align	2
  58              		.p2align 4,,15
  59              		.thumb
  60              		.thumb_func
  61              		.type	bmk13_execute, %function
  62              	bmk13_execute:
  63              	.LFB29:
  64              		.loc 1 637 0
  65              		.cfi_startproc
  66              		@ args = 0, pretend = 0, frame = 0
  67              		@ frame_needed = 0, uses_anonymous_args = 0
  68              		.loc 1 637 0
  69 0000 10B5     		push	{r4, lr}
  70              	.LCFI0:
  71              		.cfi_def_cfa_offset 8
  72              		.cfi_offset 4, -8
  73              		.cfi_offset 14, -4
  74              		.loc 1 639 0
  75 0002 2F48     		ldr	r0, .L4
  76              		.loc 1 645 0
  77 0004 2F4C     		ldr	r4, .L4+4
  78              		.loc 1 639 0
  79 0006 FFF7FEFF 		bl	test_print
  80              	.LVL2:
  81              		.loc 1 640 0
  82 000a 4FF4CA70 		mov	r0, #404
  83 000e FFF7FEFF 		bl	test_printn
  84              	.LVL3:
  85              		.loc 1 645 0
  86 0012 2046     		mov	r0, r4
  87 0014 FFF7FEFF 		bl	test_println
  88              	.LVL4:
  89              		.loc 1 646 0
  90 0018 2B48     		ldr	r0, .L4+8
  91 001a FFF7FEFF 		bl	test_print
  92              	.LVL5:
  93              		.loc 1 647 0
  94 001e 4820     		movs	r0, #72
  95 0020 FFF7FEFF 		bl	test_printn
  96              	.LVL6:
  97              		.loc 1 648 0
  98 0024 2046     		mov	r0, r4
  99 0026 FFF7FEFF 		bl	test_println
 100              	.LVL7:
 101              		.loc 1 649 0
 102 002a 2848     		ldr	r0, .L4+12
 103 002c FFF7FEFF 		bl	test_print
 104              	.LVL8:
 105              		.loc 1 650 0
 106 0030 1420     		movs	r0, #20
 107 0032 FFF7FEFF 		bl	test_printn
 108              	.LVL9:
ARM GAS  /tmp/cc3Dq9HF.s 			page 3


 109              		.loc 1 651 0
 110 0036 2046     		mov	r0, r4
 111 0038 FFF7FEFF 		bl	test_println
 112              	.LVL10:
 113              		.loc 1 653 0
 114 003c 2448     		ldr	r0, .L4+16
 115 003e FFF7FEFF 		bl	test_print
 116              	.LVL11:
 117              		.loc 1 654 0
 118 0042 0C20     		movs	r0, #12
 119 0044 FFF7FEFF 		bl	test_printn
 120              	.LVL12:
 121              		.loc 1 655 0
 122 0048 2046     		mov	r0, r4
 123 004a FFF7FEFF 		bl	test_println
 124              	.LVL13:
 125              		.loc 1 658 0
 126 004e 2148     		ldr	r0, .L4+20
 127 0050 FFF7FEFF 		bl	test_print
 128              	.LVL14:
 129              		.loc 1 659 0
 130 0054 0420     		movs	r0, #4
 131 0056 FFF7FEFF 		bl	test_printn
 132              	.LVL15:
 133              		.loc 1 660 0
 134 005a 2046     		mov	r0, r4
 135 005c FFF7FEFF 		bl	test_println
 136              	.LVL16:
 137              		.loc 1 661 0
 138 0060 1D48     		ldr	r0, .L4+24
 139 0062 FFF7FEFF 		bl	test_print
 140              	.LVL17:
 141              		.loc 1 662 0
 142 0066 1020     		movs	r0, #16
 143 0068 FFF7FEFF 		bl	test_printn
 144              	.LVL18:
 145              		.loc 1 663 0
 146 006c 2046     		mov	r0, r4
 147 006e FFF7FEFF 		bl	test_println
 148              	.LVL19:
 149              		.loc 1 666 0
 150 0072 1A48     		ldr	r0, .L4+28
 151 0074 FFF7FEFF 		bl	test_print
 152              	.LVL20:
 153              		.loc 1 667 0
 154 0078 1020     		movs	r0, #16
 155 007a FFF7FEFF 		bl	test_printn
 156              	.LVL21:
 157              		.loc 1 668 0
 158 007e 2046     		mov	r0, r4
 159 0080 FFF7FEFF 		bl	test_println
 160              	.LVL22:
 161              		.loc 1 671 0
 162 0084 1648     		ldr	r0, .L4+32
 163 0086 FFF7FEFF 		bl	test_print
 164              	.LVL23:
 165              		.loc 1 672 0
ARM GAS  /tmp/cc3Dq9HF.s 			page 4


 166 008a 0820     		movs	r0, #8
 167 008c FFF7FEFF 		bl	test_printn
 168              	.LVL24:
 169              		.loc 1 673 0
 170 0090 2046     		mov	r0, r4
 171 0092 FFF7FEFF 		bl	test_println
 172              	.LVL25:
 173              		.loc 1 676 0
 174 0096 1348     		ldr	r0, .L4+36
 175 0098 FFF7FEFF 		bl	test_print
 176              	.LVL26:
 177              		.loc 1 677 0
 178 009c 2420     		movs	r0, #36
 179 009e FFF7FEFF 		bl	test_printn
 180              	.LVL27:
 181              		.loc 1 678 0
 182 00a2 2046     		mov	r0, r4
 183 00a4 FFF7FEFF 		bl	test_println
 184              	.LVL28:
 185              		.loc 1 681 0
 186 00a8 0F48     		ldr	r0, .L4+40
 187 00aa FFF7FEFF 		bl	test_print
 188              	.LVL29:
 189              		.loc 1 682 0
 190 00ae 2820     		movs	r0, #40
 191 00b0 FFF7FEFF 		bl	test_printn
 192              	.LVL30:
 193              		.loc 1 683 0
 194 00b4 2046     		mov	r0, r4
 195              		.loc 1 685 0
 196 00b6 BDE81040 		pop	{r4, lr}
 197              		.loc 1 683 0
 198 00ba FFF7FEBF 		b	test_println
 199              	.LVL31:
 200              	.L5:
 201 00be 00BF     		.align	2
 202              	.L4:
 203 00c0 00000000 		.word	.LC0
 204 00c4 10000000 		.word	.LC1
 205 00c8 18000000 		.word	.LC2
 206 00cc 28000000 		.word	.LC3
 207 00d0 38000000 		.word	.LC4
 208 00d4 48000000 		.word	.LC5
 209 00d8 58000000 		.word	.LC6
 210 00dc 68000000 		.word	.LC7
 211 00e0 78000000 		.word	.LC8
 212 00e4 88000000 		.word	.LC9
 213 00e8 98000000 		.word	.LC10
 214              		.cfi_endproc
 215              	.LFE29:
 216              		.size	bmk13_execute, .-bmk13_execute
 217 00ec AFF30080 		.section	.text.bmk12_execute,"ax",%progbits
 218              		.align	2
 219              		.p2align 4,,15
 220              		.thumb
 221              		.thumb_func
 222              		.type	bmk12_execute, %function
ARM GAS  /tmp/cc3Dq9HF.s 			page 5


 223              	bmk12_execute:
 224              	.LFB28:
 225              		.loc 1 598 0
 226              		.cfi_startproc
 227              		@ args = 0, pretend = 0, frame = 0
 228              		@ frame_needed = 0, uses_anonymous_args = 0
 229              	.LVL32:
 230 0000 38B5     		push	{r3, r4, r5, lr}
 231              	.LCFI1:
 232              		.cfi_def_cfa_offset 16
 233              		.cfi_offset 3, -16
 234              		.cfi_offset 4, -12
 235              		.cfi_offset 5, -8
 236              		.cfi_offset 14, -4
 237              		.loc 1 601 0
 238 0002 FFF7FEFF 		bl	test_wait_tick
 239              	.LVL33:
 240              		.loc 1 602 0
 241 0006 4FF47A70 		mov	r0, #1000
 242 000a FFF7FEFF 		bl	test_start_timer
 243              	.LVL34:
 244 000e 124D     		ldr	r5, .L13
 245              		.loc 1 599 0
 246 0010 0024     		movs	r4, #0
 247              	.LVL35:
 248              	.L7:
 249              		.loc 1 604 0 discriminator 1
 250 0012 1248     		ldr	r0, .L13+4
 251 0014 FFF7FEFF 		bl	chMtxLock
 252              	.LVL36:
 253              		.loc 1 605 0 discriminator 1
 254 0018 FFF7FEFF 		bl	chMtxUnlock
 255              	.LVL37:
 256              		.loc 1 606 0 discriminator 1
 257 001c 0F48     		ldr	r0, .L13+4
 258 001e FFF7FEFF 		bl	chMtxLock
 259              	.LVL38:
 260              		.loc 1 607 0 discriminator 1
 261 0022 FFF7FEFF 		bl	chMtxUnlock
 262              	.LVL39:
 263              		.loc 1 608 0 discriminator 1
 264 0026 0D48     		ldr	r0, .L13+4
 265 0028 FFF7FEFF 		bl	chMtxLock
 266              	.LVL40:
 267              		.loc 1 609 0 discriminator 1
 268 002c FFF7FEFF 		bl	chMtxUnlock
 269              	.LVL41:
 270              		.loc 1 610 0 discriminator 1
 271 0030 0A48     		ldr	r0, .L13+4
 272 0032 FFF7FEFF 		bl	chMtxLock
 273              	.LVL42:
 274              		.loc 1 611 0 discriminator 1
 275 0036 FFF7FEFF 		bl	chMtxUnlock
 276              	.LVL43:
 277              		.loc 1 616 0 discriminator 1
 278 003a 2B78     		ldrb	r3, [r5, #0]	@ zero_extendqisi2
 279              		.loc 1 612 0 discriminator 1
ARM GAS  /tmp/cc3Dq9HF.s 			page 6


 280 003c 0134     		adds	r4, r4, #1
 281              	.LVL44:
 282              		.loc 1 616 0 discriminator 1
 283 003e 002B     		cmp	r3, #0
 284 0040 E7D0     		beq	.L7
 285              		.loc 1 617 0
 286 0042 0748     		ldr	r0, .L13+8
 287 0044 FFF7FEFF 		bl	test_print
 288              	.LVL45:
 289              		.loc 1 618 0
 290 0048 A000     		lsls	r0, r4, #2
 291 004a FFF7FEFF 		bl	test_printn
 292              	.LVL46:
 293              		.loc 1 619 0
 294 004e 0548     		ldr	r0, .L13+12
 295              		.loc 1 620 0
 296 0050 BDE83840 		pop	{r3, r4, r5, lr}
 297              		.loc 1 619 0
 298 0054 FFF7FEBF 		b	test_println
 299              	.LVL47:
 300              	.L14:
 301              		.align	2
 302              	.L13:
 303 0058 00000000 		.word	test_timer_done
 304 005c 00000000 		.word	.LANCHOR0
 305 0060 A8000000 		.word	.LC11
 306 0064 B8000000 		.word	.LC12
 307              		.cfi_endproc
 308              	.LFE28:
 309              		.size	bmk12_execute, .-bmk12_execute
 310 0068 AFF30080 		.section	.text.bmk12_setup,"ax",%progbits
 310      AFF30080 
 311              		.align	2
 312              		.p2align 4,,15
 313              		.thumb
 314              		.thumb_func
 315              		.type	bmk12_setup, %function
 316              	bmk12_setup:
 317              	.LFB27:
 318              		.loc 1 593 0
 319              		.cfi_startproc
 320              		@ args = 0, pretend = 0, frame = 0
 321              		@ frame_needed = 0, uses_anonymous_args = 0
 322              		@ link register save eliminated.
 323              		.loc 1 595 0
 324 0000 0148     		ldr	r0, .L16
 325              		.loc 1 596 0
 326              		.loc 1 595 0
 327 0002 FFF7FEBF 		b	chMtxInit
 328              	.LVL48:
 329              	.L17:
 330 0006 00BF     		.align	2
 331              	.L16:
 332 0008 00000000 		.word	.LANCHOR0
 333              		.cfi_endproc
 334              	.LFE27:
 335              		.size	bmk12_setup, .-bmk12_setup
ARM GAS  /tmp/cc3Dq9HF.s 			page 7


 336 000c AFF30080 		.section	.text.thread3,"ax",%progbits
 337              		.align	2
 338              		.p2align 4,,15
 339              		.thumb
 340              		.thumb_func
 341              		.type	thread3, %function
 342              	thread3:
 343              	.LFB17:
 344              		.loc 1 341 0
 345              		.cfi_startproc
 346              		@ args = 0, pretend = 0, frame = 0
 347              		@ frame_needed = 0, uses_anonymous_args = 0
 348              	.LVL49:
 349 0000 10B5     		push	{r4, lr}
 350              	.LCFI2:
 351              		.cfi_def_cfa_offset 8
 352              		.cfi_offset 4, -8
 353              		.cfi_offset 14, -4
 354              		.loc 1 344 0
 355 0002 074C     		ldr	r4, .L31
 356 0004 02E0     		b	.L29
 357              	.LVL50:
 358              	.L30:
 359              		.loc 1 345 0
 360 0006 0748     		ldr	r0, .L31+4
 361 0008 FFF7FEFF 		bl	chSemWait
 362              	.LVL51:
 363              	.L29:
 364              		.loc 1 344 0
 365 000c A369     		ldr	r3, [r4, #24]
 366 000e 5B7F     		ldrb	r3, [r3, #29]	@ zero_extendqisi2
 367 0010 03F00403 		and	r3, r3, #4
 368 0014 DBB2     		uxtb	r3, r3
 369 0016 002B     		cmp	r3, #0
 370 0018 F5D0     		beq	.L30
 371              		.loc 1 347 0
 372 001a 0020     		movs	r0, #0
 373 001c 10BD     		pop	{r4, pc}
 374              	.L32:
 375 001e 00BF     		.align	2
 376              	.L31:
 377 0020 00000000 		.word	rlist
 378 0024 00000000 		.word	.LANCHOR1
 379              		.cfi_endproc
 380              	.LFE17:
 381              		.size	thread3, .-thread3
 382 0028 AFF30080 		.section	.text.bmk11_execute,"ax",%progbits
 382      AFF30080 
 383              		.align	2
 384              		.p2align 4,,15
 385              		.thumb
 386              		.thumb_func
 387              		.type	bmk11_execute, %function
 388              	bmk11_execute:
 389              	.LFB26:
 390              		.loc 1 550 0
 391              		.cfi_startproc
ARM GAS  /tmp/cc3Dq9HF.s 			page 8


 392              		@ args = 0, pretend = 0, frame = 0
 393              		@ frame_needed = 0, uses_anonymous_args = 0
 394              	.LVL52:
 395 0000 38B5     		push	{r3, r4, r5, lr}
 396              	.LCFI3:
 397              		.cfi_def_cfa_offset 16
 398              		.cfi_offset 3, -16
 399              		.cfi_offset 4, -12
 400              		.cfi_offset 5, -8
 401              		.cfi_offset 14, -4
 402              		.loc 1 553 0
 403 0002 FFF7FEFF 		bl	test_wait_tick
 404              	.LVL53:
 405              		.loc 1 554 0
 406 0006 4FF47A70 		mov	r0, #1000
 407 000a FFF7FEFF 		bl	test_start_timer
 408              	.LVL54:
 409 000e 144D     		ldr	r5, .L39
 410              		.loc 1 551 0
 411 0010 0024     		movs	r4, #0
 412              	.LVL55:
 413              	.L34:
 414              		.loc 1 556 0 discriminator 1
 415 0012 1448     		ldr	r0, .L39+4
 416 0014 FFF7FEFF 		bl	chSemWait
 417              	.LVL56:
 418              		.loc 1 557 0 discriminator 1
 419 0018 1248     		ldr	r0, .L39+4
 420 001a FFF7FEFF 		bl	chSemSignal
 421              	.LVL57:
 422              		.loc 1 558 0 discriminator 1
 423 001e 1148     		ldr	r0, .L39+4
 424 0020 FFF7FEFF 		bl	chSemWait
 425              	.LVL58:
 426              		.loc 1 559 0 discriminator 1
 427 0024 0F48     		ldr	r0, .L39+4
 428 0026 FFF7FEFF 		bl	chSemSignal
 429              	.LVL59:
 430              		.loc 1 560 0 discriminator 1
 431 002a 0E48     		ldr	r0, .L39+4
 432 002c FFF7FEFF 		bl	chSemWait
 433              	.LVL60:
 434              		.loc 1 561 0 discriminator 1
 435 0030 0C48     		ldr	r0, .L39+4
 436 0032 FFF7FEFF 		bl	chSemSignal
 437              	.LVL61:
 438              		.loc 1 562 0 discriminator 1
 439 0036 0B48     		ldr	r0, .L39+4
 440 0038 FFF7FEFF 		bl	chSemWait
 441              	.LVL62:
 442              		.loc 1 563 0 discriminator 1
 443 003c 0948     		ldr	r0, .L39+4
 444 003e FFF7FEFF 		bl	chSemSignal
 445              	.LVL63:
 446              		.loc 1 568 0 discriminator 1
 447 0042 2B78     		ldrb	r3, [r5, #0]	@ zero_extendqisi2
 448              		.loc 1 564 0 discriminator 1
ARM GAS  /tmp/cc3Dq9HF.s 			page 9


 449 0044 0134     		adds	r4, r4, #1
 450              	.LVL64:
 451              		.loc 1 568 0 discriminator 1
 452 0046 002B     		cmp	r3, #0
 453 0048 E3D0     		beq	.L34
 454              		.loc 1 569 0
 455 004a 0748     		ldr	r0, .L39+8
 456 004c FFF7FEFF 		bl	test_print
 457              	.LVL65:
 458              		.loc 1 570 0
 459 0050 A000     		lsls	r0, r4, #2
 460 0052 FFF7FEFF 		bl	test_printn
 461              	.LVL66:
 462              		.loc 1 571 0
 463 0056 0548     		ldr	r0, .L39+12
 464              		.loc 1 572 0
 465 0058 BDE83840 		pop	{r3, r4, r5, lr}
 466              		.loc 1 571 0
 467 005c FFF7FEBF 		b	test_println
 468              	.LVL67:
 469              	.L40:
 470              		.align	2
 471              	.L39:
 472 0060 00000000 		.word	test_timer_done
 473 0064 00000000 		.word	.LANCHOR1
 474 0068 A8000000 		.word	.LC11
 475 006c C8000000 		.word	.LC13
 476              		.cfi_endproc
 477              	.LFE26:
 478              		.size	bmk11_execute, .-bmk11_execute
 479              		.section	.text.bmk11_setup,"ax",%progbits
 480              		.align	2
 481              		.p2align 4,,15
 482              		.thumb
 483              		.thumb_func
 484              		.type	bmk11_setup, %function
 485              	bmk11_setup:
 486              	.LFB25:
 487              		.loc 1 545 0
 488              		.cfi_startproc
 489              		@ args = 0, pretend = 0, frame = 0
 490              		@ frame_needed = 0, uses_anonymous_args = 0
 491              		@ link register save eliminated.
 492              		.loc 1 547 0
 493 0000 0148     		ldr	r0, .L42
 494 0002 0121     		movs	r1, #1
 495              		.loc 1 548 0
 496              		.loc 1 547 0
 497 0004 FFF7FEBF 		b	chSemInit
 498              	.LVL68:
 499              	.L43:
 500              		.align	2
 501              	.L42:
 502 0008 00000000 		.word	.LANCHOR1
 503              		.cfi_endproc
 504              	.LFE25:
 505              		.size	bmk11_setup, .-bmk11_setup
ARM GAS  /tmp/cc3Dq9HF.s 			page 10


 506 000c AFF30080 		.section	.text.bmk7_setup,"ax",%progbits
 507              		.align	2
 508              		.p2align 4,,15
 509              		.thumb
 510              		.thumb_func
 511              		.type	bmk7_setup, %function
 512              	bmk7_setup:
 513              	.LFB18:
 514              		.loc 1 349 0
 515              		.cfi_startproc
 516              		@ args = 0, pretend = 0, frame = 0
 517              		@ frame_needed = 0, uses_anonymous_args = 0
 518              		@ link register save eliminated.
 519              		.loc 1 351 0
 520 0000 0148     		ldr	r0, .L45
 521 0002 0021     		movs	r1, #0
 522              		.loc 1 352 0
 523              		.loc 1 351 0
 524 0004 FFF7FEBF 		b	chSemInit
 525              	.LVL69:
 526              	.L46:
 527              		.align	2
 528              	.L45:
 529 0008 00000000 		.word	.LANCHOR1
 530              		.cfi_endproc
 531              	.LFE18:
 532              		.size	bmk7_setup, .-bmk7_setup
 533 000c AFF30080 		.section	.text.bmk10_execute,"ax",%progbits
 534              		.align	2
 535              		.p2align 4,,15
 536              		.thumb
 537              		.thumb_func
 538              		.type	bmk10_execute, %function
 539              	bmk10_execute:
 540              	.LFB24:
 541              		.loc 1 504 0
 542              		.cfi_startproc
 543              		@ args = 0, pretend = 0, frame = 0
 544              		@ frame_needed = 0, uses_anonymous_args = 0
 545              	.LVL70:
 546 0000 38B5     		push	{r3, r4, r5, lr}
 547              	.LCFI4:
 548              		.cfi_def_cfa_offset 16
 549              		.cfi_offset 3, -16
 550              		.cfi_offset 4, -12
 551              		.cfi_offset 5, -8
 552              		.cfi_offset 14, -4
 553              		.loc 1 508 0
 554 0002 FFF7FEFF 		bl	test_wait_tick
 555              	.LVL71:
 556              		.loc 1 509 0
 557 0006 4FF47A70 		mov	r0, #1000
 558 000a FFF7FEFF 		bl	test_start_timer
 559              	.LVL72:
 560 000e 154D     		ldr	r5, .L53
 561              		.loc 1 506 0
 562 0010 0024     		movs	r4, #0
ARM GAS  /tmp/cc3Dq9HF.s 			page 11


 563              	.LVL73:
 564              	.L48:
 565              	.LBB2:
 566              		.loc 1 511 0 discriminator 1
 567 0012 2023     		movs	r3, #32
 568              	.LVL74:
 569              	@ 511 "/home/dpeter/devel/sources/ChibiOS-RT/test/testbmk.c" 1
 570 0014 83F31188 		msr     BASEPRI, r3
 571              	@ 0 "" 2
 572              	.LVL75:
 573              		.thumb
 574              	.LBE2:
 575              		.loc 1 512 0 discriminator 1
 576 0018 0121     		movs	r1, #1
 577 001a 0023     		movs	r3, #0
 578              	.LVL76:
 579 001c 1248     		ldr	r0, .L53+4
 580 001e 134A     		ldr	r2, .L53+8
 581 0020 FFF7FEFF 		bl	chVTSetI
 582              	.LVL77:
 583              		.loc 1 513 0 discriminator 1
 584 0024 0023     		movs	r3, #0
 585 0026 42F21071 		movw	r1, #10000
 586 002a 104A     		ldr	r2, .L53+8
 587 002c 1048     		ldr	r0, .L53+12
 588 002e FFF7FEFF 		bl	chVTSetI
 589              	.LVL78:
 590              		.loc 1 514 0 discriminator 1
 591 0032 0D48     		ldr	r0, .L53+4
 592 0034 FFF7FEFF 		bl	chVTResetI
 593              	.LVL79:
 594              		.loc 1 515 0 discriminator 1
 595 0038 0D48     		ldr	r0, .L53+12
 596 003a FFF7FEFF 		bl	chVTResetI
 597              	.LVL80:
 598              	.LBB3:
 599              		.loc 1 516 0 discriminator 1
 600 003e 0023     		movs	r3, #0
 601              	.LVL81:
 602              	@ 516 "/home/dpeter/devel/sources/ChibiOS-RT/test/testbmk.c" 1
 603 0040 83F31188 		msr     BASEPRI, r3
 604              	@ 0 "" 2
 605              	.LVL82:
 606              		.thumb
 607              	.LBE3:
 608              		.loc 1 521 0 discriminator 1
 609 0044 2B78     		ldrb	r3, [r5, #0]	@ zero_extendqisi2
 610              	.LVL83:
 611              		.loc 1 517 0 discriminator 1
 612 0046 0134     		adds	r4, r4, #1
 613              	.LVL84:
 614              		.loc 1 521 0 discriminator 1
 615 0048 002B     		cmp	r3, #0
 616 004a E2D0     		beq	.L48
 617              		.loc 1 522 0
 618 004c 0948     		ldr	r0, .L53+16
 619 004e FFF7FEFF 		bl	test_print
ARM GAS  /tmp/cc3Dq9HF.s 			page 12


 620              	.LVL85:
 621              		.loc 1 523 0
 622 0052 6000     		lsls	r0, r4, #1
 623 0054 FFF7FEFF 		bl	test_printn
 624              	.LVL86:
 625              		.loc 1 524 0
 626 0058 0748     		ldr	r0, .L53+20
 627              		.loc 1 525 0
 628 005a BDE83840 		pop	{r3, r4, r5, lr}
 629              		.loc 1 524 0
 630 005e FFF7FEBF 		b	test_println
 631              	.LVL87:
 632              	.L54:
 633 0062 00BF     		.align	2
 634              	.L53:
 635 0064 00000000 		.word	test_timer_done
 636 0068 00000000 		.word	.LANCHOR2
 637 006c 00000000 		.word	tmo
 638 0070 00000000 		.word	.LANCHOR3
 639 0074 A8000000 		.word	.LC11
 640 0078 D8000000 		.word	.LC14
 641              		.cfi_endproc
 642              	.LFE24:
 643              		.size	bmk10_execute, .-bmk10_execute
 644 007c AFF30080 		.section	.text.bmk9_execute,"ax",%progbits
 645              		.align	2
 646              		.p2align 4,,15
 647              		.thumb
 648              		.thumb_func
 649              		.type	bmk9_execute, %function
 650              	bmk9_execute:
 651              	.LFB22:
 652              		.loc 1 455 0
 653              		.cfi_startproc
 654              		@ args = 0, pretend = 0, frame = 0
 655              		@ frame_needed = 0, uses_anonymous_args = 0
 656 0000 30B5     		push	{r4, r5, lr}
 657              	.LCFI5:
 658              		.cfi_def_cfa_offset 12
 659              		.cfi_offset 4, -12
 660              		.cfi_offset 5, -8
 661              		.cfi_offset 14, -4
 662 0002 83B0     		sub	sp, sp, #12
 663              	.LCFI6:
 664              		.cfi_def_cfa_offset 24
 665              		.loc 1 460 0
 666 0004 0024     		movs	r4, #0
 667 0006 2449     		ldr	r1, .L61
 668 0008 2448     		ldr	r0, .L61+4
 669 000a 0094     		str	r4, [sp, #0]
 670 000c 1022     		movs	r2, #16
 671 000e 2346     		mov	r3, r4
 672 0010 FFF7FEFF 		bl	chIQInit
 673              	.LVL88:
 674              		.loc 1 462 0
 675 0014 FFF7FEFF 		bl	test_wait_tick
 676              	.LVL89:
ARM GAS  /tmp/cc3Dq9HF.s 			page 13


 677              		.loc 1 463 0
 678 0018 4FF47A70 		mov	r0, #1000
 679 001c FFF7FEFF 		bl	test_start_timer
 680              	.LVL90:
 681 0020 1F4D     		ldr	r5, .L61+8
 682              	.LVL91:
 683              	.L56:
 684              	.LBB4:
 685              		.loc 1 465 0 discriminator 1
 686 0022 2023     		movs	r3, #32
 687              	.LVL92:
 688              	@ 465 "/home/dpeter/devel/sources/ChibiOS-RT/test/testbmk.c" 1
 689 0024 83F31188 		msr     BASEPRI, r3
 690              	@ 0 "" 2
 691              	.LVL93:
 692              		.thumb
 693              	.LBE4:
 694              		.loc 1 466 0 discriminator 1
 695 0028 0021     		movs	r1, #0
 696 002a 1C48     		ldr	r0, .L61+4
 697 002c FFF7FEFF 		bl	chIQPutI
 698              	.LVL94:
 699              		.loc 1 467 0 discriminator 1
 700 0030 0121     		movs	r1, #1
 701 0032 1A48     		ldr	r0, .L61+4
 702 0034 FFF7FEFF 		bl	chIQPutI
 703              	.LVL95:
 704              		.loc 1 468 0 discriminator 1
 705 0038 0221     		movs	r1, #2
 706 003a 1848     		ldr	r0, .L61+4
 707 003c FFF7FEFF 		bl	chIQPutI
 708              	.LVL96:
 709              		.loc 1 469 0 discriminator 1
 710 0040 0321     		movs	r1, #3
 711 0042 1648     		ldr	r0, .L61+4
 712 0044 FFF7FEFF 		bl	chIQPutI
 713              	.LVL97:
 714              	.LBB5:
 715              		.loc 1 470 0 discriminator 1
 716 0048 0023     		movs	r3, #0
 717              	.LVL98:
 718              	@ 470 "/home/dpeter/devel/sources/ChibiOS-RT/test/testbmk.c" 1
 719 004a 83F31188 		msr     BASEPRI, r3
 720              	@ 0 "" 2
 721              	.LVL99:
 722              		.thumb
 723              	.LBE5:
 724              		.loc 1 471 0 discriminator 1
 725 004e 4FF0FF31 		mov	r1, #-1
 726 0052 1248     		ldr	r0, .L61+4
 727 0054 FFF7FEFF 		bl	chIQGetTimeout
 728              	.LVL100:
 729              		.loc 1 472 0 discriminator 1
 730 0058 4FF0FF31 		mov	r1, #-1
 731 005c 0F48     		ldr	r0, .L61+4
 732 005e FFF7FEFF 		bl	chIQGetTimeout
 733              	.LVL101:
ARM GAS  /tmp/cc3Dq9HF.s 			page 14


 734              		.loc 1 473 0 discriminator 1
 735 0062 4FF0FF31 		mov	r1, #-1
 736 0066 0D48     		ldr	r0, .L61+4
 737 0068 FFF7FEFF 		bl	chIQGetTimeout
 738              	.LVL102:
 739              		.loc 1 474 0 discriminator 1
 740 006c 0B48     		ldr	r0, .L61+4
 741 006e 4FF0FF31 		mov	r1, #-1
 742 0072 FFF7FEFF 		bl	chIQGetTimeout
 743              	.LVL103:
 744              		.loc 1 479 0 discriminator 1
 745 0076 2B78     		ldrb	r3, [r5, #0]	@ zero_extendqisi2
 746              		.loc 1 475 0 discriminator 1
 747 0078 0134     		adds	r4, r4, #1
 748              	.LVL104:
 749              		.loc 1 479 0 discriminator 1
 750 007a 002B     		cmp	r3, #0
 751 007c D1D0     		beq	.L56
 752              		.loc 1 480 0
 753 007e 0948     		ldr	r0, .L61+12
 754 0080 FFF7FEFF 		bl	test_print
 755              	.LVL105:
 756              		.loc 1 481 0
 757 0084 A000     		lsls	r0, r4, #2
 758 0086 FFF7FEFF 		bl	test_printn
 759              	.LVL106:
 760              		.loc 1 482 0
 761 008a 0748     		ldr	r0, .L61+16
 762              		.loc 1 483 0
 763 008c 03B0     		add	sp, sp, #12
 764 008e BDE83040 		pop	{r4, r5, lr}
 765              		.loc 1 482 0
 766 0092 FFF7FEBF 		b	test_println
 767              	.LVL107:
 768              	.L62:
 769 0096 00BF     		.align	2
 770              	.L61:
 771 0098 00000000 		.word	.LANCHOR5
 772 009c 00000000 		.word	.LANCHOR4
 773 00a0 00000000 		.word	test_timer_done
 774 00a4 A8000000 		.word	.LC11
 775 00a8 E4000000 		.word	.LC15
 776              		.cfi_endproc
 777              	.LFE22:
 778              		.size	bmk9_execute, .-bmk9_execute
 779 00ac AFF30080 		.section	.text.bmk6_execute,"ax",%progbits
 780              		.align	2
 781              		.p2align 4,,15
 782              		.thumb
 783              		.thumb_func
 784              		.type	bmk6_execute, %function
 785              	bmk6_execute:
 786              	.LFB16:
 787              		.loc 1 304 0
 788              		.cfi_startproc
 789              		@ args = 0, pretend = 0, frame = 0
 790              		@ frame_needed = 0, uses_anonymous_args = 0
ARM GAS  /tmp/cc3Dq9HF.s 			page 15


 791              	.LVL108:
 792 0000 2DE9F041 		push	{r4, r5, r6, r7, r8, lr}
 793              	.LCFI7:
 794              		.cfi_def_cfa_offset 24
 795              		.cfi_offset 4, -24
 796              		.cfi_offset 5, -20
 797              		.cfi_offset 6, -16
 798              		.cfi_offset 7, -12
 799              		.cfi_offset 8, -8
 800              		.cfi_offset 14, -4
 801              		.loc 1 308 0
 802 0004 144B     		ldr	r3, .L69
 803              		.loc 1 307 0
 804 0006 154A     		ldr	r2, .L69+4
 805              		.loc 1 308 0
 806 0008 9B69     		ldr	r3, [r3, #24]
 807              		.loc 1 307 0
 808 000a D2F80080 		ldr	r8, [r2, #0]
 809              	.LVL109:
 810              		.loc 1 308 0
 811 000e 9E68     		ldr	r6, [r3, #8]
 812 0010 134F     		ldr	r7, .L69+8
 813              		.loc 1 304 0
 814 0012 82B0     		sub	sp, sp, #8
 815              	.LCFI8:
 816              		.cfi_def_cfa_offset 32
 817              		.loc 1 309 0
 818 0014 FFF7FEFF 		bl	test_wait_tick
 819              	.LVL110:
 820              		.loc 1 310 0
 821 0018 4FF47A70 		mov	r0, #1000
 822 001c FFF7FEFF 		bl	test_start_timer
 823              	.LVL111:
 824              		.loc 1 306 0
 825 0020 0024     		movs	r4, #0
 826              		.loc 1 308 0
 827 0022 0136     		adds	r6, r6, #1
 828              	.LVL112:
 829              		.loc 1 312 0
 830 0024 2546     		mov	r5, r4
 831              	.LVL113:
 832              	.L64:
 833              		.loc 1 312 0 is_stmt 0 discriminator 1
 834 0026 0F4B     		ldr	r3, .L69+12
 835 0028 0095     		str	r5, [sp, #0]
 836 002a 4046     		mov	r0, r8
 837 002c 4FF49871 		mov	r1, #304
 838 0030 3246     		mov	r2, r6
 839 0032 FFF7FEFF 		bl	chThdCreateStatic
 840              	.LVL114:
 841              		.loc 1 317 0 is_stmt 1 discriminator 1
 842 0036 3B78     		ldrb	r3, [r7, #0]	@ zero_extendqisi2
 843              		.loc 1 313 0 discriminator 1
 844 0038 0134     		adds	r4, r4, #1
 845              	.LVL115:
 846              		.loc 1 317 0 discriminator 1
 847 003a 002B     		cmp	r3, #0
ARM GAS  /tmp/cc3Dq9HF.s 			page 16


 848 003c F3D0     		beq	.L64
 849              		.loc 1 318 0
 850 003e 0A48     		ldr	r0, .L69+16
 851 0040 FFF7FEFF 		bl	test_print
 852              	.LVL116:
 853              		.loc 1 319 0
 854 0044 2046     		mov	r0, r4
 855 0046 FFF7FEFF 		bl	test_printn
 856              	.LVL117:
 857              		.loc 1 320 0
 858 004a 0848     		ldr	r0, .L69+20
 859              		.loc 1 321 0
 860 004c 02B0     		add	sp, sp, #8
 861 004e BDE8F041 		pop	{r4, r5, r6, r7, r8, lr}
 862              		.loc 1 320 0
 863 0052 FFF7FEBF 		b	test_println
 864              	.LVL118:
 865              	.L70:
 866 0056 00BF     		.align	2
 867              	.L69:
 868 0058 00000000 		.word	rlist
 869 005c 00000000 		.word	wa
 870 0060 00000000 		.word	test_timer_done
 871 0064 00000000 		.word	thread2
 872 0068 A8000000 		.word	.LC11
 873 006c F0000000 		.word	.LC16
 874              		.cfi_endproc
 875              	.LFE16:
 876              		.size	bmk6_execute, .-bmk6_execute
 877              		.section	.text.bmk8_execute,"ax",%progbits
 878              		.align	2
 879              		.p2align 4,,15
 880              		.thumb
 881              		.thumb_func
 882              		.type	bmk8_execute, %function
 883              	bmk8_execute:
 884              	.LFB21:
 885              		.loc 1 416 0
 886              		.cfi_startproc
 887              		@ args = 0, pretend = 0, frame = 8
 888              		@ frame_needed = 0, uses_anonymous_args = 0
 889 0000 2DE9F042 		push	{r4, r5, r6, r7, r9, lr}
 890              	.LCFI9:
 891              		.cfi_def_cfa_offset 24
 892              		.cfi_offset 4, -24
 893              		.cfi_offset 5, -20
 894              		.cfi_offset 6, -16
 895              		.cfi_offset 7, -12
 896              		.cfi_offset 9, -8
 897              		.cfi_offset 14, -4
 898 0004 84B0     		sub	sp, sp, #16
 899              	.LCFI10:
 900              		.cfi_def_cfa_offset 40
 901              		.loc 1 419 0
 902 0006 04AC     		add	r4, sp, #16
 903              		.loc 1 422 0
 904 0008 DFF8C890 		ldr	r9, .L72+20
ARM GAS  /tmp/cc3Dq9HF.s 			page 17


 905 000c 2C4E     		ldr	r6, .L72
 906 000e 2D4F     		ldr	r7, .L72+4
 907 0010 2D4D     		ldr	r5, .L72+8
 908              		.loc 1 419 0
 909 0012 0023     		movs	r3, #0
 910 0014 44F8043D 		str	r3, [r4, #-4]!
 911              	.LVL119:
 912              		.loc 1 420 0
 913 0018 FFF7FEFF 		bl	test_wait_tick
 914              	.LVL120:
 915              		.loc 1 422 0
 916 001c D9F81830 		ldr	r3, [r9, #24]
 917 0020 3868     		ldr	r0, [r7, #0]
 918 0022 9A68     		ldr	r2, [r3, #8]
 919 0024 0094     		str	r4, [sp, #0]
 920 0026 013A     		subs	r2, r2, #1
 921 0028 3346     		mov	r3, r6
 922 002a 4FF49871 		mov	r1, #304
 923 002e FFF7FEFF 		bl	chThdCreateStatic
 924              	.LVL121:
 925              		.loc 1 423 0
 926 0032 D9F81830 		ldr	r3, [r9, #24]
 927 0036 9A68     		ldr	r2, [r3, #8]
 928              		.loc 1 422 0
 929 0038 2860     		str	r0, [r5, #0]
 930              		.loc 1 423 0
 931 003a 013A     		subs	r2, r2, #1
 932 003c 3346     		mov	r3, r6
 933 003e 4FF49871 		mov	r1, #304
 934 0042 0094     		str	r4, [sp, #0]
 935 0044 7868     		ldr	r0, [r7, #4]
 936 0046 FFF7FEFF 		bl	chThdCreateStatic
 937              	.LVL122:
 938              		.loc 1 424 0
 939 004a D9F81830 		ldr	r3, [r9, #24]
 940 004e 9A68     		ldr	r2, [r3, #8]
 941              		.loc 1 423 0
 942 0050 6860     		str	r0, [r5, #4]
 943              		.loc 1 424 0
 944 0052 013A     		subs	r2, r2, #1
 945 0054 3346     		mov	r3, r6
 946 0056 4FF49871 		mov	r1, #304
 947 005a 0094     		str	r4, [sp, #0]
 948 005c B868     		ldr	r0, [r7, #8]
 949 005e FFF7FEFF 		bl	chThdCreateStatic
 950              	.LVL123:
 951              		.loc 1 425 0
 952 0062 D9F81830 		ldr	r3, [r9, #24]
 953 0066 9A68     		ldr	r2, [r3, #8]
 954              		.loc 1 424 0
 955 0068 A860     		str	r0, [r5, #8]
 956              		.loc 1 425 0
 957 006a 013A     		subs	r2, r2, #1
 958 006c 3346     		mov	r3, r6
 959 006e 4FF49871 		mov	r1, #304
 960 0072 0094     		str	r4, [sp, #0]
 961 0074 F868     		ldr	r0, [r7, #12]
ARM GAS  /tmp/cc3Dq9HF.s 			page 18


 962 0076 FFF7FEFF 		bl	chThdCreateStatic
 963              	.LVL124:
 964              		.loc 1 426 0
 965 007a D9F81830 		ldr	r3, [r9, #24]
 966 007e 3F69     		ldr	r7, [r7, #16]
 967 0080 9A68     		ldr	r2, [r3, #8]
 968              		.loc 1 425 0
 969 0082 E860     		str	r0, [r5, #12]
 970              		.loc 1 426 0
 971 0084 4FF49871 		mov	r1, #304
 972 0088 013A     		subs	r2, r2, #1
 973 008a 3346     		mov	r3, r6
 974 008c 0094     		str	r4, [sp, #0]
 975 008e 3846     		mov	r0, r7
 976 0090 FFF7FEFF 		bl	chThdCreateStatic
 977              	.LVL125:
 978 0094 2861     		str	r0, [r5, #16]
 979              		.loc 1 428 0
 980 0096 4FF47A70 		mov	r0, #1000
 981 009a FFF7FEFF 		bl	chThdSleep
 982              	.LVL126:
 983              		.loc 1 429 0
 984 009e FFF7FEFF 		bl	test_terminate_threads
 985              	.LVL127:
 986              		.loc 1 430 0
 987 00a2 FFF7FEFF 		bl	test_wait_threads
 988              	.LVL128:
 989              		.loc 1 432 0
 990 00a6 0948     		ldr	r0, .L72+12
 991 00a8 FFF7FEFF 		bl	test_print
 992              	.LVL129:
 993              		.loc 1 433 0
 994 00ac 0398     		ldr	r0, [sp, #12]
 995 00ae FFF7FEFF 		bl	test_printn
 996              	.LVL130:
 997              		.loc 1 434 0
 998 00b2 0748     		ldr	r0, .L72+16
 999 00b4 FFF7FEFF 		bl	test_println
 1000              	.LVL131:
 1001              		.loc 1 435 0
 1002 00b8 04B0     		add	sp, sp, #16
 1003 00ba BDE8F082 		pop	{r4, r5, r6, r7, r9, pc}
 1004              	.L73:
 1005 00be 00BF     		.align	2
 1006              	.L72:
 1007 00c0 00000000 		.word	thread8
 1008 00c4 00000000 		.word	wa
 1009 00c8 00000000 		.word	threads
 1010 00cc A8000000 		.word	.LC11
 1011 00d0 FC000000 		.word	.LC17
 1012 00d4 00000000 		.word	rlist
 1013              		.cfi_endproc
 1014              	.LFE21:
 1015              		.size	bmk8_execute, .-bmk8_execute
 1016 00d8 AFF30080 		.section	.text.thread8,"ax",%progbits
 1016      AFF30080 
 1017              		.align	2
ARM GAS  /tmp/cc3Dq9HF.s 			page 19


 1018              		.p2align 4,,15
 1019              		.thumb
 1020              		.thumb_func
 1021              		.type	thread8, %function
 1022              	thread8:
 1023              	.LFB20:
 1024              		.loc 1 401 0
 1025              		.cfi_startproc
 1026              		@ args = 0, pretend = 0, frame = 0
 1027              		@ frame_needed = 0, uses_anonymous_args = 0
 1028              	.LVL132:
 1029 0000 38B5     		push	{r3, r4, r5, lr}
 1030              	.LCFI11:
 1031              		.cfi_def_cfa_offset 16
 1032              		.cfi_offset 3, -16
 1033              		.cfi_offset 4, -12
 1034              		.cfi_offset 5, -8
 1035              		.cfi_offset 14, -4
 1036 0002 0B4D     		ldr	r5, .L80
 1037              		.loc 1 401 0
 1038 0004 0446     		mov	r4, r0
 1039              	.LVL133:
 1040              	.L75:
 1041              		.loc 1 404 0 discriminator 1
 1042 0006 FFF7FEFF 		bl	chThdYield
 1043              	.LVL134:
 1044              		.loc 1 405 0 discriminator 1
 1045 000a FFF7FEFF 		bl	chThdYield
 1046              	.LVL135:
 1047              		.loc 1 406 0 discriminator 1
 1048 000e FFF7FEFF 		bl	chThdYield
 1049              	.LVL136:
 1050              		.loc 1 407 0 discriminator 1
 1051 0012 FFF7FEFF 		bl	chThdYield
 1052              	.LVL137:
 1053              		.loc 1 408 0 discriminator 1
 1054 0016 2268     		ldr	r2, [r4, #0]
 1055              		.loc 1 412 0 discriminator 1
 1056 0018 AB69     		ldr	r3, [r5, #24]
 1057              		.loc 1 408 0 discriminator 1
 1058 001a 0432     		adds	r2, r2, #4
 1059 001c 2260     		str	r2, [r4, #0]
 1060              		.loc 1 412 0 discriminator 1
 1061 001e 5B7F     		ldrb	r3, [r3, #29]	@ zero_extendqisi2
 1062 0020 03F00403 		and	r3, r3, #4
 1063 0024 DBB2     		uxtb	r3, r3
 1064 0026 002B     		cmp	r3, #0
 1065 0028 EDD0     		beq	.L75
 1066              		.loc 1 414 0
 1067 002a 0020     		movs	r0, #0
 1068 002c 38BD     		pop	{r3, r4, r5, pc}
 1069              	.L81:
 1070 002e 00BF     		.align	2
 1071              	.L80:
 1072 0030 00000000 		.word	rlist
 1073              		.cfi_endproc
 1074              	.LFE20:
ARM GAS  /tmp/cc3Dq9HF.s 			page 20


 1075              		.size	thread8, .-thread8
 1076 0034 AFF30080 		.section	.text.bmk7_execute,"ax",%progbits
 1076      AFF30080 
 1076      AFF30080 
 1077              		.align	2
 1078              		.p2align 4,,15
 1079              		.thumb
 1080              		.thumb_func
 1081              		.type	bmk7_execute, %function
 1082              	bmk7_execute:
 1083              	.LFB19:
 1084              		.loc 1 354 0
 1085              		.cfi_startproc
 1086              		@ args = 0, pretend = 0, frame = 8
 1087              		@ frame_needed = 0, uses_anonymous_args = 0
 1088 0000 2DE9F042 		push	{r4, r5, r6, r7, r9, lr}
 1089              	.LCFI12:
 1090              		.cfi_def_cfa_offset 24
 1091              		.cfi_offset 4, -24
 1092              		.cfi_offset 5, -20
 1093              		.cfi_offset 6, -16
 1094              		.cfi_offset 7, -12
 1095              		.cfi_offset 9, -8
 1096              		.cfi_offset 14, -4
 1097              		.loc 1 357 0
 1098 0004 DFF80491 		ldr	r9, .L88+32
 1099 0008 384F     		ldr	r7, .L88
 1100 000a D9F81830 		ldr	r3, [r9, #24]
 1101 000e 3868     		ldr	r0, [r7, #0]
 1102 0010 9A68     		ldr	r2, [r3, #8]
 1103 0012 374B     		ldr	r3, .L88+4
 1104 0014 374E     		ldr	r6, .L88+8
 1105 0016 384D     		ldr	r5, .L88+12
 1106              		.loc 1 354 0
 1107 0018 84B0     		sub	sp, sp, #16
 1108              	.LCFI13:
 1109              		.cfi_def_cfa_offset 40
 1110              		.loc 1 357 0
 1111 001a 0024     		movs	r4, #0
 1112 001c 4FF49871 		mov	r1, #304
 1113 0020 0532     		adds	r2, r2, #5
 1114 0022 0094     		str	r4, [sp, #0]
 1115 0024 FFF7FEFF 		bl	chThdCreateStatic
 1116              	.LVL138:
 1117              		.loc 1 358 0
 1118 0028 7A68     		ldr	r2, [r7, #4]
 1119 002a D9F81830 		ldr	r3, [r9, #24]
 1120 002e 0392     		str	r2, [sp, #12]
 1121 0030 9A68     		ldr	r2, [r3, #8]
 1122              		.loc 1 357 0
 1123 0032 3060     		str	r0, [r6, #0]
 1124              		.loc 1 358 0
 1125 0034 4FF49871 		mov	r1, #304
 1126 0038 0432     		adds	r2, r2, #4
 1127 003a 2D4B     		ldr	r3, .L88+4
 1128 003c 0094     		str	r4, [sp, #0]
 1129 003e 0398     		ldr	r0, [sp, #12]
ARM GAS  /tmp/cc3Dq9HF.s 			page 21


 1130 0040 FFF7FEFF 		bl	chThdCreateStatic
 1131              	.LVL139:
 1132              		.loc 1 359 0
 1133 0044 BA68     		ldr	r2, [r7, #8]
 1134 0046 D9F81830 		ldr	r3, [r9, #24]
 1135 004a 0392     		str	r2, [sp, #12]
 1136 004c 9A68     		ldr	r2, [r3, #8]
 1137              		.loc 1 358 0
 1138 004e 7060     		str	r0, [r6, #4]
 1139              		.loc 1 359 0
 1140 0050 4FF49871 		mov	r1, #304
 1141 0054 0332     		adds	r2, r2, #3
 1142 0056 264B     		ldr	r3, .L88+4
 1143 0058 0094     		str	r4, [sp, #0]
 1144 005a 0398     		ldr	r0, [sp, #12]
 1145 005c FFF7FEFF 		bl	chThdCreateStatic
 1146              	.LVL140:
 1147              		.loc 1 360 0
 1148 0060 FA68     		ldr	r2, [r7, #12]
 1149 0062 D9F81830 		ldr	r3, [r9, #24]
 1150 0066 0392     		str	r2, [sp, #12]
 1151 0068 9A68     		ldr	r2, [r3, #8]
 1152              		.loc 1 359 0
 1153 006a B060     		str	r0, [r6, #8]
 1154              		.loc 1 360 0
 1155 006c 4FF49871 		mov	r1, #304
 1156 0070 0232     		adds	r2, r2, #2
 1157 0072 1F4B     		ldr	r3, .L88+4
 1158 0074 0094     		str	r4, [sp, #0]
 1159 0076 0398     		ldr	r0, [sp, #12]
 1160 0078 FFF7FEFF 		bl	chThdCreateStatic
 1161              	.LVL141:
 1162              		.loc 1 361 0
 1163 007c D9F81830 		ldr	r3, [r9, #24]
 1164 0080 3F69     		ldr	r7, [r7, #16]
 1165 0082 9A68     		ldr	r2, [r3, #8]
 1166 0084 1A4B     		ldr	r3, .L88+4
 1167              		.loc 1 360 0
 1168 0086 F060     		str	r0, [r6, #12]
 1169              		.loc 1 361 0
 1170 0088 4FF49871 		mov	r1, #304
 1171 008c 0132     		adds	r2, r2, #1
 1172 008e 0094     		str	r4, [sp, #0]
 1173 0090 3846     		mov	r0, r7
 1174 0092 FFF7FEFF 		bl	chThdCreateStatic
 1175              	.LVL142:
 1176 0096 3061     		str	r0, [r6, #16]
 1177              	.LVL143:
 1178              		.loc 1 364 0
 1179 0098 FFF7FEFF 		bl	test_wait_tick
 1180              	.LVL144:
 1181              		.loc 1 365 0
 1182 009c 4FF47A70 		mov	r0, #1000
 1183 00a0 FFF7FEFF 		bl	test_start_timer
 1184              	.LVL145:
 1185              	.L83:
 1186              		.loc 1 367 0 discriminator 1
ARM GAS  /tmp/cc3Dq9HF.s 			page 22


 1187 00a4 1548     		ldr	r0, .L88+16
 1188 00a6 0021     		movs	r1, #0
 1189 00a8 FFF7FEFF 		bl	chSemReset
 1190              	.LVL146:
 1191              		.loc 1 372 0 discriminator 1
 1192 00ac 2B78     		ldrb	r3, [r5, #0]	@ zero_extendqisi2
 1193              		.loc 1 368 0 discriminator 1
 1194 00ae 0134     		adds	r4, r4, #1
 1195              	.LVL147:
 1196              		.loc 1 372 0 discriminator 1
 1197 00b0 002B     		cmp	r3, #0
 1198 00b2 F7D0     		beq	.L83
 1199              		.loc 1 373 0
 1200 00b4 FFF7FEFF 		bl	test_terminate_threads
 1201              	.LVL148:
 1202              		.loc 1 374 0
 1203 00b8 0021     		movs	r1, #0
 1204 00ba 1048     		ldr	r0, .L88+16
 1205 00bc FFF7FEFF 		bl	chSemReset
 1206              	.LVL149:
 1207              		.loc 1 375 0
 1208 00c0 FFF7FEFF 		bl	test_wait_threads
 1209              	.LVL150:
 1210              		.loc 1 377 0
 1211 00c4 0E48     		ldr	r0, .L88+20
 1212 00c6 FFF7FEFF 		bl	test_print
 1213              	.LVL151:
 1214              		.loc 1 378 0
 1215 00ca 2046     		mov	r0, r4
 1216 00cc FFF7FEFF 		bl	test_printn
 1217              	.LVL152:
 1218              		.loc 1 379 0
 1219 00d0 0C48     		ldr	r0, .L88+24
 1220 00d2 FFF7FEFF 		bl	test_print
 1221              	.LVL153:
 1222              		.loc 1 380 0
 1223 00d6 04EB4400 		add	r0, r4, r4, lsl #1
 1224 00da 4000     		lsls	r0, r0, #1
 1225 00dc FFF7FEFF 		bl	test_printn
 1226              	.LVL154:
 1227              		.loc 1 381 0
 1228 00e0 0948     		ldr	r0, .L88+28
 1229              		.loc 1 382 0
 1230 00e2 04B0     		add	sp, sp, #16
 1231 00e4 BDE8F042 		pop	{r4, r5, r6, r7, r9, lr}
 1232              		.loc 1 381 0
 1233 00e8 FFF7FEBF 		b	test_println
 1234              	.LVL155:
 1235              	.L89:
 1236              		.align	2
 1237              	.L88:
 1238 00ec 00000000 		.word	wa
 1239 00f0 00000000 		.word	thread3
 1240 00f4 00000000 		.word	threads
 1241 00f8 00000000 		.word	test_timer_done
 1242 00fc 00000000 		.word	.LANCHOR1
 1243 0100 A8000000 		.word	.LC11
ARM GAS  /tmp/cc3Dq9HF.s 			page 23


 1244 0104 08010000 		.word	.LC18
 1245 0108 FC000000 		.word	.LC17
 1246 010c 00000000 		.word	rlist
 1247              		.cfi_endproc
 1248              	.LFE19:
 1249              		.size	bmk7_execute, .-bmk7_execute
 1250              		.section	.text.bmk5_execute,"ax",%progbits
 1251              		.align	2
 1252              		.p2align 4,,15
 1253              		.thumb
 1254              		.thumb_func
 1255              		.type	bmk5_execute, %function
 1256              	bmk5_execute:
 1257              	.LFB15:
 1258              		.loc 1 265 0
 1259              		.cfi_startproc
 1260              		@ args = 0, pretend = 0, frame = 0
 1261              		@ frame_needed = 0, uses_anonymous_args = 0
 1262              	.LVL156:
 1263 0000 2DE9F041 		push	{r4, r5, r6, r7, r8, lr}
 1264              	.LCFI14:
 1265              		.cfi_def_cfa_offset 24
 1266              		.cfi_offset 4, -24
 1267              		.cfi_offset 5, -20
 1268              		.cfi_offset 6, -16
 1269              		.cfi_offset 7, -12
 1270              		.cfi_offset 8, -8
 1271              		.cfi_offset 14, -4
 1272              		.loc 1 269 0
 1273 0004 154B     		ldr	r3, .L96
 1274              		.loc 1 268 0
 1275 0006 164A     		ldr	r2, .L96+4
 1276              		.loc 1 269 0
 1277 0008 9B69     		ldr	r3, [r3, #24]
 1278              		.loc 1 268 0
 1279 000a D2F80080 		ldr	r8, [r2, #0]
 1280              	.LVL157:
 1281              		.loc 1 269 0
 1282 000e 9E68     		ldr	r6, [r3, #8]
 1283 0010 144F     		ldr	r7, .L96+8
 1284              		.loc 1 265 0
 1285 0012 82B0     		sub	sp, sp, #8
 1286              	.LCFI15:
 1287              		.cfi_def_cfa_offset 32
 1288              		.loc 1 270 0
 1289 0014 FFF7FEFF 		bl	test_wait_tick
 1290              	.LVL158:
 1291              		.loc 1 271 0
 1292 0018 4FF47A70 		mov	r0, #1000
 1293 001c FFF7FEFF 		bl	test_start_timer
 1294              	.LVL159:
 1295              		.loc 1 267 0
 1296 0020 0024     		movs	r4, #0
 1297              		.loc 1 269 0
 1298 0022 013E     		subs	r6, r6, #1
 1299              	.LVL160:
 1300              		.loc 1 273 0
ARM GAS  /tmp/cc3Dq9HF.s 			page 24


 1301 0024 2546     		mov	r5, r4
 1302              	.LVL161:
 1303              	.L91:
 1304              		.loc 1 273 0 is_stmt 0 discriminator 1
 1305 0026 104B     		ldr	r3, .L96+12
 1306 0028 0095     		str	r5, [sp, #0]
 1307 002a 4FF49871 		mov	r1, #304
 1308 002e 3246     		mov	r2, r6
 1309 0030 4046     		mov	r0, r8
 1310 0032 FFF7FEFF 		bl	chThdCreateStatic
 1311              	.LVL162:
 1312 0036 FFF7FEFF 		bl	chThdWait
 1313              	.LVL163:
 1314              		.loc 1 278 0 is_stmt 1 discriminator 1
 1315 003a 3B78     		ldrb	r3, [r7, #0]	@ zero_extendqisi2
 1316              		.loc 1 274 0 discriminator 1
 1317 003c 0134     		adds	r4, r4, #1
 1318              	.LVL164:
 1319              		.loc 1 278 0 discriminator 1
 1320 003e 002B     		cmp	r3, #0
 1321 0040 F1D0     		beq	.L91
 1322              		.loc 1 279 0
 1323 0042 0A48     		ldr	r0, .L96+16
 1324 0044 FFF7FEFF 		bl	test_print
 1325              	.LVL165:
 1326              		.loc 1 280 0
 1327 0048 2046     		mov	r0, r4
 1328 004a FFF7FEFF 		bl	test_printn
 1329              	.LVL166:
 1330              		.loc 1 281 0
 1331 004e 0848     		ldr	r0, .L96+20
 1332              		.loc 1 282 0
 1333 0050 02B0     		add	sp, sp, #8
 1334 0052 BDE8F041 		pop	{r4, r5, r6, r7, r8, lr}
 1335              		.loc 1 281 0
 1336 0056 FFF7FEBF 		b	test_println
 1337              	.LVL167:
 1338              	.L97:
 1339 005a 00BF     		.align	2
 1340              	.L96:
 1341 005c 00000000 		.word	rlist
 1342 0060 00000000 		.word	wa
 1343 0064 00000000 		.word	test_timer_done
 1344 0068 00000000 		.word	thread2
 1345 006c A8000000 		.word	.LC11
 1346 0070 F0000000 		.word	.LC16
 1347              		.cfi_endproc
 1348              	.LFE15:
 1349              		.size	bmk5_execute, .-bmk5_execute
 1350 0074 AFF30080 		.section	.text.bmk4_execute,"ax",%progbits
 1350      AFF30080 
 1350      AFF30080 
 1351              		.align	2
 1352              		.p2align 4,,15
 1353              		.thumb
 1354              		.thumb_func
 1355              		.type	bmk4_execute, %function
ARM GAS  /tmp/cc3Dq9HF.s 			page 25


 1356              	bmk4_execute:
 1357              	.LFB14:
 1358              		.loc 1 217 0
 1359              		.cfi_startproc
 1360              		@ args = 0, pretend = 0, frame = 0
 1361              		@ frame_needed = 0, uses_anonymous_args = 0
 1362 0000 70B5     		push	{r4, r5, r6, lr}
 1363              	.LCFI16:
 1364              		.cfi_def_cfa_offset 16
 1365              		.cfi_offset 4, -16
 1366              		.cfi_offset 5, -12
 1367              		.cfi_offset 6, -8
 1368              		.cfi_offset 14, -4
 1369              		.loc 1 221 0
 1370 0002 254B     		ldr	r3, .L104
 1371 0004 2548     		ldr	r0, .L104+4
 1372 0006 9B69     		ldr	r3, [r3, #24]
 1373 0008 0068     		ldr	r0, [r0, #0]
 1374 000a 9A68     		ldr	r2, [r3, #8]
 1375 000c 244B     		ldr	r3, .L104+8
 1376 000e 254E     		ldr	r6, .L104+12
 1377              		.loc 1 217 0
 1378 0010 82B0     		sub	sp, sp, #8
 1379              	.LCFI17:
 1380              		.cfi_def_cfa_offset 24
 1381              		.loc 1 221 0
 1382 0012 0025     		movs	r5, #0
 1383 0014 4FF49871 		mov	r1, #304
 1384 0018 0132     		adds	r2, r2, #1
 1385 001a 0095     		str	r5, [sp, #0]
 1386 001c FFF7FEFF 		bl	chThdCreateStatic
 1387              	.LVL168:
 1388 0020 214B     		ldr	r3, .L104+16
 1389 0022 0446     		mov	r4, r0
 1390 0024 1860     		str	r0, [r3, #0]
 1391              	.LVL169:
 1392              		.loc 1 223 0
 1393 0026 FFF7FEFF 		bl	test_wait_tick
 1394              	.LVL170:
 1395              		.loc 1 224 0
 1396 002a 4FF47A70 		mov	r0, #1000
 1397 002e FFF7FEFF 		bl	test_start_timer
 1398              	.LVL171:
 1399              	.L99:
 1400              	.LBB6:
 1401              		.loc 1 226 0 discriminator 1
 1402 0032 2023     		movs	r3, #32
 1403              	.LVL172:
 1404              	@ 226 "/home/dpeter/devel/sources/ChibiOS-RT/test/testbmk.c" 1
 1405 0034 83F31188 		msr     BASEPRI, r3
 1406              	@ 0 "" 2
 1407              	.LVL173:
 1408              		.thumb
 1409              	.LBE6:
 1410              		.loc 1 227 0 discriminator 1
 1411 0038 0021     		movs	r1, #0
 1412 003a 2046     		mov	r0, r4
ARM GAS  /tmp/cc3Dq9HF.s 			page 26


 1413 003c FFF7FEFF 		bl	chSchWakeupS
 1414              	.LVL174:
 1415              		.loc 1 228 0 discriminator 1
 1416 0040 2046     		mov	r0, r4
 1417 0042 0021     		movs	r1, #0
 1418 0044 FFF7FEFF 		bl	chSchWakeupS
 1419              	.LVL175:
 1420              		.loc 1 229 0 discriminator 1
 1421 0048 2046     		mov	r0, r4
 1422 004a 0021     		movs	r1, #0
 1423 004c FFF7FEFF 		bl	chSchWakeupS
 1424              	.LVL176:
 1425              		.loc 1 230 0 discriminator 1
 1426 0050 2046     		mov	r0, r4
 1427 0052 0021     		movs	r1, #0
 1428 0054 FFF7FEFF 		bl	chSchWakeupS
 1429              	.LVL177:
 1430              	.LBB7:
 1431              		.loc 1 231 0 discriminator 1
 1432 0058 0023     		movs	r3, #0
 1433              	.LVL178:
 1434              	@ 231 "/home/dpeter/devel/sources/ChibiOS-RT/test/testbmk.c" 1
 1435 005a 83F31188 		msr     BASEPRI, r3
 1436              	@ 0 "" 2
 1437              	.LVL179:
 1438              		.thumb
 1439              	.LBE7:
 1440              		.loc 1 236 0 discriminator 1
 1441 005e 3378     		ldrb	r3, [r6, #0]	@ zero_extendqisi2
 1442              	.LVL180:
 1443              		.loc 1 232 0 discriminator 1
 1444 0060 0435     		adds	r5, r5, #4
 1445              	.LVL181:
 1446              		.loc 1 236 0 discriminator 1
 1447 0062 002B     		cmp	r3, #0
 1448 0064 E5D0     		beq	.L99
 1449              	.LBB8:
 1450              		.loc 1 237 0
 1451 0066 2023     		movs	r3, #32
 1452              	.LVL182:
 1453              	@ 237 "/home/dpeter/devel/sources/ChibiOS-RT/test/testbmk.c" 1
 1454 0068 83F31188 		msr     BASEPRI, r3
 1455              	@ 0 "" 2
 1456              	.LVL183:
 1457              		.thumb
 1458              	.LBE8:
 1459              		.loc 1 238 0
 1460 006c 4FF0FF31 		mov	r1, #-1
 1461 0070 2046     		mov	r0, r4
 1462 0072 FFF7FEFF 		bl	chSchWakeupS
 1463              	.LVL184:
 1464              	.LBB9:
 1465              		.loc 1 239 0
 1466 0076 0023     		movs	r3, #0
 1467              	.LVL185:
 1468              	@ 239 "/home/dpeter/devel/sources/ChibiOS-RT/test/testbmk.c" 1
 1469 0078 83F31188 		msr     BASEPRI, r3
ARM GAS  /tmp/cc3Dq9HF.s 			page 27


 1470              	@ 0 "" 2
 1471              	.LVL186:
 1472              		.thumb
 1473              	.LBE9:
 1474              		.loc 1 241 0
 1475 007c FFF7FEFF 		bl	test_wait_threads
 1476              	.LVL187:
 1477              		.loc 1 242 0
 1478 0080 0A48     		ldr	r0, .L104+20
 1479 0082 FFF7FEFF 		bl	test_print
 1480              	.LVL188:
 1481              		.loc 1 243 0
 1482 0086 6800     		lsls	r0, r5, #1
 1483 0088 FFF7FEFF 		bl	test_printn
 1484              	.LVL189:
 1485              		.loc 1 244 0
 1486 008c 0848     		ldr	r0, .L104+24
 1487              		.loc 1 245 0
 1488 008e 02B0     		add	sp, sp, #8
 1489 0090 BDE87040 		pop	{r4, r5, r6, lr}
 1490              		.loc 1 244 0
 1491 0094 FFF7FEBF 		b	test_println
 1492              	.LVL190:
 1493              	.L105:
 1494              		.align	2
 1495              	.L104:
 1496 0098 00000000 		.word	rlist
 1497 009c 00000000 		.word	wa
 1498 00a0 00000000 		.word	thread4
 1499 00a4 00000000 		.word	test_timer_done
 1500 00a8 00000000 		.word	threads
 1501 00ac A8000000 		.word	.LC11
 1502 00b0 FC000000 		.word	.LC17
 1503              		.cfi_endproc
 1504              	.LFE14:
 1505              		.size	bmk4_execute, .-bmk4_execute
 1506 00b4 AFF30080 		.section	.text.msg_loop_test,"ax",%progbits
 1506      AFF30080 
 1506      AFF30080 
 1507              		.align	2
 1508              		.p2align 4,,15
 1509              		.thumb
 1510              		.thumb_func
 1511              		.type	msg_loop_test, %function
 1512              	msg_loop_test:
 1513              	.LFB8:
 1514              		.loc 1 80 0
 1515              		.cfi_startproc
 1516              		@ args = 0, pretend = 0, frame = 0
 1517              		@ frame_needed = 0, uses_anonymous_args = 0
 1518              	.LVL191:
 1519 0000 70B5     		push	{r4, r5, r6, lr}
 1520              	.LCFI18:
 1521              		.cfi_def_cfa_offset 16
 1522              		.cfi_offset 4, -16
 1523              		.cfi_offset 5, -12
 1524              		.cfi_offset 6, -8
ARM GAS  /tmp/cc3Dq9HF.s 			page 28


 1525              		.cfi_offset 14, -4
 1526              		.loc 1 80 0
 1527 0002 0546     		mov	r5, r0
 1528              		.loc 1 83 0
 1529 0004 FFF7FEFF 		bl	test_wait_tick
 1530              	.LVL192:
 1531              		.loc 1 84 0
 1532 0008 4FF47A70 		mov	r0, #1000
 1533 000c FFF7FEFF 		bl	test_start_timer
 1534              	.LVL193:
 1535 0010 074E     		ldr	r6, .L112
 1536              		.loc 1 82 0
 1537 0012 0024     		movs	r4, #0
 1538              	.LVL194:
 1539              	.L107:
 1540              		.loc 1 86 0 discriminator 1
 1541 0014 2846     		mov	r0, r5
 1542 0016 0121     		movs	r1, #1
 1543 0018 FFF7FEFF 		bl	chMsgSend
 1544              	.LVL195:
 1545              		.loc 1 91 0 discriminator 1
 1546 001c 3378     		ldrb	r3, [r6, #0]	@ zero_extendqisi2
 1547              		.loc 1 87 0 discriminator 1
 1548 001e 0134     		adds	r4, r4, #1
 1549              	.LVL196:
 1550              		.loc 1 91 0 discriminator 1
 1551 0020 002B     		cmp	r3, #0
 1552 0022 F7D0     		beq	.L107
 1553              		.loc 1 92 0
 1554 0024 2846     		mov	r0, r5
 1555 0026 0021     		movs	r1, #0
 1556 0028 FFF7FEFF 		bl	chMsgSend
 1557              	.LVL197:
 1558              		.loc 1 94 0
 1559 002c 2046     		mov	r0, r4
 1560 002e 70BD     		pop	{r4, r5, r6, pc}
 1561              	.L113:
 1562              		.align	2
 1563              	.L112:
 1564 0030 00000000 		.word	test_timer_done
 1565              		.cfi_endproc
 1566              	.LFE8:
 1567              		.size	msg_loop_test, .-msg_loop_test
 1568 0034 AFF30080 		.section	.text.bmk3_execute,"ax",%progbits
 1568      AFF30080 
 1568      AFF30080 
 1569              		.align	2
 1570              		.p2align 4,,15
 1571              		.thumb
 1572              		.thumb_func
 1573              		.type	bmk3_execute, %function
 1574              	bmk3_execute:
 1575              	.LFB12:
 1576              		.loc 1 169 0
 1577              		.cfi_startproc
 1578              		@ args = 0, pretend = 0, frame = 0
 1579              		@ frame_needed = 0, uses_anonymous_args = 0
ARM GAS  /tmp/cc3Dq9HF.s 			page 29


 1580 0000 2DE9F041 		push	{r4, r5, r6, r7, r8, lr}
 1581              	.LCFI19:
 1582              		.cfi_def_cfa_offset 24
 1583              		.cfi_offset 4, -24
 1584              		.cfi_offset 5, -20
 1585              		.cfi_offset 6, -16
 1586              		.cfi_offset 7, -12
 1587              		.cfi_offset 8, -8
 1588              		.cfi_offset 14, -4
 1589              		.loc 1 172 0
 1590 0004 DFF8D080 		ldr	r8, .L115+28
 1591 0008 2C4E     		ldr	r6, .L115
 1592 000a D8F81830 		ldr	r3, [r8, #24]
 1593 000e 3068     		ldr	r0, [r6, #0]
 1594 0010 9A68     		ldr	r2, [r3, #8]
 1595 0012 2B4B     		ldr	r3, .L115+4
 1596 0014 2B4C     		ldr	r4, .L115+8
 1597              		.loc 1 173 0
 1598 0016 2C4F     		ldr	r7, .L115+12
 1599              		.loc 1 169 0
 1600 0018 82B0     		sub	sp, sp, #8
 1601              	.LCFI20:
 1602              		.cfi_def_cfa_offset 32
 1603              		.loc 1 172 0
 1604 001a 0025     		movs	r5, #0
 1605 001c 0132     		adds	r2, r2, #1
 1606 001e 4FF49871 		mov	r1, #304
 1607 0022 0095     		str	r5, [sp, #0]
 1608 0024 FFF7FEFF 		bl	chThdCreateStatic
 1609              	.LVL198:
 1610              		.loc 1 173 0
 1611 0028 D8F81830 		ldr	r3, [r8, #24]
 1612 002c 9A68     		ldr	r2, [r3, #8]
 1613              		.loc 1 172 0
 1614 002e 2060     		str	r0, [r4, #0]
 1615              		.loc 1 173 0
 1616 0030 023A     		subs	r2, r2, #2
 1617 0032 3B46     		mov	r3, r7
 1618 0034 4FF49871 		mov	r1, #304
 1619 0038 0095     		str	r5, [sp, #0]
 1620 003a 7068     		ldr	r0, [r6, #4]
 1621 003c FFF7FEFF 		bl	chThdCreateStatic
 1622              	.LVL199:
 1623              		.loc 1 174 0
 1624 0040 D8F81830 		ldr	r3, [r8, #24]
 1625 0044 9A68     		ldr	r2, [r3, #8]
 1626              		.loc 1 173 0
 1627 0046 6060     		str	r0, [r4, #4]
 1628              		.loc 1 174 0
 1629 0048 033A     		subs	r2, r2, #3
 1630 004a 3B46     		mov	r3, r7
 1631 004c 4FF49871 		mov	r1, #304
 1632 0050 0095     		str	r5, [sp, #0]
 1633 0052 B068     		ldr	r0, [r6, #8]
 1634 0054 FFF7FEFF 		bl	chThdCreateStatic
 1635              	.LVL200:
 1636              		.loc 1 175 0
ARM GAS  /tmp/cc3Dq9HF.s 			page 30


 1637 0058 D8F81830 		ldr	r3, [r8, #24]
 1638 005c 9A68     		ldr	r2, [r3, #8]
 1639              		.loc 1 174 0
 1640 005e A060     		str	r0, [r4, #8]
 1641              		.loc 1 175 0
 1642 0060 043A     		subs	r2, r2, #4
 1643 0062 3B46     		mov	r3, r7
 1644 0064 4FF49871 		mov	r1, #304
 1645 0068 0095     		str	r5, [sp, #0]
 1646 006a F068     		ldr	r0, [r6, #12]
 1647 006c FFF7FEFF 		bl	chThdCreateStatic
 1648              	.LVL201:
 1649              		.loc 1 176 0
 1650 0070 D8F81830 		ldr	r3, [r8, #24]
 1651 0074 3669     		ldr	r6, [r6, #16]
 1652 0076 9A68     		ldr	r2, [r3, #8]
 1653              		.loc 1 175 0
 1654 0078 E060     		str	r0, [r4, #12]
 1655              		.loc 1 176 0
 1656 007a 4FF49871 		mov	r1, #304
 1657 007e 053A     		subs	r2, r2, #5
 1658 0080 3B46     		mov	r3, r7
 1659 0082 0095     		str	r5, [sp, #0]
 1660 0084 3046     		mov	r0, r6
 1661 0086 FFF7FEFF 		bl	chThdCreateStatic
 1662              	.LVL202:
 1663 008a 2061     		str	r0, [r4, #16]
 1664              		.loc 1 177 0
 1665 008c 2068     		ldr	r0, [r4, #0]
 1666 008e FFF7FEFF 		bl	msg_loop_test
 1667              	.LVL203:
 1668 0092 0446     		mov	r4, r0
 1669              	.LVL204:
 1670              		.loc 1 178 0
 1671 0094 FFF7FEFF 		bl	test_wait_threads
 1672              	.LVL205:
 1673              		.loc 1 179 0
 1674 0098 0C48     		ldr	r0, .L115+16
 1675 009a FFF7FEFF 		bl	test_print
 1676              	.LVL206:
 1677              		.loc 1 180 0
 1678 009e 2046     		mov	r0, r4
 1679 00a0 FFF7FEFF 		bl	test_printn
 1680              	.LVL207:
 1681              		.loc 1 181 0
 1682 00a4 0A48     		ldr	r0, .L115+20
 1683 00a6 FFF7FEFF 		bl	test_print
 1684              	.LVL208:
 1685              		.loc 1 182 0
 1686 00aa 6000     		lsls	r0, r4, #1
 1687 00ac FFF7FEFF 		bl	test_printn
 1688              	.LVL209:
 1689              		.loc 1 183 0
 1690 00b0 0848     		ldr	r0, .L115+24
 1691              		.loc 1 184 0
 1692 00b2 02B0     		add	sp, sp, #8
 1693 00b4 BDE8F041 		pop	{r4, r5, r6, r7, r8, lr}
ARM GAS  /tmp/cc3Dq9HF.s 			page 31


 1694              		.loc 1 183 0
 1695 00b8 FFF7FEBF 		b	test_println
 1696              	.LVL210:
 1697              	.L116:
 1698              		.align	2
 1699              	.L115:
 1700 00bc 00000000 		.word	wa
 1701 00c0 00000000 		.word	thread1
 1702 00c4 00000000 		.word	threads
 1703 00c8 00000000 		.word	thread2
 1704 00cc A8000000 		.word	.LC11
 1705 00d0 1C010000 		.word	.LC19
 1706 00d4 FC000000 		.word	.LC17
 1707 00d8 00000000 		.word	rlist
 1708              		.cfi_endproc
 1709              	.LFE12:
 1710              		.size	bmk3_execute, .-bmk3_execute
 1711 00dc AFF30080 		.section	.text.bmk2_execute,"ax",%progbits
 1712              		.align	2
 1713              		.p2align 4,,15
 1714              		.thumb
 1715              		.thumb_func
 1716              		.type	bmk2_execute, %function
 1717              	bmk2_execute:
 1718              	.LFB10:
 1719              		.loc 1 134 0
 1720              		.cfi_startproc
 1721              		@ args = 0, pretend = 0, frame = 0
 1722              		@ frame_needed = 0, uses_anonymous_args = 0
 1723 0000 10B5     		push	{r4, lr}
 1724              	.LCFI21:
 1725              		.cfi_def_cfa_offset 8
 1726              		.cfi_offset 4, -8
 1727              		.cfi_offset 14, -4
 1728              		.loc 1 137 0
 1729 0002 134B     		ldr	r3, .L118
 1730 0004 134A     		ldr	r2, .L118+4
 1731 0006 9B69     		ldr	r3, [r3, #24]
 1732 0008 1068     		ldr	r0, [r2, #0]
 1733 000a 9A68     		ldr	r2, [r3, #8]
 1734 000c 124B     		ldr	r3, .L118+8
 1735              		.loc 1 134 0
 1736 000e 82B0     		sub	sp, sp, #8
 1737              	.LCFI22:
 1738              		.cfi_def_cfa_offset 16
 1739              		.loc 1 137 0
 1740 0010 0024     		movs	r4, #0
 1741 0012 4FF49871 		mov	r1, #304
 1742 0016 0132     		adds	r2, r2, #1
 1743 0018 0094     		str	r4, [sp, #0]
 1744 001a FFF7FEFF 		bl	chThdCreateStatic
 1745              	.LVL211:
 1746 001e 0F4B     		ldr	r3, .L118+12
 1747 0020 1860     		str	r0, [r3, #0]
 1748              		.loc 1 138 0
 1749 0022 FFF7FEFF 		bl	msg_loop_test
 1750              	.LVL212:
ARM GAS  /tmp/cc3Dq9HF.s 			page 32


 1751 0026 0446     		mov	r4, r0
 1752              	.LVL213:
 1753              		.loc 1 139 0
 1754 0028 FFF7FEFF 		bl	test_wait_threads
 1755              	.LVL214:
 1756              		.loc 1 140 0
 1757 002c 0C48     		ldr	r0, .L118+16
 1758 002e FFF7FEFF 		bl	test_print
 1759              	.LVL215:
 1760              		.loc 1 141 0
 1761 0032 2046     		mov	r0, r4
 1762 0034 FFF7FEFF 		bl	test_printn
 1763              	.LVL216:
 1764              		.loc 1 142 0
 1765 0038 0A48     		ldr	r0, .L118+20
 1766 003a FFF7FEFF 		bl	test_print
 1767              	.LVL217:
 1768              		.loc 1 143 0
 1769 003e 6000     		lsls	r0, r4, #1
 1770 0040 FFF7FEFF 		bl	test_printn
 1771              	.LVL218:
 1772              		.loc 1 144 0
 1773 0044 0848     		ldr	r0, .L118+24
 1774              		.loc 1 145 0
 1775 0046 02B0     		add	sp, sp, #8
 1776 0048 BDE81040 		pop	{r4, lr}
 1777              		.loc 1 144 0
 1778 004c FFF7FEBF 		b	test_println
 1779              	.LVL219:
 1780              	.L119:
 1781              		.align	2
 1782              	.L118:
 1783 0050 00000000 		.word	rlist
 1784 0054 00000000 		.word	wa
 1785 0058 00000000 		.word	thread1
 1786 005c 00000000 		.word	threads
 1787 0060 A8000000 		.word	.LC11
 1788 0064 1C010000 		.word	.LC19
 1789 0068 FC000000 		.word	.LC17
 1790              		.cfi_endproc
 1791              	.LFE10:
 1792              		.size	bmk2_execute, .-bmk2_execute
 1793 006c AFF30080 		.section	.text.bmk1_execute,"ax",%progbits
 1794              		.align	2
 1795              		.p2align 4,,15
 1796              		.thumb
 1797              		.thumb_func
 1798              		.type	bmk1_execute, %function
 1799              	bmk1_execute:
 1800              	.LFB9:
 1801              		.loc 1 105 0
 1802              		.cfi_startproc
 1803              		@ args = 0, pretend = 0, frame = 0
 1804              		@ frame_needed = 0, uses_anonymous_args = 0
 1805 0000 10B5     		push	{r4, lr}
 1806              	.LCFI23:
 1807              		.cfi_def_cfa_offset 8
ARM GAS  /tmp/cc3Dq9HF.s 			page 33


 1808              		.cfi_offset 4, -8
 1809              		.cfi_offset 14, -4
 1810              		.loc 1 108 0
 1811 0002 134B     		ldr	r3, .L121
 1812 0004 134A     		ldr	r2, .L121+4
 1813 0006 9B69     		ldr	r3, [r3, #24]
 1814 0008 1068     		ldr	r0, [r2, #0]
 1815 000a 9A68     		ldr	r2, [r3, #8]
 1816 000c 124B     		ldr	r3, .L121+8
 1817              		.loc 1 105 0
 1818 000e 82B0     		sub	sp, sp, #8
 1819              	.LCFI24:
 1820              		.cfi_def_cfa_offset 16
 1821              		.loc 1 108 0
 1822 0010 0024     		movs	r4, #0
 1823 0012 4FF49871 		mov	r1, #304
 1824 0016 013A     		subs	r2, r2, #1
 1825 0018 0094     		str	r4, [sp, #0]
 1826 001a FFF7FEFF 		bl	chThdCreateStatic
 1827              	.LVL220:
 1828 001e 0F4B     		ldr	r3, .L121+12
 1829 0020 1860     		str	r0, [r3, #0]
 1830              		.loc 1 109 0
 1831 0022 FFF7FEFF 		bl	msg_loop_test
 1832              	.LVL221:
 1833 0026 0446     		mov	r4, r0
 1834              	.LVL222:
 1835              		.loc 1 110 0
 1836 0028 FFF7FEFF 		bl	test_wait_threads
 1837              	.LVL223:
 1838              		.loc 1 111 0
 1839 002c 0C48     		ldr	r0, .L121+16
 1840 002e FFF7FEFF 		bl	test_print
 1841              	.LVL224:
 1842              		.loc 1 112 0
 1843 0032 2046     		mov	r0, r4
 1844 0034 FFF7FEFF 		bl	test_printn
 1845              	.LVL225:
 1846              		.loc 1 113 0
 1847 0038 0A48     		ldr	r0, .L121+20
 1848 003a FFF7FEFF 		bl	test_print
 1849              	.LVL226:
 1850              		.loc 1 114 0
 1851 003e 6000     		lsls	r0, r4, #1
 1852 0040 FFF7FEFF 		bl	test_printn
 1853              	.LVL227:
 1854              		.loc 1 115 0
 1855 0044 0848     		ldr	r0, .L121+24
 1856              		.loc 1 116 0
 1857 0046 02B0     		add	sp, sp, #8
 1858 0048 BDE81040 		pop	{r4, lr}
 1859              		.loc 1 115 0
 1860 004c FFF7FEBF 		b	test_println
 1861              	.LVL228:
 1862              	.L122:
 1863              		.align	2
 1864              	.L121:
ARM GAS  /tmp/cc3Dq9HF.s 			page 34


 1865 0050 00000000 		.word	rlist
 1866 0054 00000000 		.word	wa
 1867 0058 00000000 		.word	thread1
 1868 005c 00000000 		.word	threads
 1869 0060 A8000000 		.word	.LC11
 1870 0064 1C010000 		.word	.LC19
 1871 0068 FC000000 		.word	.LC17
 1872              		.cfi_endproc
 1873              	.LFE9:
 1874              		.size	bmk1_execute, .-bmk1_execute
 1875 006c AFF30080 		.section	.text.thread1,"ax",%progbits
 1876              		.align	2
 1877              		.p2align 4,,15
 1878              		.thumb
 1879              		.thumb_func
 1880              		.type	thread1, %function
 1881              	thread1:
 1882              	.LFB7:
 1883              		.loc 1 64 0
 1884              		.cfi_startproc
 1885              		@ args = 0, pretend = 0, frame = 0
 1886              		@ frame_needed = 0, uses_anonymous_args = 0
 1887              	.LVL229:
 1888 0000 10B5     		push	{r4, lr}
 1889              	.LCFI25:
 1890              		.cfi_def_cfa_offset 8
 1891              		.cfi_offset 4, -8
 1892              		.cfi_offset 14, -4
 1893              	.LVL230:
 1894              	.L124:
 1895              		.loc 1 70 0 discriminator 1
 1896 0002 FFF7FEFF 		bl	chMsgWait
 1897              	.LVL231:
 1898              		.loc 1 71 0 discriminator 1
 1899 0006 446B     		ldr	r4, [r0, #52]
 1900              	.LVL232:
 1901              		.loc 1 72 0 discriminator 1
 1902 0008 2146     		mov	r1, r4
 1903 000a FFF7FEFF 		bl	chMsgRelease
 1904              	.LVL233:
 1905              		.loc 1 73 0 discriminator 1
 1906 000e 002C     		cmp	r4, #0
 1907 0010 F7D1     		bne	.L124
 1908              		.loc 1 75 0
 1909 0012 2046     		mov	r0, r4
 1910 0014 10BD     		pop	{r4, pc}
 1911              		.cfi_endproc
 1912              	.LFE7:
 1913              		.size	thread1, .-thread1
 1914 0016 00BFAFF3 		.section	.text.thread4,"ax",%progbits
 1914      0080AFF3 
 1914      0080
 1915              		.align	2
 1916              		.p2align 4,,15
 1917              		.global	thread4
 1918              		.thumb
 1919              		.thumb_func
ARM GAS  /tmp/cc3Dq9HF.s 			page 35


 1920              		.type	thread4, %function
 1921              	thread4:
 1922              	.LFB13:
 1923              		.loc 1 203 0
 1924              		.cfi_startproc
 1925              		@ args = 0, pretend = 0, frame = 0
 1926              		@ frame_needed = 0, uses_anonymous_args = 0
 1927              	.LVL234:
 1928              		.loc 1 205 0
 1929 0000 084A     		ldr	r2, .L132
 1930              		.loc 1 203 0
 1931 0002 10B5     		push	{r4, lr}
 1932              	.LCFI26:
 1933              		.cfi_def_cfa_offset 8
 1934              		.cfi_offset 4, -8
 1935              		.cfi_offset 14, -4
 1936              	.LBB10:
 1937              		.loc 1 208 0
 1938 0004 2023     		movs	r3, #32
 1939              	.LVL235:
 1940              	.LBE10:
 1941              		.loc 1 205 0
 1942 0006 9469     		ldr	r4, [r2, #24]
 1943              	.LVL236:
 1944              	.LBB11:
 1945              		.loc 1 208 0
 1946              	@ 208 "/home/dpeter/devel/sources/ChibiOS-RT/test/testbmk.c" 1
 1947 0008 83F31188 		msr     BASEPRI, r3
 1948              	@ 0 "" 2
 1949              	.LVL237:
 1950              		.thumb
 1951              	.L127:
 1952              	.LBE11:
 1953              		.loc 1 210 0 discriminator 1
 1954 000c 0220     		movs	r0, #2
 1955 000e FFF7FEFF 		bl	chSchGoSleepS
 1956              	.LVL238:
 1957              		.loc 1 212 0 discriminator 1
 1958 0012 636A     		ldr	r3, [r4, #36]
 1959 0014 002B     		cmp	r3, #0
 1960 0016 F9D0     		beq	.L127
 1961              	.LBB12:
 1962              		.loc 1 213 0
 1963 0018 0023     		movs	r3, #0
 1964              	.LVL239:
 1965              	@ 213 "/home/dpeter/devel/sources/ChibiOS-RT/test/testbmk.c" 1
 1966 001a 83F31188 		msr     BASEPRI, r3
 1967              	@ 0 "" 2
 1968              	.LVL240:
 1969              		.thumb
 1970              	.LBE12:
 1971              		.loc 1 215 0
 1972 001e 1846     		mov	r0, r3
 1973 0020 10BD     		pop	{r4, pc}
 1974              	.L133:
 1975 0022 00BF     		.align	2
 1976              	.L132:
ARM GAS  /tmp/cc3Dq9HF.s 			page 36


 1977 0024 00000000 		.word	rlist
 1978              		.cfi_endproc
 1979              	.LFE13:
 1980              		.size	thread4, .-thread4
 1981              		.global	patternbmk
 1982              		.global	testbmk13
 1983              		.global	testbmk12
 1984              		.global	testbmk11
 1985              		.global	testbmk10
 1986              		.global	testbmk9
 1987              		.global	testbmk8
 1988              		.global	testbmk7
 1989              		.global	testbmk6
 1990              		.global	testbmk5
 1991              		.global	testbmk4
 1992              		.global	testbmk3
 1993              		.global	testbmk2
 1994              		.global	testbmk1
 1995 0028 AFF30080 		.section	.bss.vt1.4936,"aw",%nobits
 1995      AFF30080 
 1996              		.align	2
 1997              		.set	.LANCHOR2,. + 0
 1998              		.type	vt1.4936, %object
 1999              		.size	vt1.4936, 20
 2000              	vt1.4936:
 2001 0000 00000000 		.space	20
 2001      00000000 
 2001      00000000 
 2001      00000000 
 2001      00000000 
 2002              		.section	.rodata.patternbmk,"a",%progbits
 2003              		.align	2
 2004              		.type	patternbmk, %object
 2005              		.size	patternbmk, 56
 2006              	patternbmk:
 2007 0000 00000000 		.word	testbmk1
 2008 0004 00000000 		.word	testbmk2
 2009 0008 00000000 		.word	testbmk3
 2010 000c 00000000 		.word	testbmk4
 2011 0010 00000000 		.word	testbmk5
 2012 0014 00000000 		.word	testbmk6
 2013 0018 00000000 		.word	testbmk7
 2014 001c 00000000 		.word	testbmk8
 2015 0020 00000000 		.word	testbmk9
 2016 0024 00000000 		.word	testbmk10
 2017 0028 00000000 		.word	testbmk11
 2018 002c 00000000 		.word	testbmk12
 2019 0030 00000000 		.word	testbmk13
 2020 0034 00000000 		.word	0
 2021              		.section	.rodata.testbmk8,"a",%progbits
 2022              		.align	2
 2023              		.type	testbmk8, %object
 2024              		.size	testbmk8, 16
 2025              	testbmk8:
 2026 0000 D0010000 		.word	.LC25
 2027 0004 00000000 		.word	0
 2028 0008 00000000 		.word	0
ARM GAS  /tmp/cc3Dq9HF.s 			page 37


 2029 000c 00000000 		.word	bmk8_execute
 2030              		.section	.rodata.testbmk3,"a",%progbits
 2031              		.align	2
 2032              		.type	testbmk3, %object
 2033              		.size	testbmk3, 16
 2034              	testbmk3:
 2035 0000 80020000 		.word	.LC30
 2036 0004 00000000 		.word	0
 2037 0008 00000000 		.word	0
 2038 000c 00000000 		.word	bmk3_execute
 2039              		.section	.rodata.testbmk10,"a",%progbits
 2040              		.align	2
 2041              		.type	testbmk10, %object
 2042              		.size	testbmk10, 16
 2043              	testbmk10:
 2044 0000 88010000 		.word	.LC23
 2045 0004 00000000 		.word	0
 2046 0008 00000000 		.word	0
 2047 000c 00000000 		.word	bmk10_execute
 2048              		.section	.bss.iq.4924,"aw",%nobits
 2049              		.align	2
 2050              		.set	.LANCHOR4,. + 0
 2051              		.type	iq.4924, %object
 2052              		.size	iq.4924, 36
 2053              	iq.4924:
 2054 0000 00000000 		.space	36
 2054      00000000 
 2054      00000000 
 2054      00000000 
 2054      00000000 
 2055              		.section	.rodata.testbmk4,"a",%progbits
 2056              		.align	2
 2057              		.type	testbmk4, %object
 2058              		.size	testbmk4, 16
 2059              	testbmk4:
 2060 0000 64020000 		.word	.LC29
 2061 0004 00000000 		.word	0
 2062 0008 00000000 		.word	0
 2063 000c 00000000 		.word	bmk4_execute
 2064              		.section	.bss.ib.4923,"aw",%nobits
 2065              		.align	2
 2066              		.set	.LANCHOR5,. + 0
 2067              		.type	ib.4923, %object
 2068              		.size	ib.4923, 16
 2069              	ib.4923:
 2070 0000 00000000 		.space	16
 2070      00000000 
 2070      00000000 
 2070      00000000 
 2071              		.section	.bss.mtx1,"aw",%nobits
 2072              		.align	2
 2073              		.set	.LANCHOR0,. + 0
 2074              		.type	mtx1, %object
 2075              		.size	mtx1, 16
 2076              	mtx1:
 2077 0000 00000000 		.space	16
 2077      00000000 
ARM GAS  /tmp/cc3Dq9HF.s 			page 38


 2077      00000000 
 2077      00000000 
 2078              		.section	.rodata.testbmk12,"a",%progbits
 2079              		.align	2
 2080              		.type	testbmk12, %object
 2081              		.size	testbmk12, 16
 2082              	testbmk12:
 2083 0000 44010000 		.word	.LC21
 2084 0004 00000000 		.word	bmk12_setup
 2085 0008 00000000 		.word	0
 2086 000c 00000000 		.word	bmk12_execute
 2087              		.section	.rodata.testbmk2,"a",%progbits
 2088              		.align	2
 2089              		.type	testbmk2, %object
 2090              		.size	testbmk2, 16
 2091              	testbmk2:
 2092 0000 98020000 		.word	.LC31
 2093 0004 00000000 		.word	0
 2094 0008 00000000 		.word	0
 2095 000c 00000000 		.word	bmk2_execute
 2096              		.section	.rodata.str1.4,"aMS",%progbits,1
 2097              		.align	2
 2098              	.LC0:
 2099 0000 2D2D2D20 		.ascii	"--- System: \000"
 2099      53797374 
 2099      656D3A20 
 2099      00
 2100 000d 000000   		.space	3
 2101              	.LC1:
 2102 0010 20627974 		.ascii	" bytes\000"
 2102      657300
 2103 0017 00       		.space	1
 2104              	.LC2:
 2105 0018 2D2D2D20 		.ascii	"--- Thread: \000"
 2105      54687265 
 2105      61643A20 
 2105      00
 2106 0025 000000   		.space	3
 2107              	.LC3:
 2108 0028 2D2D2D20 		.ascii	"--- Timer : \000"
 2108      54696D65 
 2108      72203A20 
 2108      00
 2109 0035 000000   		.space	3
 2110              	.LC4:
 2111 0038 2D2D2D20 		.ascii	"--- Semaph: \000"
 2111      53656D61 
 2111      70683A20 
 2111      00
 2112 0045 000000   		.space	3
 2113              	.LC5:
 2114 0048 2D2D2D20 		.ascii	"--- EventS: \000"
 2114      4576656E 
 2114      74533A20 
 2114      00
 2115 0055 000000   		.space	3
 2116              	.LC6:
ARM GAS  /tmp/cc3Dq9HF.s 			page 39


 2117 0058 2D2D2D20 		.ascii	"--- EventL: \000"
 2117      4576656E 
 2117      744C3A20 
 2117      00
 2118 0065 000000   		.space	3
 2119              	.LC7:
 2120 0068 2D2D2D20 		.ascii	"--- Mutex : \000"
 2120      4D757465 
 2120      78203A20 
 2120      00
 2121 0075 000000   		.space	3
 2122              	.LC8:
 2123 0078 2D2D2D20 		.ascii	"--- CondV.: \000"
 2123      436F6E64 
 2123      562E3A20 
 2123      00
 2124 0085 000000   		.space	3
 2125              	.LC9:
 2126 0088 2D2D2D20 		.ascii	"--- Queue : \000"
 2126      51756575 
 2126      65203A20 
 2126      00
 2127 0095 000000   		.space	3
 2128              	.LC10:
 2129 0098 2D2D2D20 		.ascii	"--- MailB.: \000"
 2129      4D61696C 
 2129      422E3A20 
 2129      00
 2130 00a5 000000   		.space	3
 2131              	.LC11:
 2132 00a8 2D2D2D20 		.ascii	"--- Score : \000"
 2132      53636F72 
 2132      65203A20 
 2132      00
 2133 00b5 000000   		.space	3
 2134              	.LC12:
 2135 00b8 206C6F63 		.ascii	" lock+unlock/S\000"
 2135      6B2B756E 
 2135      6C6F636B 
 2135      2F5300
 2136 00c7 00       		.space	1
 2137              	.LC13:
 2138 00c8 20776169 		.ascii	" wait+signal/S\000"
 2138      742B7369 
 2138      676E616C 
 2138      2F5300
 2139 00d7 00       		.space	1
 2140              	.LC14:
 2141 00d8 2074696D 		.ascii	" timers/S\000"
 2141      6572732F 
 2141      5300
 2142 00e2 0000     		.space	2
 2143              	.LC15:
 2144 00e4 20627974 		.ascii	" bytes/S\000"
 2144      65732F53 
 2144      00
 2145 00ed 000000   		.space	3
ARM GAS  /tmp/cc3Dq9HF.s 			page 40


 2146              	.LC16:
 2147 00f0 20746872 		.ascii	" threads/S\000"
 2147      65616473 
 2147      2F5300
 2148 00fb 00       		.space	1
 2149              	.LC17:
 2150 00fc 20637478 		.ascii	" ctxswc/S\000"
 2150      7377632F 
 2150      5300
 2151 0106 0000     		.space	2
 2152              	.LC18:
 2153 0108 20726573 		.ascii	" reschedules/S, \000"
 2153      63686564 
 2153      756C6573 
 2153      2F532C20 
 2153      00
 2154 0119 000000   		.space	3
 2155              	.LC19:
 2156 011c 206D7367 		.ascii	" msgs/S, \000"
 2156      732F532C 
 2156      2000
 2157 0126 0000     		.space	2
 2158              	.LC20:
 2159 0128 42656E63 		.ascii	"Benchmark, RAM footprint\000"
 2159      686D6172 
 2159      6B2C2052 
 2159      414D2066 
 2159      6F6F7470 
 2160 0141 000000   		.space	3
 2161              	.LC21:
 2162 0144 42656E63 		.ascii	"Benchmark, mutexes lock/unlock\000"
 2162      686D6172 
 2162      6B2C206D 
 2162      75746578 
 2162      6573206C 
 2163 0163 00       		.space	1
 2164              	.LC22:
 2165 0164 42656E63 		.ascii	"Benchmark, semaphores wait/signal\000"
 2165      686D6172 
 2165      6B2C2073 
 2165      656D6170 
 2165      686F7265 
 2166 0186 0000     		.space	2
 2167              	.LC23:
 2168 0188 42656E63 		.ascii	"Benchmark, virtual timers set/reset\000"
 2168      686D6172 
 2168      6B2C2076 
 2168      69727475 
 2168      616C2074 
 2169              	.LC24:
 2170 01ac 42656E63 		.ascii	"Benchmark, I/O Queues throughput\000"
 2170      686D6172 
 2170      6B2C2049 
 2170      2F4F2051 
 2170      75657565 
 2171 01cd 000000   		.space	3
 2172              	.LC25:
ARM GAS  /tmp/cc3Dq9HF.s 			page 41


 2173 01d0 42656E63 		.ascii	"Benchmark, round robin context switching\000"
 2173      686D6172 
 2173      6B2C2072 
 2173      6F756E64 
 2173      20726F62 
 2174 01f9 000000   		.space	3
 2175              	.LC26:
 2176 01fc 42656E63 		.ascii	"Benchmark, mass reschedule, 5 threads\000"
 2176      686D6172 
 2176      6B2C206D 
 2176      61737320 
 2176      72657363 
 2177 0222 0000     		.space	2
 2178              	.LC27:
 2179 0224 42656E63 		.ascii	"Benchmark, threads, create only\000"
 2179      686D6172 
 2179      6B2C2074 
 2179      68726561 
 2179      64732C20 
 2180              	.LC28:
 2181 0244 42656E63 		.ascii	"Benchmark, threads, full cycle\000"
 2181      686D6172 
 2181      6B2C2074 
 2181      68726561 
 2181      64732C20 
 2182 0263 00       		.space	1
 2183              	.LC29:
 2184 0264 42656E63 		.ascii	"Benchmark, context switch\000"
 2184      686D6172 
 2184      6B2C2063 
 2184      6F6E7465 
 2184      78742073 
 2185 027e 0000     		.space	2
 2186              	.LC30:
 2187 0280 42656E63 		.ascii	"Benchmark, messages #3\000"
 2187      686D6172 
 2187      6B2C206D 
 2187      65737361 
 2187      67657320 
 2188 0297 00       		.space	1
 2189              	.LC31:
 2190 0298 42656E63 		.ascii	"Benchmark, messages #2\000"
 2190      686D6172 
 2190      6B2C206D 
 2190      65737361 
 2190      67657320 
 2191 02af 00       		.space	1
 2192              	.LC32:
 2193 02b0 42656E63 		.ascii	"Benchmark, messages #1\000"
 2193      686D6172 
 2193      6B2C206D 
 2193      65737361 
 2193      67657320 
 2194 02c7 00       		.section	.rodata.testbmk9,"a",%progbits
 2195              		.align	2
 2196              		.type	testbmk9, %object
 2197              		.size	testbmk9, 16
ARM GAS  /tmp/cc3Dq9HF.s 			page 42


 2198              	testbmk9:
 2199 0000 AC010000 		.word	.LC24
 2200 0004 00000000 		.word	0
 2201 0008 00000000 		.word	0
 2202 000c 00000000 		.word	bmk9_execute
 2203              		.section	.bss.sem1,"aw",%nobits
 2204              		.align	2
 2205              		.set	.LANCHOR1,. + 0
 2206              		.type	sem1, %object
 2207              		.size	sem1, 12
 2208              	sem1:
 2209 0000 00000000 		.space	12
 2209      00000000 
 2209      00000000 
 2210              		.section	.rodata.testbmk1,"a",%progbits
 2211              		.align	2
 2212              		.type	testbmk1, %object
 2213              		.size	testbmk1, 16
 2214              	testbmk1:
 2215 0000 B0020000 		.word	.LC32
 2216 0004 00000000 		.word	0
 2217 0008 00000000 		.word	0
 2218 000c 00000000 		.word	bmk1_execute
 2219              		.section	.rodata.testbmk11,"a",%progbits
 2220              		.align	2
 2221              		.type	testbmk11, %object
 2222              		.size	testbmk11, 16
 2223              	testbmk11:
 2224 0000 64010000 		.word	.LC22
 2225 0004 00000000 		.word	bmk11_setup
 2226 0008 00000000 		.word	0
 2227 000c 00000000 		.word	bmk11_execute
 2228              		.section	.bss.vt2.4937,"aw",%nobits
 2229              		.align	2
 2230              		.set	.LANCHOR3,. + 0
 2231              		.type	vt2.4937, %object
 2232              		.size	vt2.4937, 20
 2233              	vt2.4937:
 2234 0000 00000000 		.space	20
 2234      00000000 
 2234      00000000 
 2234      00000000 
 2234      00000000 
 2235              		.section	.rodata.testbmk13,"a",%progbits
 2236              		.align	2
 2237              		.type	testbmk13, %object
 2238              		.size	testbmk13, 16
 2239              	testbmk13:
 2240 0000 28010000 		.word	.LC20
 2241 0004 00000000 		.word	0
 2242 0008 00000000 		.word	0
 2243 000c 00000000 		.word	bmk13_execute
 2244              		.section	.rodata.testbmk5,"a",%progbits
 2245              		.align	2
 2246              		.type	testbmk5, %object
 2247              		.size	testbmk5, 16
 2248              	testbmk5:
ARM GAS  /tmp/cc3Dq9HF.s 			page 43


 2249 0000 44020000 		.word	.LC28
 2250 0004 00000000 		.word	0
 2251 0008 00000000 		.word	0
 2252 000c 00000000 		.word	bmk5_execute
 2253              		.section	.rodata.testbmk6,"a",%progbits
 2254              		.align	2
 2255              		.type	testbmk6, %object
 2256              		.size	testbmk6, 16
 2257              	testbmk6:
 2258 0000 24020000 		.word	.LC27
 2259 0004 00000000 		.word	0
 2260 0008 00000000 		.word	0
 2261 000c 00000000 		.word	bmk6_execute
 2262              		.section	.rodata.testbmk7,"a",%progbits
 2263              		.align	2
 2264              		.type	testbmk7, %object
 2265              		.size	testbmk7, 16
 2266              	testbmk7:
 2267 0000 FC010000 		.word	.LC26
 2268 0004 00000000 		.word	bmk7_setup
 2269 0008 00000000 		.word	0
 2270 000c 00000000 		.word	bmk7_execute
 2271              		.text
 2272              	.Letext0:
 2273              		.file 2 "/home/dpeter/CodeSourcery/Sourcery_CodeBench_Lite_for_ARM_EABI/bin/../lib/gcc/arm-none-ea
 2274              		.file 3 "/home/dpeter/CodeSourcery/Sourcery_CodeBench_Lite_for_ARM_EABI/bin/../lib/gcc/arm-none-ea
 2275              		.file 4 "/home/dpeter/devel/sources/ChibiOS-RT/os/ports/GCC/ARMCMx/chtypes.h"
 2276              		.file 5 "/home/dpeter/devel/sources/ChibiOS-RT/os/kernel/include/chlists.h"
 2277              		.file 6 "/home/dpeter/devel/sources/ChibiOS-RT/os/kernel/include/chthreads.h"
 2278              		.file 7 "/home/dpeter/devel/sources/ChibiOS-RT/os/ports/GCC/ARMCMx/chcore_v7m.h"
 2279              		.file 8 "/home/dpeter/devel/sources/ChibiOS-RT/os/kernel/include/chvt.h"
 2280              		.file 9 "/home/dpeter/devel/sources/ChibiOS-RT/os/kernel/include/chschd.h"
 2281              		.file 10 "/home/dpeter/devel/sources/ChibiOS-RT/os/kernel/include/chsem.h"
 2282              		.file 11 "/home/dpeter/devel/sources/ChibiOS-RT/os/kernel/include/chmtx.h"
 2283              		.file 12 "/home/dpeter/devel/sources/ChibiOS-RT/os/kernel/include/chqueues.h"
 2284              		.file 13 "/home/dpeter/devel/sources/ChibiOS-RT/test/test.h"
 2285              		.file 14 "/home/dpeter/devel/sources/ChibiOS-RT/os/kernel/include/chmsg.h"