ARM GAS  /tmp/ccwebeYi.s 			page 1


   1              		.syntax unified
   2              		.cpu cortex-m4
   3              		.fpu softvfp
   4              		.eabi_attribute 20, 1
   5              		.eabi_attribute 21, 1
   6              		.eabi_attribute 23, 3
   7              		.eabi_attribute 24, 1
   8              		.eabi_attribute 25, 1
   9              		.eabi_attribute 26, 1
  10              		.eabi_attribute 30, 2
  11              		.eabi_attribute 34, 1
  12              		.eabi_attribute 18, 4
  13              		.thumb
  14              		.file	"test.c"
  15              		.text
  16              	.Ltext0:
  17              		.cfi_sections	.debug_frame
  18              		.section	.text.tmr,"ax",%progbits
  19              		.align	2
  20              		.p2align 4,,15
  21              		.thumb
  22              		.thumb_func
  23              		.type	tmr, %function
  24              	tmr:
  25              	.LFB132:
  26              		.file 1 "/home/dpeter/devel/sources/ChibiOS-RT/test/test.c"
  27              		.loc 1 261 0
  28              		.cfi_startproc
  29              		@ args = 0, pretend = 0, frame = 0
  30              		@ frame_needed = 0, uses_anonymous_args = 0
  31              		@ link register save eliminated.
  32              	.LVL0:
  33              		.loc 1 264 0
  34 0000 014B     		ldr	r3, .L2
  35 0002 0122     		movs	r2, #1
  36 0004 1A70     		strb	r2, [r3, #0]
  37 0006 7047     		bx	lr
  38              	.L3:
  39              		.align	2
  40              	.L2:
  41 0008 00000000 		.word	.LANCHOR0
  42              		.cfi_endproc
  43              	.LFE132:
  44              		.size	tmr, .-tmr
  45 000c AFF30080 		.section	.text.print_line,"ax",%progbits
  46              		.align	2
  47              		.p2align 4,,15
  48              		.thumb
  49              		.thumb_func
  50              		.type	print_line, %function
  51              	print_line:
  52              	.LFB135:
  53              		.loc 1 300 0
  54              		.cfi_startproc
  55              		@ args = 0, pretend = 0, frame = 0
  56              		@ frame_needed = 0, uses_anonymous_args = 0
  57              	.LVL1:
ARM GAS  /tmp/ccwebeYi.s 			page 2


  58 0000 38B5     		push	{r3, r4, r5, lr}
  59              	.LCFI0:
  60              		.cfi_def_cfa_offset 16
  61              		.cfi_offset 3, -16
  62              		.cfi_offset 4, -12
  63              		.cfi_offset 5, -8
  64              		.cfi_offset 14, -4
  65 0002 084D     		ldr	r5, .L8
  66              		.loc 1 300 0
  67 0004 4C24     		movs	r4, #76
  68              	.LVL2:
  69              	.L5:
  70              		.loc 1 304 0 discriminator 2
  71 0006 2868     		ldr	r0, [r5, #0]
  72 0008 0368     		ldr	r3, [r0, #0]
  73 000a 2D21     		movs	r1, #45
  74 000c 9B68     		ldr	r3, [r3, #8]
  75 000e 9847     		blx	r3
  76              	.LVL3:
  77              		.loc 1 303 0 discriminator 2
  78 0010 013C     		subs	r4, r4, #1
  79 0012 F8D1     		bne	.L5
  80              		.loc 1 305 0
  81 0014 034B     		ldr	r3, .L8
  82 0016 0449     		ldr	r1, .L8+4
  83 0018 1868     		ldr	r0, [r3, #0]
  84 001a 0368     		ldr	r3, [r0, #0]
  85 001c 0222     		movs	r2, #2
  86 001e 1B68     		ldr	r3, [r3, #0]
  87 0020 9847     		blx	r3
  88              	.LVL4:
  89 0022 38BD     		pop	{r3, r4, r5, pc}
  90              	.L9:
  91              		.align	2
  92              	.L8:
  93 0024 00000000 		.word	.LANCHOR1
  94 0028 00000000 		.word	.LC0
  95              		.cfi_endproc
  96              	.LFE135:
  97              		.size	print_line, .-print_line
  98 002c AFF30080 		.section	.text.test_printn,"ax",%progbits
  99              		.align	2
 100              		.p2align 4,,15
 101              		.global	test_printn
 102              		.thumb
 103              		.thumb_func
 104              		.type	test_printn, %function
 105              	test_printn:
 106              	.LFB118:
 107              		.loc 1 91 0
 108              		.cfi_startproc
 109              		@ args = 0, pretend = 0, frame = 16
 110              		@ frame_needed = 0, uses_anonymous_args = 0
 111              	.LVL5:
 112 0000 70B5     		push	{r4, r5, r6, lr}
 113              	.LCFI1:
 114              		.cfi_def_cfa_offset 16
ARM GAS  /tmp/ccwebeYi.s 			page 3


 115              		.cfi_offset 4, -16
 116              		.cfi_offset 5, -12
 117              		.cfi_offset 6, -8
 118              		.cfi_offset 14, -4
 119 0002 84B0     		sub	sp, sp, #16
 120              	.LCFI2:
 121              		.cfi_def_cfa_offset 32
 122              		.loc 1 94 0
 123 0004 0028     		cmp	r0, #0
 124 0006 23D0     		beq	.L18
 125              	.LBB50:
 126              	.LBB51:
 127              		.loc 1 91 0
 128 0008 0DF10105 		add	r5, sp, #1
 129              	.LBE51:
 130              	.LBE50:
 131              		.loc 1 99 0
 132 000c 144E     		ldr	r6, .L20
 133              	.LBB54:
 134              	.LBB52:
 135              		.loc 1 91 0
 136 000e 2B46     		mov	r3, r5
 137              	.LVL6:
 138              	.L13:
 139              	.LBE52:
 140              	.LBE54:
 141              		.loc 1 99 0
 142 0010 A6FB0012 		umull	r1, r2, r6, r0
 143 0014 D208     		lsrs	r2, r2, #3
 144 0016 02EB8201 		add	r1, r2, r2, lsl #2
 145 001a A0EB4101 		sub	r1, r0, r1, lsl #1
 146 001e 3031     		adds	r1, r1, #48
 147 0020 C9B2     		uxtb	r1, r1
 148              		.loc 1 91 0
 149 0022 1C46     		mov	r4, r3
 150              		.loc 1 99 0
 151 0024 03F8011C 		strb	r1, [r3, #-1]
 152              	.LVL7:
 153              		.loc 1 98 0
 154 0028 1046     		mov	r0, r2
 155 002a 0133     		adds	r3, r3, #1
 156              	.LVL8:
 157 002c 002A     		cmp	r2, #0
 158 002e EFD1     		bne	.L13
 159              		.loc 1 100 0 discriminator 1
 160 0030 6B46     		mov	r3, sp
 161 0032 9C42     		cmp	r4, r3
 162 0034 0AD9     		bls	.L10
 163 0036 0B4E     		ldr	r6, .L20+4
 164 0038 02E0     		b	.L16
 165              	.LVL9:
 166              	.L19:
 167 003a 14F8021C 		ldrb	r1, [r4, #-2]	@ zero_extendqisi2
 168 003e 013C     		subs	r4, r4, #1
 169              	.L16:
 170              		.loc 1 101 0
 171 0040 3068     		ldr	r0, [r6, #0]
ARM GAS  /tmp/ccwebeYi.s 			page 4


 172 0042 0368     		ldr	r3, [r0, #0]
 173 0044 9B68     		ldr	r3, [r3, #8]
 174 0046 9847     		blx	r3
 175              	.LVL10:
 176              		.loc 1 100 0
 177 0048 AC42     		cmp	r4, r5
 178 004a F6D1     		bne	.L19
 179              	.L10:
 180              		.loc 1 103 0
 181 004c 04B0     		add	sp, sp, #16
 182 004e 70BD     		pop	{r4, r5, r6, pc}
 183              	.LVL11:
 184              	.L18:
 185              	.LBB55:
 186              	.LBB53:
 187              		.loc 1 95 0
 188 0050 044B     		ldr	r3, .L20+4
 189 0052 1868     		ldr	r0, [r3, #0]
 190              	.LVL12:
 191 0054 0368     		ldr	r3, [r0, #0]
 192 0056 3021     		movs	r1, #48
 193 0058 9B68     		ldr	r3, [r3, #8]
 194 005a 9847     		blx	r3
 195              	.LVL13:
 196 005c F6E7     		b	.L10
 197              	.L21:
 198 005e 00BF     		.align	2
 199              	.L20:
 200 0060 CDCCCCCC 		.word	-858993459
 201 0064 00000000 		.word	.LANCHOR1
 202              	.LBE53:
 203              	.LBE55:
 204              		.cfi_endproc
 205              	.LFE118:
 206              		.size	test_printn, .-test_printn
 207 0068 AFF30080 		.section	.text.test_print,"ax",%progbits
 207      AFF30080 
 208              		.align	2
 209              		.p2align 4,,15
 210              		.global	test_print
 211              		.thumb
 212              		.thumb_func
 213              		.type	test_print, %function
 214              	test_print:
 215              	.LFB119:
 216              		.loc 1 110 0
 217              		.cfi_startproc
 218              		@ args = 0, pretend = 0, frame = 0
 219              		@ frame_needed = 0, uses_anonymous_args = 0
 220              	.LVL14:
 221 0000 38B5     		push	{r3, r4, r5, lr}
 222              	.LCFI3:
 223              		.cfi_def_cfa_offset 16
 224              		.cfi_offset 3, -16
 225              		.cfi_offset 4, -12
 226              		.cfi_offset 5, -8
 227              		.cfi_offset 14, -4
ARM GAS  /tmp/ccwebeYi.s 			page 5


 228              		.loc 1 112 0
 229 0002 0178     		ldrb	r1, [r0, #0]	@ zero_extendqisi2
 230 0004 49B1     		cbz	r1, .L22
 231 0006 054D     		ldr	r5, .L27
 232 0008 0446     		mov	r4, r0
 233              	.LVL15:
 234              	.L24:
 235              		.loc 1 113 0
 236 000a 2868     		ldr	r0, [r5, #0]
 237 000c 0368     		ldr	r3, [r0, #0]
 238 000e 9B68     		ldr	r3, [r3, #8]
 239 0010 9847     		blx	r3
 240              	.LVL16:
 241              		.loc 1 112 0
 242 0012 14F8011F 		ldrb	r1, [r4, #1]!	@ zero_extendqisi2
 243 0016 0029     		cmp	r1, #0
 244 0018 F7D1     		bne	.L24
 245              	.L22:
 246 001a 38BD     		pop	{r3, r4, r5, pc}
 247              	.L28:
 248              		.align	2
 249              	.L27:
 250 001c 00000000 		.word	.LANCHOR1
 251              		.cfi_endproc
 252              	.LFE119:
 253              		.size	test_print, .-test_print
 254              		.section	.text.test_println,"ax",%progbits
 255              		.align	2
 256              		.p2align 4,,15
 257              		.global	test_println
 258              		.thumb
 259              		.thumb_func
 260              		.type	test_println, %function
 261              	test_println:
 262              	.LFB120:
 263              		.loc 1 121 0
 264              		.cfi_startproc
 265              		@ args = 0, pretend = 0, frame = 0
 266              		@ frame_needed = 0, uses_anonymous_args = 0
 267              	.LVL17:
 268 0000 38B5     		push	{r3, r4, r5, lr}
 269              	.LCFI4:
 270              		.cfi_def_cfa_offset 16
 271              		.cfi_offset 3, -16
 272              		.cfi_offset 4, -12
 273              		.cfi_offset 5, -8
 274              		.cfi_offset 14, -4
 275              	.LBB56:
 276              	.LBB57:
 277              		.loc 1 112 0
 278 0002 0178     		ldrb	r1, [r0, #0]	@ zero_extendqisi2
 279 0004 084D     		ldr	r5, .L35
 280 0006 41B1     		cbz	r1, .L32
 281 0008 0446     		mov	r4, r0
 282              	.LVL18:
 283              	.L31:
 284              		.loc 1 113 0
ARM GAS  /tmp/ccwebeYi.s 			page 6


 285 000a 2868     		ldr	r0, [r5, #0]
 286 000c 0368     		ldr	r3, [r0, #0]
 287 000e 9B68     		ldr	r3, [r3, #8]
 288 0010 9847     		blx	r3
 289              	.LVL19:
 290              		.loc 1 112 0
 291 0012 14F8011F 		ldrb	r1, [r4, #1]!	@ zero_extendqisi2
 292 0016 0029     		cmp	r1, #0
 293 0018 F7D1     		bne	.L31
 294              	.L32:
 295              	.LBE57:
 296              	.LBE56:
 297              		.loc 1 124 0
 298 001a 2868     		ldr	r0, [r5, #0]
 299 001c 0349     		ldr	r1, .L35+4
 300 001e 0368     		ldr	r3, [r0, #0]
 301 0020 0222     		movs	r2, #2
 302 0022 1B68     		ldr	r3, [r3, #0]
 303 0024 9847     		blx	r3
 304              	.LVL20:
 305 0026 38BD     		pop	{r3, r4, r5, pc}
 306              	.L36:
 307              		.align	2
 308              	.L35:
 309 0028 00000000 		.word	.LANCHOR1
 310 002c 00000000 		.word	.LC0
 311              		.cfi_endproc
 312              	.LFE120:
 313              		.size	test_println, .-test_println
 314              		.section	.text.test_emit_token,"ax",%progbits
 315              		.align	2
 316              		.p2align 4,,15
 317              		.global	test_emit_token
 318              		.thumb
 319              		.thumb_func
 320              		.type	test_emit_token, %function
 321              	test_emit_token:
 322              	.LFB123:
 323              		.loc 1 147 0
 324              		.cfi_startproc
 325              		@ args = 0, pretend = 0, frame = 0
 326              		@ frame_needed = 0, uses_anonymous_args = 0
 327              		@ link register save eliminated.
 328              	.LVL21:
 329              	.LBB58:
 330              		.loc 1 149 0
 331 0000 2023     		movs	r3, #32
 332              	.LVL22:
 333              	@ 149 "/home/dpeter/devel/sources/ChibiOS-RT/test/test.c" 1
 334 0002 83F31188 		msr     BASEPRI, r3
 335              	@ 0 "" 2
 336              	.LVL23:
 337              		.thumb
 338              	.LBE58:
 339              		.loc 1 150 0
 340 0006 0449     		ldr	r1, .L38
 341 0008 0A68     		ldr	r2, [r1, #0]
ARM GAS  /tmp/ccwebeYi.s 			page 7


 342 000a 02F8010B 		strb	r0, [r2], #1
 343              	.LBB59:
 344              		.loc 1 151 0
 345 000e 0023     		movs	r3, #0
 346              	.LVL24:
 347              	.LBE59:
 348              		.loc 1 150 0
 349 0010 0A60     		str	r2, [r1, #0]
 350              	.LBB60:
 351              		.loc 1 151 0
 352              	@ 151 "/home/dpeter/devel/sources/ChibiOS-RT/test/test.c" 1
 353 0012 83F31188 		msr     BASEPRI, r3
 354              	@ 0 "" 2
 355              	.LVL25:
 356              		.thumb
 357 0016 7047     		bx	lr
 358              	.L39:
 359              		.align	2
 360              	.L38:
 361 0018 00000000 		.word	.LANCHOR2
 362              	.LBE60:
 363              		.cfi_endproc
 364              	.LFE123:
 365              		.size	test_emit_token, .-test_emit_token
 366 001c AFF30080 		.section	.text._test_fail,"ax",%progbits
 367              		.align	2
 368              		.p2align 4,,15
 369              		.global	_test_fail
 370              		.thumb
 371              		.thumb_func
 372              		.type	_test_fail, %function
 373              	_test_fail:
 374              	.LFB124:
 375              		.loc 1 157 0
 376              		.cfi_startproc
 377              		@ args = 0, pretend = 0, frame = 0
 378              		@ frame_needed = 0, uses_anonymous_args = 0
 379              		@ link register save eliminated.
 380              	.LVL26:
 381              		.loc 1 161 0
 382 0000 044A     		ldr	r2, .L41
 383 0002 1060     		str	r0, [r2, #0]
 384              		.loc 1 159 0
 385 0004 044A     		ldr	r2, .L41+4
 386 0006 0123     		movs	r3, #1
 387 0008 1370     		strb	r3, [r2, #0]
 388              		.loc 1 160 0
 389 000a 044A     		ldr	r2, .L41+8
 390              		.loc 1 163 0
 391 000c 1846     		mov	r0, r3
 392              	.LVL27:
 393              		.loc 1 160 0
 394 000e 1370     		strb	r3, [r2, #0]
 395              		.loc 1 163 0
 396 0010 7047     		bx	lr
 397              	.L42:
 398 0012 00BF     		.align	2
ARM GAS  /tmp/ccwebeYi.s 			page 8


 399              	.L41:
 400 0014 00000000 		.word	.LANCHOR5
 401 0018 00000000 		.word	.LANCHOR3
 402 001c 00000000 		.word	.LANCHOR4
 403              		.cfi_endproc
 404              	.LFE124:
 405              		.size	_test_fail, .-_test_fail
 406              		.section	.text._test_assert,"ax",%progbits
 407              		.align	2
 408              		.p2align 4,,15
 409              		.global	_test_assert
 410              		.thumb
 411              		.thumb_func
 412              		.type	_test_assert, %function
 413              	_test_assert:
 414              	.LFB125:
 415              		.loc 1 165 0
 416              		.cfi_startproc
 417              		@ args = 0, pretend = 0, frame = 0
 418              		@ frame_needed = 0, uses_anonymous_args = 0
 419              		@ link register save eliminated.
 420              	.LVL28:
 421              		.loc 1 167 0
 422 0000 41B9     		cbnz	r1, .L45
 423              	.LVL29:
 424              	.LBB61:
 425              	.LBB62:
 426              		.loc 1 159 0
 427 0002 054A     		ldr	r2, .L46
 428 0004 0123     		movs	r3, #1
 429 0006 1370     		strb	r3, [r2, #0]
 430              		.loc 1 160 0
 431 0008 044A     		ldr	r2, .L46+4
 432 000a 1370     		strb	r3, [r2, #0]
 433              		.loc 1 161 0
 434 000c 044A     		ldr	r2, .L46+8
 435 000e 1060     		str	r0, [r2, #0]
 436              	.LBE62:
 437              	.LBE61:
 438              		.loc 1 168 0
 439 0010 1846     		mov	r0, r3
 440              	.LVL30:
 441 0012 7047     		bx	lr
 442              	.LVL31:
 443              	.L45:
 444              		.loc 1 169 0
 445 0014 0020     		movs	r0, #0
 446              	.LVL32:
 447              		.loc 1 170 0
 448 0016 7047     		bx	lr
 449              	.L47:
 450              		.align	2
 451              	.L46:
 452 0018 00000000 		.word	.LANCHOR3
 453 001c 00000000 		.word	.LANCHOR4
 454 0020 00000000 		.word	.LANCHOR5
 455              		.cfi_endproc
ARM GAS  /tmp/ccwebeYi.s 			page 9


 456              	.LFE125:
 457              		.size	_test_assert, .-_test_assert
 458 0024 AFF30080 		.section	.text._test_assert_sequence,"ax",%progbits
 458      AFF30080 
 458      AFF30080 
 459              		.align	2
 460              		.p2align 4,,15
 461              		.global	_test_assert_sequence
 462              		.thumb
 463              		.thumb_func
 464              		.type	_test_assert_sequence, %function
 465              	_test_assert_sequence:
 466              	.LFB126:
 467              		.loc 1 172 0
 468              		.cfi_startproc
 469              		@ args = 0, pretend = 0, frame = 0
 470              		@ frame_needed = 0, uses_anonymous_args = 0
 471              		@ link register save eliminated.
 472              	.LVL33:
 473 0000 F0B4     		push	{r4, r5, r6, r7}
 474              	.LCFI5:
 475              		.cfi_def_cfa_offset 16
 476              		.cfi_offset 4, -16
 477              		.cfi_offset 5, -12
 478              		.cfi_offset 6, -8
 479              		.cfi_offset 7, -4
 480 0002 0F4E     		ldr	r6, .L55
 481              		.loc 1 173 0
 482 0004 0F4F     		ldr	r7, .L55+4
 483 0006 3568     		ldr	r5, [r6, #0]
 484 0008 3B46     		mov	r3, r7
 485              		.loc 1 174 0
 486 000a 04E0     		b	.L49
 487              	.LVL34:
 488              	.L51:
 489              		.loc 1 175 0
 490 000c 11F8014B 		ldrb	r4, [r1], #1	@ zero_extendqisi2
 491              	.LVL35:
 492 0010 1278     		ldrb	r2, [r2, #0]	@ zero_extendqisi2
 493 0012 A242     		cmp	r2, r4
 494 0014 09D1     		bne	.L54
 495              	.L49:
 496              		.loc 1 174 0 discriminator 1
 497 0016 9D42     		cmp	r5, r3
 498 0018 1A46     		mov	r2, r3
 499 001a 03F10103 		add	r3, r3, #1
 500 001e F5D8     		bhi	.L51
 501              		.loc 1 178 0
 502 0020 0B78     		ldrb	r3, [r1, #0]	@ zero_extendqisi2
 503 0022 13B9     		cbnz	r3, .L54
 504              	.LBB63:
 505              	.LBB64:
 506              		.loc 1 132 0
 507 0024 3760     		str	r7, [r6, #0]
 508              	.LBE64:
 509              	.LBE63:
 510              		.loc 1 181 0
ARM GAS  /tmp/ccwebeYi.s 			page 10


 511 0026 1846     		mov	r0, r3
 512              	.LVL36:
 513 0028 07E0     		b	.L50
 514              	.LVL37:
 515              	.L54:
 516              	.LBB65:
 517              	.LBB66:
 518              		.loc 1 159 0
 519 002a 074A     		ldr	r2, .L55+8
 520 002c 0123     		movs	r3, #1
 521 002e 1370     		strb	r3, [r2, #0]
 522              		.loc 1 160 0
 523 0030 064A     		ldr	r2, .L55+12
 524 0032 1370     		strb	r3, [r2, #0]
 525              		.loc 1 161 0
 526 0034 064A     		ldr	r2, .L55+16
 527 0036 1060     		str	r0, [r2, #0]
 528              	.LBE66:
 529              	.LBE65:
 530              		.loc 1 179 0
 531 0038 1846     		mov	r0, r3
 532              	.LVL38:
 533              	.L50:
 534              		.loc 1 182 0
 535 003a F0BC     		pop	{r4, r5, r6, r7}
 536 003c 7047     		bx	lr
 537              	.L56:
 538 003e 00BF     		.align	2
 539              	.L55:
 540 0040 00000000 		.word	.LANCHOR2
 541 0044 00000000 		.word	.LANCHOR6
 542 0048 00000000 		.word	.LANCHOR3
 543 004c 00000000 		.word	.LANCHOR4
 544 0050 00000000 		.word	.LANCHOR5
 545              		.cfi_endproc
 546              	.LFE126:
 547              		.size	_test_assert_sequence, .-_test_assert_sequence
 548 0054 AFF30080 		.section	.text._test_assert_time_window,"ax",%progbits
 548      AFF30080 
 548      AFF30080 
 549              		.align	2
 550              		.p2align 4,,15
 551              		.global	_test_assert_time_window
 552              		.thumb
 553              		.thumb_func
 554              		.type	_test_assert_time_window, %function
 555              	_test_assert_time_window:
 556              	.LFB127:
 557              		.loc 1 184 0
 558              		.cfi_startproc
 559              		@ args = 0, pretend = 0, frame = 0
 560              		@ frame_needed = 0, uses_anonymous_args = 0
 561              		@ link register save eliminated.
 562              	.LVL39:
 563              		.loc 1 186 0
 564 0000 084B     		ldr	r3, .L60
 565 0002 DB68     		ldr	r3, [r3, #12]
ARM GAS  /tmp/ccwebeYi.s 			page 11


 566 0004 521A     		subs	r2, r2, r1
 567              	.LVL40:
 568 0006 5B1A     		subs	r3, r3, r1
 569              	.LVL41:
 570              	.LBB67:
 571              	.LBB68:
 572              		.loc 1 167 0
 573 0008 9342     		cmp	r3, r2
 574 000a 08D3     		bcc	.L59
 575              	.LVL42:
 576              	.LBB69:
 577              	.LBB70:
 578              		.loc 1 159 0
 579 000c 064A     		ldr	r2, .L60+4
 580 000e 0123     		movs	r3, #1
 581 0010 1370     		strb	r3, [r2, #0]
 582              		.loc 1 160 0
 583 0012 064A     		ldr	r2, .L60+8
 584 0014 1370     		strb	r3, [r2, #0]
 585              		.loc 1 161 0
 586 0016 064A     		ldr	r2, .L60+12
 587 0018 1060     		str	r0, [r2, #0]
 588              		.loc 1 168 0
 589 001a 1846     		mov	r0, r3
 590              	.LVL43:
 591 001c 7047     		bx	lr
 592              	.LVL44:
 593              	.L59:
 594              	.LBE70:
 595              	.LBE69:
 596              		.loc 1 169 0
 597 001e 0020     		movs	r0, #0
 598              	.LVL45:
 599              	.LBE68:
 600              	.LBE67:
 601              		.loc 1 187 0
 602 0020 7047     		bx	lr
 603              	.L61:
 604 0022 00BF     		.align	2
 605              	.L60:
 606 0024 00000000 		.word	vtlist
 607 0028 00000000 		.word	.LANCHOR3
 608 002c 00000000 		.word	.LANCHOR4
 609 0030 00000000 		.word	.LANCHOR5
 610              		.cfi_endproc
 611              	.LFE127:
 612              		.size	_test_assert_time_window, .-_test_assert_time_window
 613 0034 AFF30080 		.section	.text.test_terminate_threads,"ax",%progbits
 613      AFF30080 
 613      AFF30080 
 614              		.align	2
 615              		.p2align 4,,15
 616              		.global	test_terminate_threads
 617              		.thumb
 618              		.thumb_func
 619              		.type	test_terminate_threads, %function
 620              	test_terminate_threads:
ARM GAS  /tmp/ccwebeYi.s 			page 12


 621              	.LFB128:
 622              		.loc 1 196 0
 623              		.cfi_startproc
 624              		@ args = 0, pretend = 0, frame = 0
 625              		@ frame_needed = 0, uses_anonymous_args = 0
 626              	.LVL46:
 627 0000 38B5     		push	{r3, r4, r5, lr}
 628              	.LCFI6:
 629              		.cfi_def_cfa_offset 16
 630              		.cfi_offset 3, -16
 631              		.cfi_offset 4, -12
 632              		.cfi_offset 5, -8
 633              		.cfi_offset 14, -4
 634              		.loc 1 196 0
 635 0002 064C     		ldr	r4, .L69
 636 0004 04F11405 		add	r5, r4, #20
 637              	.LVL47:
 638              	.L64:
 639              		.loc 1 200 0
 640 0008 54F8043F 		ldr	r3, [r4, #4]!
 641              		.loc 1 201 0
 642 000c 1846     		mov	r0, r3
 643              		.loc 1 200 0
 644 000e 0BB1     		cbz	r3, .L63
 645              		.loc 1 201 0
 646 0010 FFF7FEFF 		bl	chThdTerminate
 647              	.LVL48:
 648              	.L63:
 649              		.loc 1 199 0
 650 0014 AC42     		cmp	r4, r5
 651 0016 F7D1     		bne	.L64
 652              		.loc 1 202 0
 653 0018 38BD     		pop	{r3, r4, r5, pc}
 654              	.L70:
 655 001a 00BF     		.align	2
 656              	.L69:
 657 001c FCFFFFFF 		.word	.LANCHOR7-4
 658              		.cfi_endproc
 659              	.LFE128:
 660              		.size	test_terminate_threads, .-test_terminate_threads
 661              		.section	.text.test_wait_threads,"ax",%progbits
 662              		.align	2
 663              		.p2align 4,,15
 664              		.global	test_wait_threads
 665              		.thumb
 666              		.thumb_func
 667              		.type	test_wait_threads, %function
 668              	test_wait_threads:
 669              	.LFB129:
 670              		.loc 1 207 0
 671              		.cfi_startproc
 672              		@ args = 0, pretend = 0, frame = 0
 673              		@ frame_needed = 0, uses_anonymous_args = 0
 674              	.LVL49:
 675 0000 70B5     		push	{r4, r5, r6, lr}
 676              	.LCFI7:
 677              		.cfi_def_cfa_offset 16
ARM GAS  /tmp/ccwebeYi.s 			page 13


 678              		.cfi_offset 4, -16
 679              		.cfi_offset 5, -12
 680              		.cfi_offset 6, -8
 681              		.cfi_offset 14, -4
 682 0002 074C     		ldr	r4, .L78
 683              		.loc 1 213 0
 684 0004 0026     		movs	r6, #0
 685              		.loc 1 207 0
 686 0006 04F11405 		add	r5, r4, #20
 687              	.LVL50:
 688              	.L73:
 689              		.loc 1 211 0
 690 000a 54F8043B 		ldr	r3, [r4], #4
 691              		.loc 1 212 0
 692 000e 1846     		mov	r0, r3
 693              		.loc 1 211 0
 694 0010 1BB1     		cbz	r3, .L72
 695              		.loc 1 212 0
 696 0012 FFF7FEFF 		bl	chThdWait
 697              	.LVL51:
 698              		.loc 1 213 0
 699 0016 44F8046C 		str	r6, [r4, #-4]
 700              	.L72:
 701              		.loc 1 210 0
 702 001a AC42     		cmp	r4, r5
 703 001c F5D1     		bne	.L73
 704              		.loc 1 215 0
 705 001e 70BD     		pop	{r4, r5, r6, pc}
 706              	.L79:
 707              		.align	2
 708              	.L78:
 709 0020 00000000 		.word	.LANCHOR7
 710              		.cfi_endproc
 711              	.LFE129:
 712              		.size	test_wait_threads, .-test_wait_threads
 713 0024 AFF30080 		.section	.text.test_cpu_pulse,"ax",%progbits
 713      AFF30080 
 713      AFF30080 
 714              		.align	2
 715              		.p2align 4,,15
 716              		.global	test_cpu_pulse
 717              		.thumb
 718              		.thumb_func
 719              		.type	test_cpu_pulse, %function
 720              	test_cpu_pulse:
 721              	.LFB130:
 722              		.loc 1 224 0
 723              		.cfi_startproc
 724              		@ args = 0, pretend = 0, frame = 0
 725              		@ frame_needed = 0, uses_anonymous_args = 0
 726              		@ link register save eliminated.
 727              	.LVL52:
 728              		.loc 1 227 0
 729 0000 0F4B     		ldr	r3, .L92
 730              		.loc 1 224 0
 731 0002 30B4     		push	{r4, r5}
 732              	.LCFI8:
ARM GAS  /tmp/ccwebeYi.s 			page 14


 733              		.cfi_def_cfa_offset 8
 734              		.cfi_offset 4, -8
 735              		.cfi_offset 5, -4
 736              		.loc 1 227 0
 737 0004 9C69     		ldr	r4, [r3, #24]
 738              		.loc 1 228 0
 739 0006 0F4D     		ldr	r5, .L92+4
 740              		.loc 1 227 0
 741 0008 226A     		ldr	r2, [r4, #32]
 742              	.LVL53:
 743              		.loc 1 228 0
 744 000a 4FF47A73 		mov	r3, #1000
 745 000e 03FB00F0 		mul	r0, r3, r0
 746              	.LVL54:
 747 0012 411E     		subs	r1, r0, #1
 748 0014 A5FB0131 		umull	r3, r1, r5, r1
 749 0018 501C     		adds	r0, r2, #1
 750 001a 00EB9111 		add	r1, r0, r1, lsr #6
 751              	.LVL55:
 752              	.L90:
 753              		.loc 1 235 0
 754 001e 8A42     		cmp	r2, r1
 755              		.loc 1 230 0
 756 0020 236A     		ldr	r3, [r4, #32]
 757              	.LVL56:
 758              		.loc 1 235 0
 759 0022 03D2     		bcs	.L81
 760              		.loc 1 235 0 is_stmt 0 discriminator 1
 761 0024 9A42     		cmp	r2, r3
 762 0026 03D9     		bls	.L91
 763              	.LVL57:
 764              	.L88:
 765              		.loc 1 237 0 is_stmt 1
 766 0028 30BC     		pop	{r4, r5}
 767 002a 7047     		bx	lr
 768              	.LVL58:
 769              	.L81:
 770              		.loc 1 236 0
 771 002c 9A42     		cmp	r2, r3
 772 002e F6D9     		bls	.L90
 773              	.L91:
 774              		.loc 1 236 0 is_stmt 0 discriminator 2
 775 0030 9942     		cmp	r1, r3
 776 0032 94BF     		ite	ls
 777 0034 0023     		movls	r3, #0
 778              	.LVL59:
 779 0036 0123     		movhi	r3, #1
 780 0038 002B     		cmp	r3, #0
 781 003a F0D1     		bne	.L90
 782 003c F4E7     		b	.L88
 783              	.L93:
 784 003e 00BF     		.align	2
 785              	.L92:
 786 0040 00000000 		.word	rlist
 787 0044 D34D6210 		.word	274877907
 788              		.cfi_endproc
 789              	.LFE130:
ARM GAS  /tmp/ccwebeYi.s 			page 15


 790              		.size	test_cpu_pulse, .-test_cpu_pulse
 791 0048 AFF30080 		.section	.text.test_wait_tick,"ax",%progbits
 791      AFF30080 
 792              		.align	2
 793              		.p2align 4,,15
 794              		.global	test_wait_tick
 795              		.thumb
 796              		.thumb_func
 797              		.type	test_wait_tick, %function
 798              	test_wait_tick:
 799              	.LFB131:
 800              		.loc 1 245 0 is_stmt 1
 801              		.cfi_startproc
 802              		@ args = 0, pretend = 0, frame = 0
 803              		@ frame_needed = 0, uses_anonymous_args = 0
 804 0000 08B5     		push	{r3, lr}
 805              	.LCFI9:
 806              		.cfi_def_cfa_offset 8
 807              		.cfi_offset 3, -8
 808              		.cfi_offset 14, -4
 809              		.loc 1 247 0
 810 0002 0120     		movs	r0, #1
 811 0004 FFF7FEFF 		bl	chThdSleep
 812              	.LVL60:
 813              		.loc 1 248 0
 814 0008 014B     		ldr	r3, .L95
 815 000a D868     		ldr	r0, [r3, #12]
 816              		.loc 1 249 0
 817 000c 08BD     		pop	{r3, pc}
 818              	.L96:
 819 000e 00BF     		.align	2
 820              	.L95:
 821 0010 00000000 		.word	vtlist
 822              		.cfi_endproc
 823              	.LFE131:
 824              		.size	test_wait_tick, .-test_wait_tick
 825 0014 AFF30080 		.section	.text.test_start_timer,"ax",%progbits
 825      AFF30080 
 825      AFF30080 
 826              		.align	2
 827              		.p2align 4,,15
 828              		.global	test_start_timer
 829              		.thumb
 830              		.thumb_func
 831              		.type	test_start_timer, %function
 832              	test_start_timer:
 833              	.LFB133:
 834              		.loc 1 272 0
 835              		.cfi_startproc
 836              		@ args = 0, pretend = 0, frame = 0
 837              		@ frame_needed = 0, uses_anonymous_args = 0
 838              	.LVL61:
 839 0000 38B5     		push	{r3, r4, r5, lr}
 840              	.LCFI10:
 841              		.cfi_def_cfa_offset 16
 842              		.cfi_offset 3, -16
 843              		.cfi_offset 4, -12
ARM GAS  /tmp/ccwebeYi.s 			page 16


 844              		.cfi_offset 5, -8
 845              		.cfi_offset 14, -4
 846              		.loc 1 275 0
 847 0002 0C4B     		ldr	r3, .L98
 848 0004 0024     		movs	r4, #0
 849 0006 1C70     		strb	r4, [r3, #0]
 850              	.LVL62:
 851              	.LBB71:
 852              		.loc 1 276 0
 853 0008 2023     		movs	r3, #32
 854              	.LVL63:
 855              	@ 276 "/home/dpeter/devel/sources/ChibiOS-RT/test/test.c" 1
 856 000a 83F31188 		msr     BASEPRI, r3
 857              	@ 0 "" 2
 858              	.LVL64:
 859              		.thumb
 860              	.LBE71:
 861              		.loc 1 274 0
 862 000e 4FF47A71 		mov	r1, #1000
 863 0012 01FB00F1 		mul	r1, r1, r0
 864 0016 084B     		ldr	r3, .L98+4
 865              	.LVL65:
 866              		.loc 1 276 0
 867 0018 0848     		ldr	r0, .L98+8
 868              	.LVL66:
 869 001a 094A     		ldr	r2, .L98+12
 870              		.loc 1 274 0
 871 001c 0139     		subs	r1, r1, #1
 872 001e A3FB0151 		umull	r5, r1, r3, r1
 873 0022 8909     		lsrs	r1, r1, #6
 874              		.loc 1 276 0
 875 0024 2346     		mov	r3, r4
 876 0026 0131     		adds	r1, r1, #1
 877 0028 FFF7FEFF 		bl	chVTSetI
 878              	.LVL67:
 879              	.LBB72:
 880 002c 2346     		mov	r3, r4
 881              	.LVL68:
 882              	@ 276 "/home/dpeter/devel/sources/ChibiOS-RT/test/test.c" 1
 883 002e 83F31188 		msr     BASEPRI, r3
 884              	@ 0 "" 2
 885              	.LVL69:
 886              		.thumb
 887 0032 38BD     		pop	{r3, r4, r5, pc}
 888              	.L99:
 889              		.align	2
 890              	.L98:
 891 0034 00000000 		.word	.LANCHOR0
 892 0038 D34D6210 		.word	274877907
 893 003c 00000000 		.word	.LANCHOR8
 894 0040 00000000 		.word	tmr
 895              	.LBE72:
 896              		.cfi_endproc
 897              	.LFE133:
 898              		.size	test_start_timer, .-test_start_timer
 899 0044 AFF30080 		.section	.text.TestThread,"ax",%progbits
 899      AFF30080 
ARM GAS  /tmp/ccwebeYi.s 			page 17


 899      AFF30080 
 900              		.align	2
 901              		.p2align 4,,15
 902              		.global	TestThread
 903              		.thumb
 904              		.thumb_func
 905              		.type	TestThread, %function
 906              	TestThread:
 907              	.LFB136:
 908              		.loc 1 314 0
 909              		.cfi_startproc
 910              		@ args = 0, pretend = 0, frame = 8
 911              		@ frame_needed = 0, uses_anonymous_args = 0
 912              	.LVL70:
 913 0000 2DE9F04F 		push	{r4, r5, r6, r7, r8, r9, sl, fp, lr}
 914              	.LCFI11:
 915              		.cfi_def_cfa_offset 36
 916              		.cfi_offset 4, -36
 917              		.cfi_offset 5, -32
 918              		.cfi_offset 6, -28
 919              		.cfi_offset 7, -24
 920              		.cfi_offset 8, -20
 921              		.cfi_offset 9, -16
 922              		.cfi_offset 10, -12
 923              		.cfi_offset 11, -8
 924              		.cfi_offset 14, -4
 925              		.loc 1 317 0
 926 0004 994C     		ldr	r4, .L173
 927 0006 9A4D     		ldr	r5, .L173+4
 928 0008 2060     		str	r0, [r4, #0]
 929              		.loc 1 314 0
 930 000a 83B0     		sub	sp, sp, #12
 931              	.LCFI12:
 932              		.cfi_def_cfa_offset 48
 933              		.loc 1 318 0
 934 000c 9948     		ldr	r0, .L173+8
 935              	.LVL71:
 936 000e FFF7FEFF 		bl	test_println
 937              	.LVL72:
 938              		.loc 1 319 0
 939 0012 9948     		ldr	r0, .L173+12
 940 0014 FFF7FEFF 		bl	test_println
 941              	.LVL73:
 942              		.loc 1 320 0
 943 0018 9848     		ldr	r0, .L173+16
 944 001a FFF7FEFF 		bl	test_println
 945              	.LVL74:
 946              		.loc 1 112 0
 947 001e 2A21     		movs	r1, #42
 948              	.LVL75:
 949              	.L101:
 950              	.LBB109:
 951              	.LBB110:
 952              		.loc 1 113 0
 953 0020 2068     		ldr	r0, [r4, #0]
 954 0022 0368     		ldr	r3, [r0, #0]
 955 0024 9B68     		ldr	r3, [r3, #8]
ARM GAS  /tmp/ccwebeYi.s 			page 18


 956 0026 9847     		blx	r3
 957              	.LVL76:
 958              		.loc 1 112 0
 959 0028 15F8011F 		ldrb	r1, [r5, #1]!	@ zero_extendqisi2
 960 002c 0029     		cmp	r1, #0
 961 002e F7D1     		bne	.L101
 962              	.LBE110:
 963              	.LBE109:
 964              		.loc 1 322 0
 965 0030 9348     		ldr	r0, .L173+20
 966 0032 944D     		ldr	r5, .L173+24
 967 0034 FFF7FEFF 		bl	test_println
 968              	.LVL77:
 969              		.loc 1 112 0
 970 0038 2A21     		movs	r1, #42
 971              	.LVL78:
 972              	.L103:
 973              	.LBB111:
 974              	.LBB112:
 975              		.loc 1 113 0
 976 003a 2068     		ldr	r0, [r4, #0]
 977 003c 0368     		ldr	r3, [r0, #0]
 978 003e 9B68     		ldr	r3, [r3, #8]
 979 0040 9847     		blx	r3
 980              	.LVL79:
 981              		.loc 1 112 0
 982 0042 15F8011F 		ldrb	r1, [r5, #1]!	@ zero_extendqisi2
 983 0046 0029     		cmp	r1, #0
 984 0048 F7D1     		bne	.L103
 985              	.LBE112:
 986              	.LBE111:
 987              		.loc 1 324 0
 988 004a 8F48     		ldr	r0, .L173+28
 989 004c 8F4D     		ldr	r5, .L173+32
 990 004e FFF7FEFF 		bl	test_println
 991              	.LVL80:
 992              		.loc 1 112 0
 993 0052 2A21     		movs	r1, #42
 994              	.LVL81:
 995              	.L105:
 996              	.LBB113:
 997              	.LBB114:
 998              		.loc 1 113 0
 999 0054 2068     		ldr	r0, [r4, #0]
 1000 0056 0368     		ldr	r3, [r0, #0]
 1001 0058 9B68     		ldr	r3, [r3, #8]
 1002 005a 9847     		blx	r3
 1003              	.LVL82:
 1004              		.loc 1 112 0
 1005 005c 15F8011F 		ldrb	r1, [r5, #1]!	@ zero_extendqisi2
 1006 0060 0029     		cmp	r1, #0
 1007 0062 F7D1     		bne	.L105
 1008              	.LBE114:
 1009              	.LBE113:
 1010              		.loc 1 327 0
 1011 0064 8A48     		ldr	r0, .L173+36
 1012 0066 8B4D     		ldr	r5, .L173+40
ARM GAS  /tmp/ccwebeYi.s 			page 19


 1013 0068 FFF7FEFF 		bl	test_println
 1014              	.LVL83:
 1015              		.loc 1 112 0
 1016 006c 2A21     		movs	r1, #42
 1017              	.LVL84:
 1018              	.L107:
 1019              	.LBB115:
 1020              	.LBB116:
 1021              		.loc 1 113 0
 1022 006e 2068     		ldr	r0, [r4, #0]
 1023 0070 0368     		ldr	r3, [r0, #0]
 1024 0072 9B68     		ldr	r3, [r3, #8]
 1025 0074 9847     		blx	r3
 1026              	.LVL85:
 1027              		.loc 1 112 0
 1028 0076 15F8011F 		ldrb	r1, [r5, #1]!	@ zero_extendqisi2
 1029 007a 0029     		cmp	r1, #0
 1030 007c F7D1     		bne	.L107
 1031              	.LBE116:
 1032              	.LBE115:
 1033              		.loc 1 330 0
 1034 007e 8648     		ldr	r0, .L173+44
 1035 0080 864D     		ldr	r5, .L173+48
 1036 0082 FFF7FEFF 		bl	test_println
 1037              	.LVL86:
 1038              		.loc 1 112 0
 1039 0086 2A21     		movs	r1, #42
 1040              	.LVL87:
 1041              	.L109:
 1042              	.LBB117:
 1043              	.LBB118:
 1044              		.loc 1 113 0
 1045 0088 2068     		ldr	r0, [r4, #0]
 1046 008a 0368     		ldr	r3, [r0, #0]
 1047 008c 9B68     		ldr	r3, [r3, #8]
 1048 008e 9847     		blx	r3
 1049              	.LVL88:
 1050              		.loc 1 112 0
 1051 0090 15F8011F 		ldrb	r1, [r5, #1]!	@ zero_extendqisi2
 1052 0094 0029     		cmp	r1, #0
 1053 0096 F7D1     		bne	.L109
 1054              	.LBE118:
 1055              	.LBE117:
 1056              		.loc 1 333 0
 1057 0098 8148     		ldr	r0, .L173+52
 1058 009a 824D     		ldr	r5, .L173+56
 1059 009c FFF7FEFF 		bl	test_println
 1060              	.LVL89:
 1061              		.loc 1 112 0
 1062 00a0 2A21     		movs	r1, #42
 1063              	.LVL90:
 1064              	.L111:
 1065              	.LBB119:
 1066              	.LBB120:
 1067              		.loc 1 113 0
 1068 00a2 2068     		ldr	r0, [r4, #0]
 1069 00a4 0368     		ldr	r3, [r0, #0]
ARM GAS  /tmp/ccwebeYi.s 			page 20


 1070 00a6 9B68     		ldr	r3, [r3, #8]
 1071 00a8 9847     		blx	r3
 1072              	.LVL91:
 1073              		.loc 1 112 0
 1074 00aa 15F8011F 		ldrb	r1, [r5, #1]!	@ zero_extendqisi2
 1075 00ae 0029     		cmp	r1, #0
 1076 00b0 F7D1     		bne	.L111
 1077              	.LBE120:
 1078              	.LBE119:
 1079              		.loc 1 337 0
 1080 00b2 7D48     		ldr	r0, .L173+60
 1081 00b4 7D4D     		ldr	r5, .L173+64
 1082 00b6 FFF7FEFF 		bl	test_println
 1083              	.LVL92:
 1084              		.loc 1 112 0
 1085 00ba 2A21     		movs	r1, #42
 1086              	.LVL93:
 1087              	.L113:
 1088              	.LBB121:
 1089              	.LBB122:
 1090              		.loc 1 113 0
 1091 00bc 2068     		ldr	r0, [r4, #0]
 1092 00be 0368     		ldr	r3, [r0, #0]
 1093 00c0 9B68     		ldr	r3, [r3, #8]
 1094 00c2 9847     		blx	r3
 1095              	.LVL94:
 1096              		.loc 1 112 0
 1097 00c4 15F8011F 		ldrb	r1, [r5, #1]!	@ zero_extendqisi2
 1098 00c8 0029     		cmp	r1, #0
 1099 00ca F7D1     		bne	.L113
 1100              	.LBE122:
 1101              	.LBE121:
 1102              		.loc 1 341 0
 1103 00cc 7848     		ldr	r0, .L173+68
 1104 00ce 794D     		ldr	r5, .L173+72
 1105 00d0 FFF7FEFF 		bl	test_println
 1106              	.LVL95:
 1107              		.loc 1 112 0
 1108 00d4 2A21     		movs	r1, #42
 1109              	.LVL96:
 1110              	.L115:
 1111              	.LBB123:
 1112              	.LBB124:
 1113              		.loc 1 113 0
 1114 00d6 2068     		ldr	r0, [r4, #0]
 1115 00d8 0368     		ldr	r3, [r0, #0]
 1116 00da 9B68     		ldr	r3, [r3, #8]
 1117 00dc 9847     		blx	r3
 1118              	.LVL97:
 1119              		.loc 1 112 0
 1120 00de 15F8011F 		ldrb	r1, [r5, #1]!	@ zero_extendqisi2
 1121 00e2 0029     		cmp	r1, #0
 1122 00e4 F7D1     		bne	.L115
 1123 00e6 744A     		ldr	r2, .L173+76
 1124              	.LBE124:
 1125              	.LBE123:
 1126              		.loc 1 345 0
ARM GAS  /tmp/ccwebeYi.s 			page 21


 1127 00e8 7448     		ldr	r0, .L173+80
 1128 00ea 8DE80600 		stmia	sp, {r1, r2}
 1129 00ee FFF7FEFF 		bl	test_println
 1130              	.LVL98:
 1131              		.loc 1 347 0
 1132 00f2 6048     		ldr	r0, .L173+8
 1133              	.LBB125:
 1134              	.LBB126:
 1135              	.LBB127:
 1136              	.LBB128:
 1137              		.loc 1 132 0
 1138 00f4 724E     		ldr	r6, .L173+84
 1139 00f6 DFF80892 		ldr	r9, .L173+148
 1140              	.LBE128:
 1141              	.LBE127:
 1142              	.LBE126:
 1143              	.LBE125:
 1144              		.loc 1 349 0
 1145 00fa 724F     		ldr	r7, .L173+88
 1146              		.loc 1 347 0
 1147 00fc FFF7FEFF 		bl	test_println
 1148              	.LVL99:
 1149              		.loc 1 350 0
 1150 0100 0099     		ldr	r1, [sp, #0]
 1151              		.loc 1 349 0
 1152 0102 714B     		ldr	r3, .L173+92
 1153              		.loc 1 350 0
 1154 0104 8A46     		mov	sl, r1
 1155              		.loc 1 349 0
 1156 0106 1970     		strb	r1, [r3, #0]
 1157              	.LVL100:
 1158              	.L140:
 1159 0108 0AF1010A 		add	sl, sl, #1
 1160              		.loc 1 112 0 discriminator 1
 1161 010c 4FF00008 		mov	r8, #0
 1162              	.L169:
 1163              	.LVL101:
 1164              		.loc 1 353 0 discriminator 1
 1165 0110 57F8043B 		ldr	r3, [r7], #4
 1166 0114 002B     		cmp	r3, #0
 1167 0116 00F08380 		beq	.L171
 1168              	.L134:
 1169 011a 6C4D     		ldr	r5, .L173+96
 1170              		.loc 1 354 0
 1171 011c FFF7FEFF 		bl	print_line
 1172              	.LVL102:
 1173              		.loc 1 112 0
 1174 0120 2D21     		movs	r1, #45
 1175              	.LVL103:
 1176              	.L117:
 1177              	.LBB134:
 1178              	.LBB135:
 1179              		.loc 1 113 0
 1180 0122 2068     		ldr	r0, [r4, #0]
 1181 0124 0368     		ldr	r3, [r0, #0]
 1182 0126 9B68     		ldr	r3, [r3, #8]
 1183 0128 9847     		blx	r3
ARM GAS  /tmp/ccwebeYi.s 			page 22


 1184              	.LVL104:
 1185              		.loc 1 112 0
 1186 012a 15F8011F 		ldrb	r1, [r5, #1]!	@ zero_extendqisi2
 1187 012e 0029     		cmp	r1, #0
 1188 0130 F7D1     		bne	.L117
 1189              	.LBE135:
 1190              	.LBE134:
 1191              		.loc 1 356 0
 1192 0132 5046     		mov	r0, sl
 1193 0134 FFF7FEFF 		bl	test_printn
 1194              	.LVL105:
 1195              	.LBB136:
 1196              	.LBB137:
 1197              		.loc 1 113 0
 1198 0138 4C4B     		ldr	r3, .L173
 1199 013a 654D     		ldr	r5, .L173+100
 1200 013c 1868     		ldr	r0, [r3, #0]
 1201              	.LVL106:
 1202 013e 0368     		ldr	r3, [r0, #0]
 1203 0140 2E21     		movs	r1, #46
 1204 0142 9B68     		ldr	r3, [r3, #8]
 1205              	.LBE137:
 1206              	.LBE136:
 1207              		.loc 1 358 0
 1208 0144 08F10108 		add	r8, r8, #1
 1209              	.LVL107:
 1210              	.LBB139:
 1211              	.LBB138:
 1212              		.loc 1 113 0
 1213 0148 9847     		blx	r3
 1214              	.LVL108:
 1215              	.LBE138:
 1216              	.LBE139:
 1217              		.loc 1 358 0
 1218 014a 4046     		mov	r0, r8
 1219 014c FFF7FEFF 		bl	test_printn
 1220              	.LVL109:
 1221              		.loc 1 112 0
 1222 0150 2021     		movs	r1, #32
 1223              	.LVL110:
 1224              	.L119:
 1225              	.LBB140:
 1226              	.LBB141:
 1227              		.loc 1 113 0
 1228 0152 2068     		ldr	r0, [r4, #0]
 1229 0154 0368     		ldr	r3, [r0, #0]
 1230 0156 9B68     		ldr	r3, [r3, #8]
 1231 0158 9847     		blx	r3
 1232              	.LVL111:
 1233              		.loc 1 112 0
 1234 015a 15F8011F 		ldrb	r1, [r5, #1]!	@ zero_extendqisi2
 1235 015e 0029     		cmp	r1, #0
 1236 0160 F7D1     		bne	.L119
 1237              	.LBE141:
 1238              	.LBE140:
 1239              		.loc 1 360 0
 1240 0162 57F8043C 		ldr	r3, [r7, #-4]
ARM GAS  /tmp/ccwebeYi.s 			page 23


 1241 0166 1D68     		ldr	r5, [r3, #0]
 1242              	.LVL112:
 1243              	.LBB142:
 1244              	.LBB143:
 1245              		.loc 1 112 0
 1246 0168 2978     		ldrb	r1, [r5, #0]	@ zero_extendqisi2
 1247 016a 39B1     		cbz	r1, .L124
 1248              	.LVL113:
 1249              	.L123:
 1250              		.loc 1 113 0
 1251 016c 2068     		ldr	r0, [r4, #0]
 1252 016e 0368     		ldr	r3, [r0, #0]
 1253 0170 9B68     		ldr	r3, [r3, #8]
 1254 0172 9847     		blx	r3
 1255              	.LVL114:
 1256              		.loc 1 112 0
 1257 0174 15F8011F 		ldrb	r1, [r5, #1]!	@ zero_extendqisi2
 1258 0178 0029     		cmp	r1, #0
 1259 017a F7D1     		bne	.L123
 1260              	.L124:
 1261              	.LBE143:
 1262              	.LBE142:
 1263              		.loc 1 361 0
 1264 017c 5548     		ldr	r0, .L173+104
 1265              	.LBB144:
 1266              	.LBB131:
 1267              		.loc 1 287 0
 1268 017e 564D     		ldr	r5, .L173+108
 1269              	.LBE131:
 1270              	.LBE144:
 1271              		.loc 1 361 0
 1272 0180 FFF7FEFF 		bl	test_println
 1273              	.LVL115:
 1274              		.loc 1 363 0
 1275 0184 C820     		movs	r0, #200
 1276 0186 FFF7FEFF 		bl	chThdSleep
 1277              	.LVL116:
 1278              	.LBB145:
 1279              	.LBB132:
 1280              		.loc 1 289 0
 1281 018a 544A     		ldr	r2, .L173+112
 1282              	.LBE132:
 1283              	.LBE145:
 1284              		.loc 1 365 0
 1285 018c 57F804BC 		ldr	fp, [r7, #-4]
 1286              	.LVL117:
 1287              	.LBB146:
 1288              	.LBB133:
 1289              	.LBB130:
 1290              	.LBB129:
 1291              		.loc 1 132 0
 1292 0190 C6F80090 		str	r9, [r6, #0]
 1293              	.LBE129:
 1294              	.LBE130:
 1295              		.loc 1 287 0
 1296 0194 0023     		movs	r3, #0
 1297              		.loc 1 289 0
ARM GAS  /tmp/ccwebeYi.s 			page 24


 1298 0196 1360     		str	r3, [r2, #0]
 1299 0198 5360     		str	r3, [r2, #4]
 1300 019a 9360     		str	r3, [r2, #8]
 1301 019c D360     		str	r3, [r2, #12]
 1302 019e 1361     		str	r3, [r2, #16]
 1303              		.loc 1 291 0
 1304 01a0 DBF80420 		ldr	r2, [fp, #4]
 1305              		.loc 1 287 0
 1306 01a4 2B70     		strb	r3, [r5, #0]
 1307              	.LVL118:
 1308              		.loc 1 291 0
 1309 01a6 02B1     		cbz	r2, .L122
 1310              		.loc 1 292 0
 1311 01a8 9047     		blx	r2
 1312              	.LVL119:
 1313              	.L122:
 1314              		.loc 1 293 0
 1315 01aa DBF80C30 		ldr	r3, [fp, #12]
 1316 01ae 9847     		blx	r3
 1317              	.LVL120:
 1318              		.loc 1 294 0
 1319 01b0 DBF80830 		ldr	r3, [fp, #8]
 1320 01b4 03B1     		cbz	r3, .L125
 1321              		.loc 1 295 0
 1322 01b6 9847     		blx	r3
 1323              	.LVL121:
 1324              	.L125:
 1325              		.loc 1 297 0
 1326 01b8 FFF7FEFF 		bl	test_wait_threads
 1327              	.LVL122:
 1328              	.LBE133:
 1329              	.LBE146:
 1330              		.loc 1 366 0
 1331 01bc 2B78     		ldrb	r3, [r5, #0]	@ zero_extendqisi2
 1332 01be 002B     		cmp	r3, #0
 1333 01c0 50D0     		beq	.L126
 1334 01c2 474D     		ldr	r5, .L173+116
 1335              		.loc 1 112 0
 1336 01c4 2D21     		movs	r1, #45
 1337              	.L127:
 1338              	.LBB147:
 1339              	.LBB148:
 1340              		.loc 1 113 0
 1341 01c6 2068     		ldr	r0, [r4, #0]
 1342              	.LVL123:
 1343 01c8 0368     		ldr	r3, [r0, #0]
 1344 01ca 9B68     		ldr	r3, [r3, #8]
 1345 01cc 9847     		blx	r3
 1346              	.LVL124:
 1347              		.loc 1 112 0
 1348 01ce 15F8011F 		ldrb	r1, [r5, #1]!	@ zero_extendqisi2
 1349 01d2 0029     		cmp	r1, #0
 1350 01d4 F7D1     		bne	.L127
 1351              	.LBE148:
 1352              	.LBE147:
 1353              		.loc 1 368 0
 1354 01d6 434B     		ldr	r3, .L173+120
ARM GAS  /tmp/ccwebeYi.s 			page 25


 1355 01d8 434D     		ldr	r5, .L173+124
 1356 01da 1868     		ldr	r0, [r3, #0]
 1357 01dc FFF7FEFF 		bl	test_printn
 1358              	.LVL125:
 1359              		.loc 1 112 0
 1360 01e0 2021     		movs	r1, #32
 1361              	.LVL126:
 1362              	.L129:
 1363              	.LBB149:
 1364              	.LBB150:
 1365              		.loc 1 113 0
 1366 01e2 2068     		ldr	r0, [r4, #0]
 1367 01e4 0368     		ldr	r3, [r0, #0]
 1368 01e6 9B68     		ldr	r3, [r3, #8]
 1369 01e8 9847     		blx	r3
 1370              	.LVL127:
 1371              		.loc 1 112 0
 1372 01ea 15F8011F 		ldrb	r1, [r5, #1]!	@ zero_extendqisi2
 1373 01ee 0029     		cmp	r1, #0
 1374 01f0 F7D1     		bne	.L129
 1375              	.LVL128:
 1376              	.LBE150:
 1377              	.LBE149:
 1378              	.LBB151:
 1379              	.LBB152:
 1380              		.loc 1 138 0
 1381 01f2 3368     		ldr	r3, [r6, #0]
 1382 01f4 4B45     		cmp	r3, r9
 1383 01f6 0BD9     		bls	.L133
 1384              	.LBE152:
 1385              	.LBE151:
 1386              		.loc 1 314 0
 1387 01f8 3C4D     		ldr	r5, .L173+128
 1388              	.LVL129:
 1389              	.L132:
 1390              	.LBB154:
 1391              	.LBB153:
 1392              		.loc 1 139 0
 1393 01fa 2068     		ldr	r0, [r4, #0]
 1394 01fc 15F8011C 		ldrb	r1, [r5, #-1]	@ zero_extendqisi2
 1395 0200 0368     		ldr	r3, [r0, #0]
 1396 0202 9B68     		ldr	r3, [r3, #8]
 1397 0204 9847     		blx	r3
 1398              	.LVL130:
 1399              		.loc 1 138 0
 1400 0206 3368     		ldr	r3, [r6, #0]
 1401              	.LVL131:
 1402 0208 9D42     		cmp	r5, r3
 1403 020a 05F10105 		add	r5, r5, #1
 1404              	.LVL132:
 1405 020e F4D3     		bcc	.L132
 1406              	.LVL133:
 1407              	.L133:
 1408              	.LBE153:
 1409              	.LBE154:
 1410              		.loc 1 371 0
 1411 0210 3748     		ldr	r0, .L173+132
ARM GAS  /tmp/ccwebeYi.s 			page 26


 1412 0212 FFF7FEFF 		bl	test_println
 1413              	.LVL134:
 1414              		.loc 1 353 0
 1415 0216 57F8043B 		ldr	r3, [r7], #4
 1416 021a 002B     		cmp	r3, #0
 1417 021c 7FF47DAF 		bne	.L134
 1418              	.LVL135:
 1419              	.L171:
 1420              		.loc 1 351 0
 1421 0220 019A     		ldr	r2, [sp, #4]
 1422 0222 52F8047F 		ldr	r7, [r2, #4]!
 1423 0226 0192     		str	r2, [sp, #4]
 1424 0228 002F     		cmp	r7, #0
 1425 022a 7FF46DAF 		bne	.L140
 1426              		.loc 1 379 0
 1427 022e FFF7FEFF 		bl	print_line
 1428              	.LVL136:
 1429 0232 304D     		ldr	r5, .L173+136
 1430              		.loc 1 380 0
 1431 0234 0F48     		ldr	r0, .L173+8
 1432 0236 FFF7FEFF 		bl	test_println
 1433              	.LVL137:
 1434              		.loc 1 112 0
 1435 023a 4621     		movs	r1, #70
 1436              	.LVL138:
 1437              	.L137:
 1438              	.LBB155:
 1439              	.LBB156:
 1440              		.loc 1 113 0
 1441 023c 2068     		ldr	r0, [r4, #0]
 1442 023e 0368     		ldr	r3, [r0, #0]
 1443 0240 9B68     		ldr	r3, [r3, #8]
 1444 0242 9847     		blx	r3
 1445              	.LVL139:
 1446              		.loc 1 112 0
 1447 0244 15F8011F 		ldrb	r1, [r5, #1]!	@ zero_extendqisi2
 1448 0248 0029     		cmp	r1, #0
 1449 024a F7D1     		bne	.L137
 1450              	.LBE156:
 1451              	.LBE155:
 1452              		.loc 1 382 0
 1453 024c 1E4A     		ldr	r2, .L173+92
 1454 024e 1378     		ldrb	r3, [r2, #0]	@ zero_extendqisi2
 1455 0250 002B     		cmp	r3, #0
 1456 0252 57D1     		bne	.L172
 1457              		.loc 1 385 0
 1458 0254 2848     		ldr	r0, .L173+140
 1459 0256 FFF7FEFF 		bl	test_println
 1460              	.LVL140:
 1461              	.L139:
 1462              		.loc 1 387 0
 1463 025a 1B4B     		ldr	r3, .L173+92
 1464 025c 1878     		ldrb	r0, [r3, #0]	@ zero_extendqisi2
 1465              		.loc 1 388 0
 1466 025e 03B0     		add	sp, sp, #12
 1467 0260 BDE8F08F 		pop	{r4, r5, r6, r7, r8, r9, sl, fp, pc}
 1468              	.LVL141:
ARM GAS  /tmp/ccwebeYi.s 			page 27


 1469              	.L126:
 1470              		.loc 1 374 0
 1471 0264 2548     		ldr	r0, .L173+144
 1472 0266 FFF7FEFF 		bl	test_println
 1473              	.LVL142:
 1474 026a 51E7     		b	.L169
 1475              	.L174:
 1476              		.align	2
 1477              	.L173:
 1478 026c 00000000 		.word	.LANCHOR1
 1479 0270 28000000 		.word	.LC4
 1480 0274 04000000 		.word	.LC1
 1481 0278 08000000 		.word	.LC2
 1482 027c 24000000 		.word	.LC3
 1483 0280 90000000 		.word	.LC12
 1484 0284 A0000000 		.word	.LC13
 1485 0288 B4000000 		.word	.LC14
 1486 028c CC000000 		.word	.LC15
 1487 0290 E0000000 		.word	.LC16
 1488 0294 EC000000 		.word	.LC17
 1489 0298 00010000 		.word	.LC18
 1490 029c 0C010000 		.word	.LC19
 1491 02a0 20010000 		.word	.LC20
 1492 02a4 2C010000 		.word	.LC21
 1493 02a8 40010000 		.word	.LC22
 1494 02ac 58010000 		.word	.LC23
 1495 02b0 6C010000 		.word	.LC24
 1496 02b4 A0010000 		.word	.LC25
 1497 02b8 00000000 		.word	.LANCHOR9
 1498 02bc B4010000 		.word	.LC26
 1499 02c0 00000000 		.word	.LANCHOR2
 1500 02c4 00000000 		.word	patternthd
 1501 02c8 00000000 		.word	.LANCHOR4
 1502 02cc 3C000000 		.word	.LC5
 1503 02d0 DC010000 		.word	.LC27
 1504 02d4 4C000000 		.word	.LC6
 1505 02d8 00000000 		.word	.LANCHOR3
 1506 02dc 00000000 		.word	.LANCHOR7
 1507 02e0 50000000 		.word	.LC7
 1508 02e4 00000000 		.word	.LANCHOR5
 1509 02e8 E0010000 		.word	.LC28
 1510 02ec 01000000 		.word	.LANCHOR6+1
 1511 02f0 68000000 		.word	.LC8
 1512 02f4 E4010000 		.word	.LC29
 1513 02f8 88000000 		.word	.LC11
 1514 02fc 6C000000 		.word	.LC9
 1515 0300 00000000 		.word	.LANCHOR6
 1516              	.LVL143:
 1517              	.L172:
 1518              		.loc 1 383 0
 1519 0304 0148     		ldr	r0, .L175
 1520 0306 FFF7FEFF 		bl	test_println
 1521              	.LVL144:
 1522 030a A6E7     		b	.L139
 1523              	.L176:
 1524              		.align	2
 1525              	.L175:
ARM GAS  /tmp/ccwebeYi.s 			page 28


 1526 030c 80000000 		.word	.LC10
 1527              		.cfi_endproc
 1528              	.LFE136:
 1529              		.size	TestThread, .-TestThread
 1530              		.global	test_timer_done
 1531              		.global	wa
 1532              		.global	threads
 1533              		.global	test
 1534              		.section	.bss.test,"aw",%nobits
 1535              		.align	3
 1536              		.type	test, %object
 1537              		.size	test, 1520
 1538              	test:
 1539 0000 00000000 		.space	1520
 1539      00000000 
 1539      00000000 
 1539      00000000 
 1539      00000000 
 1540              		.section	.bss.failpoint,"aw",%nobits
 1541              		.align	2
 1542              		.set	.LANCHOR5,. + 0
 1543              		.type	failpoint, %object
 1544              		.size	failpoint, 4
 1545              	failpoint:
 1546 0000 00000000 		.space	4
 1547              		.section	.bss.local_fail,"aw",%nobits
 1548              		.set	.LANCHOR3,. + 0
 1549              		.type	local_fail, %object
 1550              		.size	local_fail, 1
 1551              	local_fail:
 1552 0000 00       		.space	1
 1553              		.section	.bss.test_timer_done,"aw",%nobits
 1554              		.set	.LANCHOR0,. + 0
 1555              		.type	test_timer_done, %object
 1556              		.size	test_timer_done, 1
 1557              	test_timer_done:
 1558 0000 00       		.space	1
 1559              		.section	.rodata.wa,"a",%progbits
 1560              		.align	2
 1561              		.type	wa, %object
 1562              		.size	wa, 20
 1563              	wa:
 1564 0000 00000000 		.word	test
 1565 0004 30010000 		.word	test+304
 1566 0008 60020000 		.word	test+608
 1567 000c 90030000 		.word	test+912
 1568 0010 C0040000 		.word	test+1216
 1569              		.section	.bss.tokp,"aw",%nobits
 1570              		.align	2
 1571              		.set	.LANCHOR2,. + 0
 1572              		.type	tokp, %object
 1573              		.size	tokp, 4
 1574              	tokp:
 1575 0000 00000000 		.space	4
 1576              		.section	.bss.global_fail,"aw",%nobits
 1577              		.set	.LANCHOR4,. + 0
 1578              		.type	global_fail, %object
ARM GAS  /tmp/ccwebeYi.s 			page 29


 1579              		.size	global_fail, 1
 1580              	global_fail:
 1581 0000 00       		.space	1
 1582              		.section	.rodata.str1.4,"aMS",%progbits,1
 1583              		.align	2
 1584              	.LC0:
 1585 0000 0D0A00   		.ascii	"\015\012\000"
 1586 0003 00       		.space	1
 1587              	.LC1:
 1588 0004 00       		.ascii	"\000"
 1589 0005 000000   		.space	3
 1590              	.LC2:
 1591 0008 2A2A2A20 		.ascii	"*** ChibiOS/RT test suite\000"
 1591      43686962 
 1591      694F532F 
 1591      52542074 
 1591      65737420 
 1592 0022 0000     		.space	2
 1593              	.LC3:
 1594 0024 2A2A2A00 		.ascii	"***\000"
 1595              	.LC4:
 1596 0028 2A2A2A20 		.ascii	"*** Kernel:       \000"
 1596      4B65726E 
 1596      656C3A20 
 1596      20202020 
 1596      202000
 1597 003b 00       		.space	1
 1598              	.LC5:
 1599 003c 2D2D2D20 		.ascii	"--- Test Case \000"
 1599      54657374 
 1599      20436173 
 1599      652000
 1600 004b 00       		.space	1
 1601              	.LC6:
 1602 004c 2900     		.ascii	")\000"
 1603 004e 0000     		.space	2
 1604              	.LC7:
 1605 0050 2D2D2D20 		.ascii	"--- Result: FAILURE (#\000"
 1605      52657375 
 1605      6C743A20 
 1605      4641494C 
 1605      55524520 
 1606 0067 00       		.space	1
 1607              	.LC8:
 1608 0068 5D2900   		.ascii	"])\000"
 1609 006b 00       		.space	1
 1610              	.LC9:
 1611 006c 2D2D2D20 		.ascii	"--- Result: SUCCESS\000"
 1611      52657375 
 1611      6C743A20 
 1611      53554343 
 1611      45535300 
 1612              	.LC10:
 1613 0080 4641494C 		.ascii	"FAILURE\000"
 1613      55524500 
 1614              	.LC11:
 1615 0088 53554343 		.ascii	"SUCCESS\000"
ARM GAS  /tmp/ccwebeYi.s 			page 30


 1615      45535300 
 1616              	.LC12:
 1617 0090 322E372E 		.ascii	"2.7.0unstable\000"
 1617      30756E73 
 1617      7461626C 
 1617      6500
 1618 009e 0000     		.space	2
 1619              	.LC13:
 1620 00a0 2A2A2A20 		.ascii	"*** Compiled:     \000"
 1620      436F6D70 
 1620      696C6564 
 1620      3A202020 
 1620      202000
 1621 00b3 00       		.space	1
 1622              	.LC14:
 1623 00b4 4E6F7620 		.ascii	"Nov  5 2013 - 10:25:01\000"
 1623      20352032 
 1623      30313320 
 1623      2D203130 
 1623      3A32353A 
 1624 00cb 00       		.space	1
 1625              	.LC15:
 1626 00cc 2A2A2A20 		.ascii	"*** Compiler:     \000"
 1626      436F6D70 
 1626      696C6572 
 1626      3A202020 
 1626      202000
 1627 00df 00       		.space	1
 1628              	.LC16:
 1629 00e0 47434320 		.ascii	"GCC 4.7.3\000"
 1629      342E372E 
 1629      3300
 1630 00ea 0000     		.space	2
 1631              	.LC17:
 1632 00ec 2A2A2A20 		.ascii	"*** Architecture: \000"
 1632      41726368 
 1632      69746563 
 1632      74757265 
 1632      3A2000
 1633 00ff 00       		.space	1
 1634              	.LC18:
 1635 0100 41524D76 		.ascii	"ARMv7-ME\000"
 1635      372D4D45 
 1635      00
 1636 0109 000000   		.space	3
 1637              	.LC19:
 1638 010c 2A2A2A20 		.ascii	"*** Core Variant: \000"
 1638      436F7265 
 1638      20566172 
 1638      69616E74 
 1638      3A2000
 1639 011f 00       		.space	1
 1640              	.LC20:
 1641 0120 436F7274 		.ascii	"Cortex-M4\000"
 1641      65782D4D 
 1641      3400
 1642 012a 0000     		.space	2
ARM GAS  /tmp/ccwebeYi.s 			page 31


 1643              	.LC21:
 1644 012c 2A2A2A20 		.ascii	"*** Port Info:    \000"
 1644      506F7274 
 1644      20496E66 
 1644      6F3A2020 
 1644      202000
 1645 013f 00       		.space	1
 1646              	.LC22:
 1647 0140 41647661 		.ascii	"Advanced kernel mode\000"
 1647      6E636564 
 1647      206B6572 
 1647      6E656C20 
 1647      6D6F6465 
 1648 0155 000000   		.space	3
 1649              	.LC23:
 1650 0158 2A2A2A20 		.ascii	"*** Platform:     \000"
 1650      506C6174 
 1650      666F726D 
 1650      3A202020 
 1650      202000
 1651 016b 00       		.space	1
 1652              	.LC24:
 1653 016c 53544D33 		.ascii	"STM32F407/F417 High Performance with DSP and FPU\000"
 1653      32463430 
 1653      372F4634 
 1653      31372048 
 1653      69676820 
 1654 019d 000000   		.space	3
 1655              	.LC25:
 1656 01a0 2A2A2A20 		.ascii	"*** Test Board:   \000"
 1656      54657374 
 1656      20426F61 
 1656      72643A20 
 1656      202000
 1657 01b3 00       		.space	1
 1658              	.LC26:
 1659 01b4 53544D69 		.ascii	"STMicroelectronics STM32F4-Discovery\000"
 1659      63726F65 
 1659      6C656374 
 1659      726F6E69 
 1659      63732053 
 1660 01d9 000000   		.space	3
 1661              	.LC27:
 1662 01dc 202800   		.ascii	" (\000"
 1663 01df 00       		.space	1
 1664              	.LC28:
 1665 01e0 205B00   		.ascii	" [\000"
 1666 01e3 00       		.space	1
 1667              	.LC29:
 1668 01e4 46696E61 		.ascii	"Final result: \000"
 1668      6C207265 
 1668      73756C74 
 1668      3A2000
 1669 01f3 00       		.section	.bss.vt,"aw",%nobits
 1670              		.align	2
 1671              		.set	.LANCHOR8,. + 0
 1672              		.type	vt, %object
ARM GAS  /tmp/ccwebeYi.s 			page 32


 1673              		.size	vt, 20
 1674              	vt:
 1675 0000 00000000 		.space	20
 1675      00000000 
 1675      00000000 
 1675      00000000 
 1675      00000000 
 1676              		.section	.bss.threads,"aw",%nobits
 1677              		.align	2
 1678              		.set	.LANCHOR7,. + 0
 1679              		.type	threads, %object
 1680              		.size	threads, 20
 1681              	threads:
 1682 0000 00000000 		.space	20
 1682      00000000 
 1682      00000000 
 1682      00000000 
 1682      00000000 
 1683              		.section	.rodata.patterns,"a",%progbits
 1684              		.align	2
 1685              		.set	.LANCHOR9,. + 0
 1686              		.type	patterns, %object
 1687              		.size	patterns, 48
 1688              	patterns:
 1689 0000 00000000 		.word	patternthd
 1690 0004 00000000 		.word	patternsem
 1691 0008 00000000 		.word	patternmtx
 1692 000c 00000000 		.word	patternmsg
 1693 0010 00000000 		.word	patternmbox
 1694 0014 00000000 		.word	patternevt
 1695 0018 00000000 		.word	patternheap
 1696 001c 00000000 		.word	patternpools
 1697 0020 00000000 		.word	patterndyn
 1698 0024 00000000 		.word	patternqueues
 1699 0028 00000000 		.word	patternbmk
 1700 002c 00000000 		.word	0
 1701              		.section	.bss.chp,"aw",%nobits
 1702              		.align	2
 1703              		.set	.LANCHOR1,. + 0
 1704              		.type	chp, %object
 1705              		.size	chp, 4
 1706              	chp:
 1707 0000 00000000 		.space	4
 1708              		.section	.bss.tokens_buffer,"aw",%nobits
 1709              		.align	2
 1710              		.set	.LANCHOR6,. + 0
 1711              		.type	tokens_buffer, %object
 1712              		.size	tokens_buffer, 16
 1713              	tokens_buffer:
 1714 0000 00000000 		.space	16
 1714      00000000 
 1714      00000000 
 1714      00000000 
 1715              		.text
 1716              	.Letext0:
 1717              		.file 2 "/home/dpeter/CodeSourcery/Sourcery_CodeBench_Lite_for_ARM_EABI/bin/../lib/gcc/arm-none-ea
 1718              		.file 3 "/home/dpeter/CodeSourcery/Sourcery_CodeBench_Lite_for_ARM_EABI/bin/../lib/gcc/arm-none-ea
ARM GAS  /tmp/ccwebeYi.s 			page 33


 1719              		.file 4 "/home/dpeter/devel/sources/ChibiOS-RT/os/ports/GCC/ARMCMx/chtypes.h"
 1720              		.file 5 "/home/dpeter/devel/sources/ChibiOS-RT/os/kernel/include/chlists.h"
 1721              		.file 6 "/home/dpeter/devel/sources/ChibiOS-RT/os/kernel/include/chthreads.h"
 1722              		.file 7 "/home/dpeter/devel/sources/ChibiOS-RT/os/ports/GCC/ARMCMx/chcore_v7m.h"
 1723              		.file 8 "/home/dpeter/devel/sources/ChibiOS-RT/os/kernel/include/chvt.h"
 1724              		.file 9 "/home/dpeter/devel/sources/ChibiOS-RT/os/kernel/include/chschd.h"
 1725              		.file 10 "/home/dpeter/devel/sources/ChibiOS-RT/os/kernel/include/chmtx.h"
 1726              		.file 11 "/home/dpeter/devel/sources/ChibiOS-RT/os/kernel/include/chstreams.h"
 1727              		.file 12 "/home/dpeter/devel/sources/ChibiOS-RT/test/test.h"
 1728              		.file 13 "/home/dpeter/devel/sources/ChibiOS-RT/os/ports/common/ARMCMx/CMSIS/include/core_cm4.h"
 1729              		.file 14 "/home/dpeter/devel/sources/ChibiOS-RT/test/testthd.h"
 1730              		.file 15 "/home/dpeter/devel/sources/ChibiOS-RT/test/testsem.h"
 1731              		.file 16 "/home/dpeter/devel/sources/ChibiOS-RT/test/testmtx.h"
 1732              		.file 17 "/home/dpeter/devel/sources/ChibiOS-RT/test/testmsg.h"
 1733              		.file 18 "/home/dpeter/devel/sources/ChibiOS-RT/test/testmbox.h"
 1734              		.file 19 "/home/dpeter/devel/sources/ChibiOS-RT/test/testevt.h"
 1735              		.file 20 "/home/dpeter/devel/sources/ChibiOS-RT/test/testheap.h"
 1736              		.file 21 "/home/dpeter/devel/sources/ChibiOS-RT/test/testpools.h"
 1737              		.file 22 "/home/dpeter/devel/sources/ChibiOS-RT/test/testdyn.h"
 1738              		.file 23 "/home/dpeter/devel/sources/ChibiOS-RT/test/testqueues.h"
 1739              		.file 24 "/home/dpeter/devel/sources/ChibiOS-RT/test/testbmk.h"