ARM GAS  /tmp/cctSZ1tR.s 			page 1


   1              		.syntax unified
   2              		.cpu cortex-m4
   3              		.fpu softvfp
   4              		.eabi_attribute 20, 1
   5              		.eabi_attribute 21, 1
   6              		.eabi_attribute 23, 3
   7              		.eabi_attribute 24, 1
   8              		.eabi_attribute 25, 1
   9              		.eabi_attribute 26, 1
  10              		.eabi_attribute 30, 2
  11              		.eabi_attribute 34, 1
  12              		.eabi_attribute 18, 4
  13              		.thumb
  14              		.file	"testmsg.c"
  15              		.text
  16              	.Ltext0:
  17              		.cfi_sections	.debug_frame
  18              		.section	.text.msg1_execute,"ax",%progbits
  19              		.align	2
  20              		.p2align 4,,15
  21              		.thumb
  22              		.thumb_func
  23              		.type	msg1_execute, %function
  24              	msg1_execute:
  25              	.LFB8:
  26              		.file 1 "/home/dpeter/devel/sources/ChibiOS-RT/test/testmsg.c"
  27              		.loc 1 67 0
  28              		.cfi_startproc
  29              		@ args = 0, pretend = 0, frame = 0
  30              		@ frame_needed = 0, uses_anonymous_args = 0
  31 0000 10B5     		push	{r4, lr}
  32              	.LCFI0:
  33              		.cfi_def_cfa_offset 8
  34              		.cfi_offset 4, -8
  35              		.cfi_offset 14, -4
  36              		.loc 1 74 0
  37 0002 184B     		ldr	r3, .L2
  38 0004 9969     		ldr	r1, [r3, #24]
  39 0006 184B     		ldr	r3, .L2+4
  40 0008 8A68     		ldr	r2, [r1, #8]
  41 000a 1868     		ldr	r0, [r3, #0]
  42 000c 174B     		ldr	r3, .L2+8
  43              		.loc 1 67 0
  44 000e 82B0     		sub	sp, sp, #8
  45              	.LCFI1:
  46              		.cfi_def_cfa_offset 16
  47              		.loc 1 74 0
  48 0010 0132     		adds	r2, r2, #1
  49 0012 0091     		str	r1, [sp, #0]
  50 0014 4FF49871 		mov	r1, #304
  51 0018 FFF7FEFF 		bl	chThdCreateStatic
  52              	.LVL0:
  53 001c 144B     		ldr	r3, .L2+12
  54 001e 1860     		str	r0, [r3, #0]
  55              		.loc 1 76 0
  56 0020 FFF7FEFF 		bl	chMsgWait
  57              	.LVL1:
ARM GAS  /tmp/cctSZ1tR.s 			page 2


  58              		.loc 1 77 0
  59 0024 446B     		ldr	r4, [r0, #52]
  60              	.LVL2:
  61              		.loc 1 78 0
  62 0026 2146     		mov	r1, r4
  63 0028 FFF7FEFF 		bl	chMsgRelease
  64              	.LVL3:
  65              		.loc 1 79 0
  66 002c E0B2     		uxtb	r0, r4
  67 002e FFF7FEFF 		bl	test_emit_token
  68              	.LVL4:
  69              		.loc 1 80 0
  70 0032 FFF7FEFF 		bl	chMsgWait
  71              	.LVL5:
  72              		.loc 1 81 0
  73 0036 446B     		ldr	r4, [r0, #52]
  74              	.LVL6:
  75              		.loc 1 82 0
  76 0038 2146     		mov	r1, r4
  77 003a FFF7FEFF 		bl	chMsgRelease
  78              	.LVL7:
  79              		.loc 1 83 0
  80 003e E0B2     		uxtb	r0, r4
  81 0040 FFF7FEFF 		bl	test_emit_token
  82              	.LVL8:
  83              		.loc 1 84 0
  84 0044 FFF7FEFF 		bl	chMsgWait
  85              	.LVL9:
  86              		.loc 1 85 0
  87 0048 446B     		ldr	r4, [r0, #52]
  88              	.LVL10:
  89              		.loc 1 86 0
  90 004a 2146     		mov	r1, r4
  91 004c FFF7FEFF 		bl	chMsgRelease
  92              	.LVL11:
  93              		.loc 1 87 0
  94 0050 E0B2     		uxtb	r0, r4
  95 0052 FFF7FEFF 		bl	test_emit_token
  96              	.LVL12:
  97              		.loc 1 88 0
  98 0056 0749     		ldr	r1, .L2+16
  99 0058 0120     		movs	r0, #1
 100              		.loc 1 89 0
 101 005a 02B0     		add	sp, sp, #8
 102 005c BDE81040 		pop	{r4, lr}
 103              		.loc 1 88 0
 104 0060 FFF7FEBF 		b	_test_assert_sequence
 105              	.LVL13:
 106              	.L3:
 107              		.align	2
 108              	.L2:
 109 0064 00000000 		.word	rlist
 110 0068 00000000 		.word	wa
 111 006c 00000000 		.word	thread
 112 0070 00000000 		.word	threads
 113 0074 00000000 		.word	.LC0
 114              		.cfi_endproc
ARM GAS  /tmp/cctSZ1tR.s 			page 3


 115              	.LFE8:
 116              		.size	msg1_execute, .-msg1_execute
 117 0078 AFF30080 		.section	.text.thread,"ax",%progbits
 117      AFF30080 
 118              		.align	2
 119              		.p2align 4,,15
 120              		.thumb
 121              		.thumb_func
 122              		.type	thread, %function
 123              	thread:
 124              	.LFB7:
 125              		.loc 1 59 0
 126              		.cfi_startproc
 127              		@ args = 0, pretend = 0, frame = 0
 128              		@ frame_needed = 0, uses_anonymous_args = 0
 129              	.LVL14:
 130 0000 10B5     		push	{r4, lr}
 131              	.LCFI2:
 132              		.cfi_def_cfa_offset 8
 133              		.cfi_offset 4, -8
 134              		.cfi_offset 14, -4
 135              		.loc 1 61 0
 136 0002 4121     		movs	r1, #65
 137              		.loc 1 59 0
 138 0004 0446     		mov	r4, r0
 139              		.loc 1 61 0
 140 0006 FFF7FEFF 		bl	chMsgSend
 141              	.LVL15:
 142              		.loc 1 62 0
 143 000a 4221     		movs	r1, #66
 144 000c 2046     		mov	r0, r4
 145 000e FFF7FEFF 		bl	chMsgSend
 146              	.LVL16:
 147              		.loc 1 63 0
 148 0012 2046     		mov	r0, r4
 149 0014 4321     		movs	r1, #67
 150 0016 FFF7FEFF 		bl	chMsgSend
 151              	.LVL17:
 152              		.loc 1 65 0
 153 001a 0020     		movs	r0, #0
 154 001c 10BD     		pop	{r4, pc}
 155              		.cfi_endproc
 156              	.LFE7:
 157              		.size	thread, .-thread
 158              		.global	patternmsg
 159              		.global	testmsg1
 160 001e 00BF     		.section	.rodata.testmsg1,"a",%progbits
 161              		.align	2
 162              		.type	testmsg1, %object
 163              		.size	testmsg1, 16
 164              	testmsg1:
 165 0000 04000000 		.word	.LC1
 166 0004 00000000 		.word	0
 167 0008 00000000 		.word	0
 168 000c 00000000 		.word	msg1_execute
 169              		.section	.rodata.str1.4,"aMS",%progbits,1
 170              		.align	2
ARM GAS  /tmp/cctSZ1tR.s 			page 4


 171              	.LC0:
 172 0000 41424300 		.ascii	"ABC\000"
 173              	.LC1:
 174 0004 4D657373 		.ascii	"Messages, loop\000"
 174      61676573 
 174      2C206C6F 
 174      6F7000
 175 0013 00       		.section	.rodata.patternmsg,"a",%progbits
 176              		.align	2
 177              		.type	patternmsg, %object
 178              		.size	patternmsg, 8
 179              	patternmsg:
 180 0000 00000000 		.word	testmsg1
 181 0004 00000000 		.word	0
 182              		.text
 183              	.Letext0:
 184              		.file 2 "/home/dpeter/CodeSourcery/Sourcery_CodeBench_Lite_for_ARM_EABI/bin/../lib/gcc/arm-none-ea
 185              		.file 3 "/home/dpeter/CodeSourcery/Sourcery_CodeBench_Lite_for_ARM_EABI/bin/../lib/gcc/arm-none-ea
 186              		.file 4 "/home/dpeter/devel/sources/ChibiOS-RT/os/ports/GCC/ARMCMx/chtypes.h"
 187              		.file 5 "/home/dpeter/devel/sources/ChibiOS-RT/os/kernel/include/chlists.h"
 188              		.file 6 "/home/dpeter/devel/sources/ChibiOS-RT/os/kernel/include/chthreads.h"
 189              		.file 7 "/home/dpeter/devel/sources/ChibiOS-RT/os/ports/GCC/ARMCMx/chcore_v7m.h"
 190              		.file 8 "/home/dpeter/devel/sources/ChibiOS-RT/os/kernel/include/chschd.h"
 191              		.file 9 "/home/dpeter/devel/sources/ChibiOS-RT/os/kernel/include/chmtx.h"
 192              		.file 10 "/home/dpeter/devel/sources/ChibiOS-RT/test/test.h"
 193              		.file 11 "/home/dpeter/devel/sources/ChibiOS-RT/os/kernel/include/chmsg.h"