ARM GAS  /tmp/ccf1VJri.s 			page 1


   1              		.syntax unified
   2              		.cpu cortex-m4
   3              		.fpu softvfp
   4              		.eabi_attribute 20, 1
   5              		.eabi_attribute 21, 1
   6              		.eabi_attribute 23, 3
   7              		.eabi_attribute 24, 1
   8              		.eabi_attribute 25, 1
   9              		.eabi_attribute 26, 1
  10              		.eabi_attribute 30, 2
  11              		.eabi_attribute 34, 1
  12              		.eabi_attribute 18, 4
  13              		.thumb
  14              		.file	"usb.c"
  15              		.text
  16              	.Ltext0:
  17              		.cfi_sections	.debug_frame
  18              		.section	.text.usbInit,"ax",%progbits
  19              		.align	2
  20              		.p2align 4,,15
  21              		.global	usbInit
  22              		.thumb
  23              		.thumb_func
  24              		.type	usbInit, %function
  25              	usbInit:
  26              	.LFB120:
  27              		.file 1 "/home/dpeter/devel/sources/ChibiOS-RT/os/hal/src/usb.c"
  28              		.loc 1 228 0
  29              		.cfi_startproc
  30              		@ args = 0, pretend = 0, frame = 0
  31              		@ frame_needed = 0, uses_anonymous_args = 0
  32              		@ link register save eliminated.
  33              		.loc 1 231 0
  34              		.loc 1 230 0
  35 0000 FFF7FEBF 		b	usb_lld_init
  36              	.LVL0:
  37              		.cfi_endproc
  38              	.LFE120:
  39              		.size	usbInit, .-usbInit
  40 0004 AFF30080 		.section	.text.usbObjectInit,"ax",%progbits
  40      AFF30080 
  40      AFF30080 
  41              		.align	2
  42              		.p2align 4,,15
  43              		.global	usbObjectInit
  44              		.thumb
  45              		.thumb_func
  46              		.type	usbObjectInit, %function
  47              	usbObjectInit:
  48              	.LFB121:
  49              		.loc 1 240 0
  50              		.cfi_startproc
  51              		@ args = 0, pretend = 0, frame = 0
  52              		@ frame_needed = 0, uses_anonymous_args = 0
  53              		@ link register save eliminated.
  54              	.LVL1:
  55              		.loc 1 244 0
ARM GAS  /tmp/ccf1VJri.s 			page 2


  56 0000 0023     		movs	r3, #0
  57              		.loc 1 243 0
  58 0002 0122     		movs	r2, #1
  59 0004 0270     		strb	r2, [r0, #0]
  60              		.loc 1 244 0
  61 0006 4360     		str	r3, [r0, #4]
  62              	.LVL2:
  63              		.loc 1 246 0
  64 0008 C361     		str	r3, [r0, #28]
  65              		.loc 1 247 0
  66 000a 8362     		str	r3, [r0, #40]
  67              	.LVL3:
  68              		.loc 1 246 0
  69 000c 0362     		str	r3, [r0, #32]
  70              		.loc 1 247 0
  71 000e C362     		str	r3, [r0, #44]
  72              	.LVL4:
  73              		.loc 1 246 0
  74 0010 4362     		str	r3, [r0, #36]
  75              		.loc 1 247 0
  76 0012 0363     		str	r3, [r0, #48]
  77              	.LVL5:
  78              		.loc 1 249 0
  79 0014 0381     		strh	r3, [r0, #8]	@ movhi
  80              		.loc 1 250 0
  81 0016 4381     		strh	r3, [r0, #10]	@ movhi
  82 0018 7047     		bx	lr
  83              		.cfi_endproc
  84              	.LFE121:
  85              		.size	usbObjectInit, .-usbObjectInit
  86 001a 00BFAFF3 		.section	.text.usbStart,"ax",%progbits
  86      0080
  87              		.align	2
  88              		.p2align 4,,15
  89              		.global	usbStart
  90              		.thumb
  91              		.thumb_func
  92              		.type	usbStart, %function
  93              	usbStart:
  94              	.LFB122:
  95              		.loc 1 261 0
  96              		.cfi_startproc
  97              		@ args = 0, pretend = 0, frame = 0
  98              		@ frame_needed = 0, uses_anonymous_args = 0
  99              	.LVL6:
 100 0000 38B5     		push	{r3, r4, r5, lr}
 101              	.LCFI0:
 102              		.cfi_def_cfa_offset 16
 103              		.cfi_offset 3, -16
 104              		.cfi_offset 4, -12
 105              		.cfi_offset 5, -8
 106              		.cfi_offset 14, -4
 107              		.loc 1 261 0
 108 0002 0446     		mov	r4, r0
 109              	.LBB2:
 110              		.loc 1 266 0
 111 0004 2023     		movs	r3, #32
ARM GAS  /tmp/ccf1VJri.s 			page 3


 112              	.LVL7:
 113              	@ 266 "/home/dpeter/devel/sources/ChibiOS-RT/os/hal/src/usb.c" 1
 114 0006 83F31188 		msr     BASEPRI, r3
 115              	@ 0 "" 2
 116              	.LVL8:
 117              		.thumb
 118              	.LBE2:
 119              		.loc 1 271 0
 120 000a 0025     		movs	r5, #0
 121              		.loc 1 269 0
 122 000c 4160     		str	r1, [r0, #4]
 123              	.LVL9:
 124              		.loc 1 271 0
 125 000e C560     		str	r5, [r0, #12]
 126              	.LVL10:
 127 0010 0561     		str	r5, [r0, #16]
 128              	.LVL11:
 129 0012 4561     		str	r5, [r0, #20]
 130              	.LVL12:
 131 0014 8561     		str	r5, [r0, #24]
 132              	.LVL13:
 133              		.loc 1 272 0
 134 0016 FFF7FEFF 		bl	usb_lld_start
 135              	.LVL14:
 136              		.loc 1 273 0
 137 001a 0223     		movs	r3, #2
 138 001c 2370     		strb	r3, [r4, #0]
 139              	.LBB3:
 140              		.loc 1 274 0
 141 001e 2B46     		mov	r3, r5
 142              	.LVL15:
 143              	@ 274 "/home/dpeter/devel/sources/ChibiOS-RT/os/hal/src/usb.c" 1
 144 0020 83F31188 		msr     BASEPRI, r3
 145              	@ 0 "" 2
 146              	.LVL16:
 147              		.thumb
 148 0024 38BD     		pop	{r3, r4, r5, pc}
 149              	.LBE3:
 150              		.cfi_endproc
 151              	.LFE122:
 152              		.size	usbStart, .-usbStart
 153 0026 00BFAFF3 		.section	.text.usbStop,"ax",%progbits
 153      0080AFF3 
 153      0080
 154              		.align	2
 155              		.p2align 4,,15
 156              		.global	usbStop
 157              		.thumb
 158              		.thumb_func
 159              		.type	usbStop, %function
 160              	usbStop:
 161              	.LFB123:
 162              		.loc 1 284 0
 163              		.cfi_startproc
 164              		@ args = 0, pretend = 0, frame = 0
 165              		@ frame_needed = 0, uses_anonymous_args = 0
 166              	.LVL17:
ARM GAS  /tmp/ccf1VJri.s 			page 4


 167 0000 10B5     		push	{r4, lr}
 168              	.LCFI1:
 169              		.cfi_def_cfa_offset 8
 170              		.cfi_offset 4, -8
 171              		.cfi_offset 14, -4
 172              	.LBB4:
 173              		.loc 1 288 0
 174 0002 2023     		movs	r3, #32
 175              	.LVL18:
 176              	.LBE4:
 177              		.loc 1 284 0
 178 0004 0446     		mov	r4, r0
 179              	.LBB5:
 180              		.loc 1 288 0
 181              	@ 288 "/home/dpeter/devel/sources/ChibiOS-RT/os/hal/src/usb.c" 1
 182 0006 83F31188 		msr     BASEPRI, r3
 183              	@ 0 "" 2
 184              	.LVL19:
 185              		.thumb
 186              	.LBE5:
 187              		.loc 1 292 0
 188 000a FFF7FEFF 		bl	usb_lld_stop
 189              	.LVL20:
 190              		.loc 1 293 0
 191 000e 0123     		movs	r3, #1
 192 0010 2370     		strb	r3, [r4, #0]
 193              	.LBB6:
 194              		.loc 1 294 0
 195 0012 0023     		movs	r3, #0
 196              	.LVL21:
 197              	@ 294 "/home/dpeter/devel/sources/ChibiOS-RT/os/hal/src/usb.c" 1
 198 0014 83F31188 		msr     BASEPRI, r3
 199              	@ 0 "" 2
 200              	.LVL22:
 201              		.thumb
 202 0018 10BD     		pop	{r4, pc}
 203              	.LBE6:
 204              		.cfi_endproc
 205              	.LFE123:
 206              		.size	usbStop, .-usbStop
 207 001a 00BFAFF3 		.section	.text.usbInitEndpointI,"ax",%progbits
 207      0080
 208              		.align	2
 209              		.p2align 4,,15
 210              		.global	usbInitEndpointI
 211              		.thumb
 212              		.thumb_func
 213              		.type	usbInitEndpointI, %function
 214              	usbInitEndpointI:
 215              	.LFB124:
 216              		.loc 1 311 0
 217              		.cfi_startproc
 218              		@ args = 0, pretend = 0, frame = 0
 219              		@ frame_needed = 0, uses_anonymous_args = 0
 220              	.LVL23:
 221 0000 70B5     		push	{r4, r5, r6, lr}
 222              	.LCFI2:
ARM GAS  /tmp/ccf1VJri.s 			page 5


 223              		.cfi_def_cfa_offset 16
 224              		.cfi_offset 4, -16
 225              		.cfi_offset 5, -12
 226              		.cfi_offset 6, -8
 227              		.cfi_offset 14, -4
 228              		.loc 1 311 0
 229 0002 0646     		mov	r6, r0
 230              		.loc 1 321 0
 231 0004 5069     		ldr	r0, [r2, #20]
 232              	.LVL24:
 233              		.loc 1 311 0
 234 0006 1446     		mov	r4, r2
 235 0008 0D46     		mov	r5, r1
 236              		.loc 1 321 0
 237 000a 18B1     		cbz	r0, .L6
 238              		.loc 1 322 0
 239 000c 0021     		movs	r1, #0
 240              	.LVL25:
 241 000e 1022     		movs	r2, #16
 242              	.LVL26:
 243 0010 FFF7FEFF 		bl	memset
 244              	.LVL27:
 245              	.L6:
 246              		.loc 1 323 0
 247 0014 A069     		ldr	r0, [r4, #24]
 248 0016 18B1     		cbz	r0, .L7
 249              		.loc 1 324 0
 250 0018 0021     		movs	r1, #0
 251 001a 1022     		movs	r2, #16
 252 001c FFF7FEFF 		bl	memset
 253              	.LVL28:
 254              	.L7:
 255              		.loc 1 326 0
 256 0020 06EB8503 		add	r3, r6, r5, lsl #2
 257              		.loc 1 329 0
 258 0024 3046     		mov	r0, r6
 259 0026 2946     		mov	r1, r5
 260              		.loc 1 326 0
 261 0028 DC60     		str	r4, [r3, #12]
 262              		.loc 1 330 0
 263 002a BDE87040 		pop	{r4, r5, r6, lr}
 264              		.loc 1 329 0
 265 002e FFF7FEBF 		b	usb_lld_init_endpoint
 266              	.LVL29:
 267              		.cfi_endproc
 268              	.LFE124:
 269              		.size	usbInitEndpointI, .-usbInitEndpointI
 270 0032 00BFAFF3 		.section	.text.usbDisableEndpointsI,"ax",%progbits
 270      0080AFF3 
 270      0080AFF3 
 270      0080
 271              		.align	2
 272              		.p2align 4,,15
 273              		.global	usbDisableEndpointsI
 274              		.thumb
 275              		.thumb_func
 276              		.type	usbDisableEndpointsI, %function
ARM GAS  /tmp/ccf1VJri.s 			page 6


 277              	usbDisableEndpointsI:
 278              	.LFB125:
 279              		.loc 1 343 0
 280              		.cfi_startproc
 281              		@ args = 0, pretend = 0, frame = 0
 282              		@ frame_needed = 0, uses_anonymous_args = 0
 283              		@ link register save eliminated.
 284              	.LVL30:
 285 0000 10B4     		push	{r4}
 286              	.LCFI3:
 287              		.cfi_def_cfa_offset 4
 288              		.cfi_offset 4, -4
 289              		.loc 1 352 0
 290 0002 4189     		ldrh	r1, [r0, #10]
 291              		.loc 1 351 0
 292 0004 0489     		ldrh	r4, [r0, #8]
 293              		.loc 1 354 0
 294 0006 0022     		movs	r2, #0
 295              		.loc 1 351 0
 296 0008 24F00104 		bic	r4, r4, #1
 297              		.loc 1 352 0
 298 000c 21F00101 		bic	r1, r1, #1
 299              		.loc 1 354 0
 300 0010 0261     		str	r2, [r0, #16]
 301              		.loc 1 351 0
 302 0012 0481     		strh	r4, [r0, #8]	@ movhi
 303              		.loc 1 352 0
 304 0014 4181     		strh	r1, [r0, #10]	@ movhi
 305              	.LVL31:
 306              		.loc 1 354 0
 307 0016 4261     		str	r2, [r0, #20]
 308              	.LVL32:
 309 0018 8261     		str	r2, [r0, #24]
 310              	.LVL33:
 311              		.loc 1 358 0
 312 001a 10BC     		pop	{r4}
 313              		.loc 1 357 0
 314 001c FFF7FEBF 		b	usb_lld_disable_endpoints
 315              	.LVL34:
 316              		.cfi_endproc
 317              	.LFE125:
 318              		.size	usbDisableEndpointsI, .-usbDisableEndpointsI
 319              		.section	.text.usbPrepareReceive,"ax",%progbits
 320              		.align	2
 321              		.p2align 4,,15
 322              		.global	usbPrepareReceive
 323              		.thumb
 324              		.thumb_func
 325              		.type	usbPrepareReceive, %function
 326              	usbPrepareReceive:
 327              	.LFB126:
 328              		.loc 1 372 0
 329              		.cfi_startproc
 330              		@ args = 0, pretend = 0, frame = 0
 331              		@ frame_needed = 0, uses_anonymous_args = 0
 332              		@ link register save eliminated.
 333              	.LVL35:
ARM GAS  /tmp/ccf1VJri.s 			page 7


 334 0000 30B4     		push	{r4, r5}
 335              	.LCFI4:
 336              		.cfi_def_cfa_offset 8
 337              		.cfi_offset 4, -8
 338              		.cfi_offset 5, -4
 339              		.loc 1 373 0
 340 0002 00EB8104 		add	r4, r0, r1, lsl #2
 341              		.loc 1 375 0
 342 0006 0025     		movs	r5, #0
 343              		.loc 1 373 0
 344 0008 E468     		ldr	r4, [r4, #12]
 345 000a A469     		ldr	r4, [r4, #24]
 346              	.LVL36:
 347              		.loc 1 375 0
 348 000c 2570     		strb	r5, [r4, #0]
 349              		.loc 1 376 0
 350 000e E260     		str	r2, [r4, #12]
 351              		.loc 1 377 0
 352 0010 6360     		str	r3, [r4, #4]
 353              		.loc 1 378 0
 354 0012 A560     		str	r5, [r4, #8]
 355              		.loc 1 381 0
 356 0014 30BC     		pop	{r4, r5}
 357              		.loc 1 380 0
 358 0016 FFF7FEBF 		b	usb_lld_prepare_receive
 359              	.LVL37:
 360              		.cfi_endproc
 361              	.LFE126:
 362              		.size	usbPrepareReceive, .-usbPrepareReceive
 363 001a 00BFAFF3 		.section	.text.usbPrepareTransmit,"ax",%progbits
 363      0080
 364              		.align	2
 365              		.p2align 4,,15
 366              		.global	usbPrepareTransmit
 367              		.thumb
 368              		.thumb_func
 369              		.type	usbPrepareTransmit, %function
 370              	usbPrepareTransmit:
 371              	.LFB127:
 372              		.loc 1 398 0
 373              		.cfi_startproc
 374              		@ args = 0, pretend = 0, frame = 0
 375              		@ frame_needed = 0, uses_anonymous_args = 0
 376              		@ link register save eliminated.
 377              	.LVL38:
 378 0000 30B4     		push	{r4, r5}
 379              	.LCFI5:
 380              		.cfi_def_cfa_offset 8
 381              		.cfi_offset 4, -8
 382              		.cfi_offset 5, -4
 383              		.loc 1 399 0
 384 0002 00EB8104 		add	r4, r0, r1, lsl #2
 385              		.loc 1 401 0
 386 0006 0025     		movs	r5, #0
 387              		.loc 1 399 0
 388 0008 E468     		ldr	r4, [r4, #12]
 389 000a 6469     		ldr	r4, [r4, #20]
ARM GAS  /tmp/ccf1VJri.s 			page 8


 390              	.LVL39:
 391              		.loc 1 401 0
 392 000c 2570     		strb	r5, [r4, #0]
 393              		.loc 1 402 0
 394 000e E260     		str	r2, [r4, #12]
 395              		.loc 1 403 0
 396 0010 6360     		str	r3, [r4, #4]
 397              		.loc 1 404 0
 398 0012 A560     		str	r5, [r4, #8]
 399              		.loc 1 407 0
 400 0014 30BC     		pop	{r4, r5}
 401              		.loc 1 406 0
 402 0016 FFF7FEBF 		b	usb_lld_prepare_transmit
 403              	.LVL40:
 404              		.cfi_endproc
 405              	.LFE127:
 406              		.size	usbPrepareTransmit, .-usbPrepareTransmit
 407 001a 00BFAFF3 		.section	.text.usbPrepareQueuedReceive,"ax",%progbits
 407      0080
 408              		.align	2
 409              		.p2align 4,,15
 410              		.global	usbPrepareQueuedReceive
 411              		.thumb
 412              		.thumb_func
 413              		.type	usbPrepareQueuedReceive, %function
 414              	usbPrepareQueuedReceive:
 415              	.LFB128:
 416              		.loc 1 427 0
 417              		.cfi_startproc
 418              		@ args = 0, pretend = 0, frame = 0
 419              		@ frame_needed = 0, uses_anonymous_args = 0
 420              		@ link register save eliminated.
 421              	.LVL41:
 422 0000 30B4     		push	{r4, r5}
 423              	.LCFI6:
 424              		.cfi_def_cfa_offset 8
 425              		.cfi_offset 4, -8
 426              		.cfi_offset 5, -4
 427              		.loc 1 428 0
 428 0002 00EB8104 		add	r4, r0, r1, lsl #2
 429              		.loc 1 430 0
 430 0006 0125     		movs	r5, #1
 431              		.loc 1 428 0
 432 0008 E468     		ldr	r4, [r4, #12]
 433 000a A469     		ldr	r4, [r4, #24]
 434              	.LVL42:
 435              		.loc 1 432 0
 436 000c 6360     		str	r3, [r4, #4]
 437              		.loc 1 433 0
 438 000e 0023     		movs	r3, #0
 439              	.LVL43:
 440              		.loc 1 430 0
 441 0010 2570     		strb	r5, [r4, #0]
 442              		.loc 1 431 0
 443 0012 E260     		str	r2, [r4, #12]
 444              		.loc 1 433 0
 445 0014 A360     		str	r3, [r4, #8]
ARM GAS  /tmp/ccf1VJri.s 			page 9


 446              		.loc 1 436 0
 447 0016 30BC     		pop	{r4, r5}
 448              		.loc 1 435 0
 449 0018 FFF7FEBF 		b	usb_lld_prepare_receive
 450              	.LVL44:
 451              		.cfi_endproc
 452              	.LFE128:
 453              		.size	usbPrepareQueuedReceive, .-usbPrepareQueuedReceive
 454 001c AFF30080 		.section	.text.usbPrepareQueuedTransmit,"ax",%progbits
 455              		.align	2
 456              		.p2align 4,,15
 457              		.global	usbPrepareQueuedTransmit
 458              		.thumb
 459              		.thumb_func
 460              		.type	usbPrepareQueuedTransmit, %function
 461              	usbPrepareQueuedTransmit:
 462              	.LFB129:
 463              		.loc 1 453 0
 464              		.cfi_startproc
 465              		@ args = 0, pretend = 0, frame = 0
 466              		@ frame_needed = 0, uses_anonymous_args = 0
 467              		@ link register save eliminated.
 468              	.LVL45:
 469 0000 30B4     		push	{r4, r5}
 470              	.LCFI7:
 471              		.cfi_def_cfa_offset 8
 472              		.cfi_offset 4, -8
 473              		.cfi_offset 5, -4
 474              		.loc 1 454 0
 475 0002 00EB8104 		add	r4, r0, r1, lsl #2
 476              		.loc 1 456 0
 477 0006 0125     		movs	r5, #1
 478              		.loc 1 454 0
 479 0008 E468     		ldr	r4, [r4, #12]
 480 000a 6469     		ldr	r4, [r4, #20]
 481              	.LVL46:
 482              		.loc 1 458 0
 483 000c 6360     		str	r3, [r4, #4]
 484              		.loc 1 459 0
 485 000e 0023     		movs	r3, #0
 486              	.LVL47:
 487              		.loc 1 456 0
 488 0010 2570     		strb	r5, [r4, #0]
 489              		.loc 1 457 0
 490 0012 E260     		str	r2, [r4, #12]
 491              		.loc 1 459 0
 492 0014 A360     		str	r3, [r4, #8]
 493              		.loc 1 462 0
 494 0016 30BC     		pop	{r4, r5}
 495              		.loc 1 461 0
 496 0018 FFF7FEBF 		b	usb_lld_prepare_transmit
 497              	.LVL48:
 498              		.cfi_endproc
 499              	.LFE129:
 500              		.size	usbPrepareQueuedTransmit, .-usbPrepareQueuedTransmit
 501 001c AFF30080 		.section	.text.usbStartReceiveI,"ax",%progbits
 502              		.align	2
ARM GAS  /tmp/ccf1VJri.s 			page 10


 503              		.p2align 4,,15
 504              		.global	usbStartReceiveI
 505              		.thumb
 506              		.thumb_func
 507              		.type	usbStartReceiveI, %function
 508              	usbStartReceiveI:
 509              	.LFB130:
 510              		.loc 1 478 0
 511              		.cfi_startproc
 512              		@ args = 0, pretend = 0, frame = 0
 513              		@ frame_needed = 0, uses_anonymous_args = 0
 514              	.LVL49:
 515 0000 70B5     		push	{r4, r5, r6, lr}
 516              	.LCFI8:
 517              		.cfi_def_cfa_offset 16
 518              		.cfi_offset 4, -16
 519              		.cfi_offset 5, -12
 520              		.cfi_offset 6, -8
 521              		.cfi_offset 14, -4
 522              		.loc 1 483 0
 523 0002 4489     		ldrh	r4, [r0, #10]
 524 0004 44FA01F3 		asr	r3, r4, r1
 525 0008 13F00106 		ands	r6, r3, #1
 526              		.loc 1 478 0
 527 000c 0D46     		mov	r5, r1
 528              		.loc 1 483 0
 529 000e 01D0     		beq	.L23
 530              		.loc 1 484 0
 531 0010 0120     		movs	r0, #1
 532              	.LVL50:
 533              		.loc 1 489 0
 534 0012 70BD     		pop	{r4, r5, r6, pc}
 535              	.LVL51:
 536              	.L23:
 537              		.loc 1 486 0
 538 0014 0123     		movs	r3, #1
 539 0016 03FA01F5 		lsl	r5, r3, r1
 540 001a 2C43     		orrs	r4, r4, r5
 541 001c 4481     		strh	r4, [r0, #10]	@ movhi
 542              		.loc 1 487 0
 543 001e FFF7FEFF 		bl	usb_lld_start_out
 544              	.LVL52:
 545              		.loc 1 488 0
 546 0022 3046     		mov	r0, r6
 547 0024 70BD     		pop	{r4, r5, r6, pc}
 548              		.cfi_endproc
 549              	.LFE130:
 550              		.size	usbStartReceiveI, .-usbStartReceiveI
 551 0026 00BFAFF3 		.section	.text.usbStartTransmitI,"ax",%progbits
 551      0080AFF3 
 551      0080
 552              		.align	2
 553              		.p2align 4,,15
 554              		.global	usbStartTransmitI
 555              		.thumb
 556              		.thumb_func
 557              		.type	usbStartTransmitI, %function
ARM GAS  /tmp/ccf1VJri.s 			page 11


 558              	usbStartTransmitI:
 559              	.LFB131:
 560              		.loc 1 505 0
 561              		.cfi_startproc
 562              		@ args = 0, pretend = 0, frame = 0
 563              		@ frame_needed = 0, uses_anonymous_args = 0
 564              	.LVL53:
 565 0000 70B5     		push	{r4, r5, r6, lr}
 566              	.LCFI9:
 567              		.cfi_def_cfa_offset 16
 568              		.cfi_offset 4, -16
 569              		.cfi_offset 5, -12
 570              		.cfi_offset 6, -8
 571              		.cfi_offset 14, -4
 572              		.loc 1 510 0
 573 0002 0489     		ldrh	r4, [r0, #8]
 574 0004 44FA01F3 		asr	r3, r4, r1
 575 0008 13F00106 		ands	r6, r3, #1
 576              		.loc 1 505 0
 577 000c 0D46     		mov	r5, r1
 578              		.loc 1 510 0
 579 000e 01D0     		beq	.L27
 580              		.loc 1 511 0
 581 0010 0120     		movs	r0, #1
 582              	.LVL54:
 583              		.loc 1 516 0
 584 0012 70BD     		pop	{r4, r5, r6, pc}
 585              	.LVL55:
 586              	.L27:
 587              		.loc 1 513 0
 588 0014 0123     		movs	r3, #1
 589 0016 03FA01F5 		lsl	r5, r3, r1
 590 001a 2C43     		orrs	r4, r4, r5
 591 001c 0481     		strh	r4, [r0, #8]	@ movhi
 592              		.loc 1 514 0
 593 001e FFF7FEFF 		bl	usb_lld_start_in
 594              	.LVL56:
 595              		.loc 1 515 0
 596 0022 3046     		mov	r0, r6
 597 0024 70BD     		pop	{r4, r5, r6, pc}
 598              		.cfi_endproc
 599              	.LFE131:
 600              		.size	usbStartTransmitI, .-usbStartTransmitI
 601 0026 00BFAFF3 		.section	.text.usbStallReceiveI,"ax",%progbits
 601      0080AFF3 
 601      0080
 602              		.align	2
 603              		.p2align 4,,15
 604              		.global	usbStallReceiveI
 605              		.thumb
 606              		.thumb_func
 607              		.type	usbStallReceiveI, %function
 608              	usbStallReceiveI:
 609              	.LFB132:
 610              		.loc 1 530 0
 611              		.cfi_startproc
 612              		@ args = 0, pretend = 0, frame = 0
ARM GAS  /tmp/ccf1VJri.s 			page 12


 613              		@ frame_needed = 0, uses_anonymous_args = 0
 614              	.LVL57:
 615              		.loc 1 535 0
 616 0000 4389     		ldrh	r3, [r0, #10]
 617 0002 43FA01F3 		asr	r3, r3, r1
 618              		.loc 1 530 0
 619 0006 10B5     		push	{r4, lr}
 620              	.LCFI10:
 621              		.cfi_def_cfa_offset 8
 622              		.cfi_offset 4, -8
 623              		.cfi_offset 14, -4
 624              		.loc 1 535 0
 625 0008 13F00104 		ands	r4, r3, #1
 626 000c 01D0     		beq	.L31
 627              		.loc 1 536 0
 628 000e 0120     		movs	r0, #1
 629              	.LVL58:
 630              		.loc 1 540 0
 631 0010 10BD     		pop	{r4, pc}
 632              	.LVL59:
 633              	.L31:
 634              		.loc 1 538 0
 635 0012 FFF7FEFF 		bl	usb_lld_stall_out
 636              	.LVL60:
 637              		.loc 1 539 0
 638 0016 2046     		mov	r0, r4
 639 0018 10BD     		pop	{r4, pc}
 640              		.cfi_endproc
 641              	.LFE132:
 642              		.size	usbStallReceiveI, .-usbStallReceiveI
 643 001a 00BFAFF3 		.section	.text.usbStallTransmitI,"ax",%progbits
 643      0080
 644              		.align	2
 645              		.p2align 4,,15
 646              		.global	usbStallTransmitI
 647              		.thumb
 648              		.thumb_func
 649              		.type	usbStallTransmitI, %function
 650              	usbStallTransmitI:
 651              	.LFB133:
 652              		.loc 1 554 0
 653              		.cfi_startproc
 654              		@ args = 0, pretend = 0, frame = 0
 655              		@ frame_needed = 0, uses_anonymous_args = 0
 656              	.LVL61:
 657              		.loc 1 559 0
 658 0000 0389     		ldrh	r3, [r0, #8]
 659 0002 43FA01F3 		asr	r3, r3, r1
 660              		.loc 1 554 0
 661 0006 10B5     		push	{r4, lr}
 662              	.LCFI11:
 663              		.cfi_def_cfa_offset 8
 664              		.cfi_offset 4, -8
 665              		.cfi_offset 14, -4
 666              		.loc 1 559 0
 667 0008 13F00104 		ands	r4, r3, #1
 668 000c 01D0     		beq	.L35
ARM GAS  /tmp/ccf1VJri.s 			page 13


 669              		.loc 1 560 0
 670 000e 0120     		movs	r0, #1
 671              	.LVL62:
 672              		.loc 1 564 0
 673 0010 10BD     		pop	{r4, pc}
 674              	.LVL63:
 675              	.L35:
 676              		.loc 1 562 0
 677 0012 FFF7FEFF 		bl	usb_lld_stall_in
 678              	.LVL64:
 679              		.loc 1 563 0
 680 0016 2046     		mov	r0, r4
 681 0018 10BD     		pop	{r4, pc}
 682              		.cfi_endproc
 683              	.LFE133:
 684              		.size	usbStallTransmitI, .-usbStallTransmitI
 685 001a 00BFAFF3 		.section	.text._usb_reset,"ax",%progbits
 685      0080
 686              		.align	2
 687              		.p2align 4,,15
 688              		.global	_usb_reset
 689              		.thumb
 690              		.thumb_func
 691              		.type	_usb_reset, %function
 692              	_usb_reset:
 693              	.LFB134:
 694              		.loc 1 575 0
 695              		.cfi_startproc
 696              		@ args = 0, pretend = 0, frame = 0
 697              		@ frame_needed = 0, uses_anonymous_args = 0
 698              		@ link register save eliminated.
 699              	.LVL65:
 700 0000 10B4     		push	{r4}
 701              	.LCFI12:
 702              		.cfi_def_cfa_offset 4
 703              		.cfi_offset 4, -4
 704              		.loc 1 575 0
 705 0002 0346     		mov	r3, r0
 706              		.loc 1 579 0
 707 0004 0022     		movs	r2, #0
 708              		.loc 1 578 0
 709 0006 0224     		movs	r4, #2
 710 0008 0470     		strb	r4, [r0, #0]
 711              		.loc 1 579 0
 712 000a A0F84C20 		strh	r2, [r0, #76]	@ movhi
 713              		.loc 1 580 0
 714 000e 83F84E20 		strb	r2, [r3, #78]
 715              		.loc 1 581 0
 716 0012 80F84F20 		strb	r2, [r0, #79]
 717              		.loc 1 582 0
 718 0016 0281     		strh	r2, [r0, #8]	@ movhi
 719              		.loc 1 583 0
 720 0018 4281     		strh	r2, [r0, #10]	@ movhi
 721              	.LVL66:
 722              		.loc 1 587 0
 723 001a C260     		str	r2, [r0, #12]
 724              	.LVL67:
ARM GAS  /tmp/ccf1VJri.s 			page 14


 725 001c 0261     		str	r2, [r0, #16]
 726              	.LVL68:
 727 001e 4261     		str	r2, [r0, #20]
 728              	.LVL69:
 729 0020 8261     		str	r2, [r0, #24]
 730              	.LVL70:
 731              		.loc 1 590 0
 732 0022 83F83420 		strb	r2, [r3, #52]
 733              		.loc 1 594 0
 734 0026 10BC     		pop	{r4}
 735              		.loc 1 593 0
 736 0028 FFF7FEBF 		b	usb_lld_reset
 737              	.LVL71:
 738              		.cfi_endproc
 739              	.LFE134:
 740              		.size	_usb_reset, .-_usb_reset
 741 002c AFF30080 		.section	.text._usb_ep0setup,"ax",%progbits
 742              		.align	2
 743              		.p2align 4,,15
 744              		.global	_usb_ep0setup
 745              		.thumb
 746              		.thumb_func
 747              		.type	_usb_ep0setup, %function
 748              	_usb_ep0setup:
 749              	.LFB135:
 750              		.loc 1 606 0
 751              		.cfi_startproc
 752              		@ args = 0, pretend = 0, frame = 0
 753              		@ frame_needed = 0, uses_anonymous_args = 0
 754              	.LVL72:
 755 0000 F8B5     		push	{r3, r4, r5, r6, r7, lr}
 756              	.LCFI13:
 757              		.cfi_def_cfa_offset 24
 758              		.cfi_offset 3, -24
 759              		.cfi_offset 4, -20
 760              		.cfi_offset 5, -16
 761              		.cfi_offset 6, -12
 762              		.cfi_offset 7, -8
 763              		.cfi_offset 14, -4
 764              		.loc 1 609 0
 765 0002 0023     		movs	r3, #0
 766              		.loc 1 606 0
 767 0004 0446     		mov	r4, r0
 768              		.loc 1 609 0
 769 0006 80F83430 		strb	r3, [r0, #52]
 770              		.loc 1 610 0
 771 000a 00F14402 		add	r2, r0, #68
 772 000e FFF7FEFF 		bl	usb_lld_read_setup
 773              	.LVL73:
 774              		.loc 1 614 0
 775 0012 6368     		ldr	r3, [r4, #4]
 776 0014 9B68     		ldr	r3, [r3, #8]
 777 0016 43B3     		cbz	r3, .L42
 778              		.loc 1 615 0 discriminator 1
 779 0018 2046     		mov	r0, r4
 780 001a 9847     		blx	r3
 781              	.LVL74:
ARM GAS  /tmp/ccf1VJri.s 			page 15


 782              		.loc 1 614 0 discriminator 1
 783 001c 28B3     		cbz	r0, .L42
 784 001e E56B     		ldr	r5, [r4, #60]
 785 0020 94F84430 		ldrb	r3, [r4, #68]	@ zero_extendqisi2
 786              	.L81:
 787              		.loc 1 634 0
 788 0024 94F84B10 		ldrb	r1, [r4, #75]	@ zero_extendqisi2
 789 0028 94F84A20 		ldrb	r2, [r4, #74]	@ zero_extendqisi2
 790 002c 42EA0122 		orr	r2, r2, r1, lsl #8
 791              	.LVL75:
 792              		.loc 1 636 0
 793 0030 AA42     		cmp	r2, r5
 794              		.loc 1 637 0
 795 0032 3CBF     		itt	cc
 796 0034 1546     		movcc	r5, r2
 797 0036 E263     		strcc	r2, [r4, #60]
 798              		.loc 1 638 0
 799 0038 13F0800F 		tst	r3, #128
 800              		.loc 1 643 0
 801 003c 2B46     		mov	r3, r5
 802              		.loc 1 638 0
 803 003e 7DD1     		bne	.L106
 804              		.loc 1 660 0
 805 0040 002D     		cmp	r5, #0
 806 0042 68D1     		bne	.L107
 807              		.loc 1 671 0
 808 0044 0522     		movs	r2, #5
 809              	.LVL76:
 810 0046 84F83420 		strb	r2, [r4, #52]
 811              		.loc 1 672 0
 812 004a 2046     		mov	r0, r4
 813 004c 2946     		mov	r1, r5
 814              	.LVL77:
 815 004e 2A46     		mov	r2, r5
 816 0050 FFF7FEFF 		bl	usbPrepareTransmit
 817              	.LVL78:
 818              	.LBB19:
 819              		.loc 1 673 0
 820 0054 2023     		movs	r3, #32
 821              	.LVL79:
 822              	@ 673 "/home/dpeter/devel/sources/ChibiOS-RT/os/hal/src/usb.c" 1
 823 0056 83F31188 		msr     BASEPRI, r3
 824              	@ 0 "" 2
 825              	.LVL80:
 826              		.thumb
 827              	.LBE19:
 828              		.loc 1 674 0
 829 005a 2046     		mov	r0, r4
 830 005c 2946     		mov	r1, r5
 831 005e FFF7FEFF 		bl	usbStartTransmitI
 832              	.LVL81:
 833              	.LBB20:
 834              		.loc 1 675 0
 835 0062 2B46     		mov	r3, r5
 836              	.LVL82:
 837              	@ 675 "/home/dpeter/devel/sources/ChibiOS-RT/os/hal/src/usb.c" 1
 838 0064 83F31188 		msr     BASEPRI, r3
ARM GAS  /tmp/ccf1VJri.s 			page 16


 839              	@ 0 "" 2
 840              	.LVL83:
 841              		.thumb
 842 0068 F8BD     		pop	{r3, r4, r5, r6, r7, pc}
 843              	.LVL84:
 844              	.L42:
 845              	.LBE20:
 846              		.loc 1 618 0
 847 006a 94F84430 		ldrb	r3, [r4, #68]	@ zero_extendqisi2
 848 006e 13F06007 		ands	r7, r3, #96
 849 0072 11D0     		beq	.L108
 850              	.L39:
 851              		.loc 1 623 0
 852 0074 0021     		movs	r1, #0
 853 0076 2046     		mov	r0, r4
 854 0078 FFF7FEFF 		bl	usb_lld_stall_in
 855              	.LVL85:
 856              		.loc 1 624 0
 857 007c 2046     		mov	r0, r4
 858 007e 0021     		movs	r1, #0
 859 0080 FFF7FEFF 		bl	usb_lld_stall_out
 860              	.LVL86:
 861              		.loc 1 625 0
 862 0084 6368     		ldr	r3, [r4, #4]
 863 0086 1B68     		ldr	r3, [r3, #0]
 864 0088 13B1     		cbz	r3, .L75
 865              		.loc 1 625 0 is_stmt 0 discriminator 1
 866 008a 2046     		mov	r0, r4
 867 008c 0521     		movs	r1, #5
 868 008e 9847     		blx	r3
 869              	.LVL87:
 870              	.L75:
 871              		.loc 1 626 0 is_stmt 1
 872 0090 0623     		movs	r3, #6
 873 0092 84F83430 		strb	r3, [r4, #52]
 874              		.loc 1 627 0
 875 0096 F8BD     		pop	{r3, r4, r5, r6, r7, pc}
 876              	.L108:
 877              	.LVL88:
 878              	.LBB21:
 879              	.LBB22:
 880              		.loc 1 88 0
 881 0098 94F84560 		ldrb	r6, [r4, #69]	@ zero_extendqisi2
 882              		.loc 1 86 0
 883 009c 03F07F02 		and	r2, r3, #127
 884              		.loc 1 87 0
 885 00a0 42EA0626 		orr	r6, r2, r6, lsl #8
 886              		.loc 1 86 0
 887 00a4 B6F5407F 		cmp	r6, #768
 888 00a8 00F0F980 		beq	.L49
 889 00ac 16DD     		ble	.L109
 890 00ae B6F5C06F 		cmp	r6, #1536
 891 00b2 00F08980 		beq	.L52
 892 00b6 68DD     		ble	.L110
 893 00b8 B6F5106F 		cmp	r6, #2304
 894 00bc 00F0B480 		beq	.L54
 895 00c0 40F60242 		movw	r2, #3074
ARM GAS  /tmp/ccf1VJri.s 			page 17


 896 00c4 9642     		cmp	r6, r2
 897 00c6 78D0     		beq	.L45
 898 00c8 B6F5006F 		cmp	r6, #2048
 899 00cc D2D1     		bne	.L39
 900              		.loc 1 135 0
 901 00ce 0125     		movs	r5, #1
 902 00d0 04F14F02 		add	r2, r4, #79
 903 00d4 A263     		str	r2, [r4, #56]
 904 00d6 E563     		str	r5, [r4, #60]
 905 00d8 2764     		str	r7, [r4, #64]
 906 00da A3E7     		b	.L81
 907              	.L109:
 908              		.loc 1 86 0
 909 00dc 022E     		cmp	r6, #2
 910 00de 00F0B580 		beq	.L46
 911 00e2 65DD     		ble	.L111
 912 00e4 B6F5807F 		cmp	r6, #256
 913 00e8 00F08780 		beq	.L47
 914 00ec B6F5817F 		cmp	r6, #258
 915 00f0 C0D1     		bne	.L39
 916              		.loc 1 181 0
 917 00f2 94F84620 		ldrb	r2, [r4, #70]	@ zero_extendqisi2
 918 00f6 002A     		cmp	r2, #0
 919 00f8 BCD1     		bne	.L39
 920              		.loc 1 184 0
 921 00fa 94F84820 		ldrb	r2, [r4, #72]	@ zero_extendqisi2
 922 00fe 12F00F01 		ands	r1, r2, #15
 923 0102 50D0     		beq	.L73
 924              		.loc 1 185 0
 925 0104 1206     		lsls	r2, r2, #24
 926              		.loc 1 186 0
 927 0106 2046     		mov	r0, r4
 928              		.loc 1 185 0
 929 0108 00F1FA80 		bmi	.L112
 930              	.LVL89:
 931              		.loc 1 188 0
 932 010c FFF7FEFF 		bl	usb_lld_clear_out
 933              	.LVL90:
 934 0110 94F84430 		ldrb	r3, [r4, #68]	@ zero_extendqisi2
 935 0114 47E0     		b	.L73
 936              	.LVL91:
 937              	.L107:
 938              	.LBE22:
 939              	.LBE21:
 940              		.loc 1 662 0
 941 0116 0422     		movs	r2, #4
 942              	.LVL92:
 943 0118 84F83420 		strb	r2, [r4, #52]
 944              		.loc 1 663 0
 945 011c 2046     		mov	r0, r4
 946 011e 0021     		movs	r1, #0
 947              	.LVL93:
 948 0120 A26B     		ldr	r2, [r4, #56]
 949 0122 FFF7FEFF 		bl	usbPrepareReceive
 950              	.LVL94:
 951              	.LBB26:
 952              		.loc 1 664 0
ARM GAS  /tmp/ccf1VJri.s 			page 18


 953 0126 2023     		movs	r3, #32
 954              	.LVL95:
 955              	@ 664 "/home/dpeter/devel/sources/ChibiOS-RT/os/hal/src/usb.c" 1
 956 0128 83F31188 		msr     BASEPRI, r3
 957              	@ 0 "" 2
 958              	.LVL96:
 959              		.thumb
 960              	.LBE26:
 961              		.loc 1 665 0
 962 012c 0021     		movs	r1, #0
 963 012e 2046     		mov	r0, r4
 964 0130 FFF7FEFF 		bl	usbStartReceiveI
 965              	.LVL97:
 966              	.LBB27:
 967              		.loc 1 666 0
 968 0134 0023     		movs	r3, #0
 969              	.LVL98:
 970              	@ 666 "/home/dpeter/devel/sources/ChibiOS-RT/os/hal/src/usb.c" 1
 971 0136 83F31188 		msr     BASEPRI, r3
 972              	@ 0 "" 2
 973              	.LVL99:
 974              		.thumb
 975 013a F8BD     		pop	{r3, r4, r5, r6, r7, pc}
 976              	.LVL100:
 977              	.L106:
 978              	.LBE27:
 979              		.loc 1 640 0
 980 013c 95B1     		cbz	r5, .L79
 981              		.loc 1 642 0
 982 013e 0122     		movs	r2, #1
 983              	.LVL101:
 984 0140 84F83420 		strb	r2, [r4, #52]
 985              		.loc 1 643 0
 986 0144 2046     		mov	r0, r4
 987 0146 0021     		movs	r1, #0
 988              	.LVL102:
 989 0148 A26B     		ldr	r2, [r4, #56]
 990 014a FFF7FEFF 		bl	usbPrepareTransmit
 991              	.LVL103:
 992              	.LBB28:
 993              		.loc 1 644 0
 994 014e 2023     		movs	r3, #32
 995              	.LVL104:
 996              	@ 644 "/home/dpeter/devel/sources/ChibiOS-RT/os/hal/src/usb.c" 1
 997 0150 83F31188 		msr     BASEPRI, r3
 998              	@ 0 "" 2
 999              	.LVL105:
 1000              		.thumb
 1001              	.LBE28:
 1002              		.loc 1 645 0
 1003 0154 0021     		movs	r1, #0
 1004 0156 2046     		mov	r0, r4
 1005 0158 FFF7FEFF 		bl	usbStartTransmitI
 1006              	.LVL106:
 1007              	.LBB29:
 1008              		.loc 1 646 0
 1009 015c 0023     		movs	r3, #0
ARM GAS  /tmp/ccf1VJri.s 			page 19


 1010              	.LVL107:
 1011              	@ 646 "/home/dpeter/devel/sources/ChibiOS-RT/os/hal/src/usb.c" 1
 1012 015e 83F31188 		msr     BASEPRI, r3
 1013              	@ 0 "" 2
 1014              	.LVL108:
 1015              		.thumb
 1016 0162 F8BD     		pop	{r3, r4, r5, r6, r7, pc}
 1017              	.LVL109:
 1018              	.L79:
 1019              	.LBE29:
 1020              		.loc 1 651 0
 1021 0164 0322     		movs	r2, #3
 1022              	.LVL110:
 1023 0166 84F83420 		strb	r2, [r4, #52]
 1024              		.loc 1 652 0
 1025 016a 2046     		mov	r0, r4
 1026 016c 2946     		mov	r1, r5
 1027              	.LVL111:
 1028 016e 2A46     		mov	r2, r5
 1029 0170 FFF7FEFF 		bl	usbPrepareReceive
 1030              	.LVL112:
 1031              	.LBB30:
 1032              		.loc 1 653 0
 1033 0174 2023     		movs	r3, #32
 1034              	.LVL113:
 1035              	@ 653 "/home/dpeter/devel/sources/ChibiOS-RT/os/hal/src/usb.c" 1
 1036 0176 83F31188 		msr     BASEPRI, r3
 1037              	@ 0 "" 2
 1038              	.LVL114:
 1039              		.thumb
 1040              	.LBE30:
 1041              		.loc 1 654 0
 1042 017a 2046     		mov	r0, r4
 1043 017c 2946     		mov	r1, r5
 1044 017e FFF7FEFF 		bl	usbStartReceiveI
 1045              	.LVL115:
 1046              	.LBB31:
 1047              		.loc 1 655 0
 1048 0182 2B46     		mov	r3, r5
 1049              	.LVL116:
 1050              	@ 655 "/home/dpeter/devel/sources/ChibiOS-RT/os/hal/src/usb.c" 1
 1051 0184 83F31188 		msr     BASEPRI, r3
 1052              	@ 0 "" 2
 1053              	.LVL117:
 1054              		.thumb
 1055 0188 F8BD     		pop	{r3, r4, r5, r6, r7, pc}
 1056              	.LVL118:
 1057              	.L110:
 1058              	.LBE31:
 1059              	.LBB32:
 1060              	.LBB25:
 1061              		.loc 1 86 0
 1062 018a 40F20232 		movw	r2, #770
 1063 018e 9642     		cmp	r6, r2
 1064 0190 73D0     		beq	.L50
 1065 0192 B6F5A06F 		cmp	r6, #1280
 1066 0196 7FF46DAF 		bne	.L39
ARM GAS  /tmp/ccf1VJri.s 			page 20


 1067              		.loc 1 116 0
 1068 019a B4F84420 		ldrh	r2, [r4, #68]
 1069 019e B2F5A06F 		cmp	r2, #1280
 1070 01a2 00F09B80 		beq	.L113
 1071              	.L73:
 1072              		.loc 1 203 0
 1073 01a6 0025     		movs	r5, #0
 1074 01a8 A563     		str	r5, [r4, #56]
 1075 01aa E563     		str	r5, [r4, #60]
 1076 01ac 2564     		str	r5, [r4, #64]
 1077 01ae 39E7     		b	.L81
 1078              	.L111:
 1079              		.loc 1 86 0
 1080 01b0 002E     		cmp	r6, #0
 1081 01b2 32D0     		beq	.L44
 1082 01b4 012E     		cmp	r6, #1
 1083 01b6 7FF45DAF 		bne	.L39
 1084              	.L45:
 1085              		.loc 1 151 0
 1086 01ba 564A     		ldr	r2, .L116
 1087 01bc 0225     		movs	r5, #2
 1088 01be A263     		str	r2, [r4, #56]
 1089 01c0 0022     		movs	r2, #0
 1090 01c2 E563     		str	r5, [r4, #60]
 1091 01c4 2264     		str	r2, [r4, #64]
 1092 01c6 2DE7     		b	.L81
 1093              	.L52:
 1094              		.loc 1 126 0
 1095 01c8 6268     		ldr	r2, [r4, #4]
 1096              		.loc 1 128 0
 1097 01ca 94F84960 		ldrb	r6, [r4, #73]	@ zero_extendqisi2
 1098              		.loc 1 126 0
 1099 01ce 94F84830 		ldrb	r3, [r4, #72]	@ zero_extendqisi2
 1100 01d2 5568     		ldr	r5, [r2, #4]
 1101 01d4 94F84710 		ldrb	r1, [r4, #71]	@ zero_extendqisi2
 1102 01d8 94F84620 		ldrb	r2, [r4, #70]	@ zero_extendqisi2
 1103 01dc 2046     		mov	r0, r4
 1104 01de 43EA0623 		orr	r3, r3, r6, lsl #8
 1105 01e2 A847     		blx	r5
 1106              	.LVL119:
 1107              		.loc 1 129 0
 1108 01e4 0028     		cmp	r0, #0
 1109 01e6 3FF445AF 		beq	.L39
 1110              		.loc 1 131 0
 1111 01ea 4368     		ldr	r3, [r0, #4]
 1112 01ec 0568     		ldr	r5, [r0, #0]
 1113 01ee A363     		str	r3, [r4, #56]
 1114 01f0 E563     		str	r5, [r4, #60]
 1115 01f2 2764     		str	r7, [r4, #64]
 1116 01f4 94F84430 		ldrb	r3, [r4, #68]	@ zero_extendqisi2
 1117 01f8 14E7     		b	.L81
 1118              	.LVL120:
 1119              	.L47:
 1120              		.loc 1 96 0
 1121 01fa 94F84620 		ldrb	r2, [r4, #70]	@ zero_extendqisi2
 1122 01fe 012A     		cmp	r2, #1
 1123 0200 7FF438AF 		bne	.L39
ARM GAS  /tmp/ccf1VJri.s 			page 21


 1124              		.loc 1 97 0
 1125 0204 B4F84C20 		ldrh	r2, [r4, #76]
 1126              		.loc 1 98 0
 1127 0208 A763     		str	r7, [r4, #56]
 1128              		.loc 1 97 0
 1129 020a 22F00202 		bic	r2, r2, #2
 1130 020e A4F84C20 		strh	r2, [r4, #76]	@ movhi
 1131              		.loc 1 98 0
 1132 0212 E763     		str	r7, [r4, #60]
 1133 0214 2764     		str	r7, [r4, #64]
 1134 0216 3D46     		mov	r5, r7
 1135 0218 04E7     		b	.L81
 1136              	.L44:
 1137              		.loc 1 91 0
 1138 021a 0225     		movs	r5, #2
 1139 021c 04F14C02 		add	r2, r4, #76
 1140 0220 A263     		str	r2, [r4, #56]
 1141 0222 E563     		str	r5, [r4, #60]
 1142 0224 2664     		str	r6, [r4, #64]
 1143 0226 FDE6     		b	.L81
 1144              	.L54:
 1145              		.loc 1 139 0
 1146 0228 94F84620 		ldrb	r2, [r4, #70]	@ zero_extendqisi2
 1147 022c 84F84F20 		strb	r2, [r4, #79]
 1148              		.loc 1 140 0
 1149 0230 002A     		cmp	r2, #0
 1150 0232 44D1     		bne	.L63
 1151              		.loc 1 141 0
 1152 0234 0322     		movs	r2, #3
 1153 0236 2270     		strb	r2, [r4, #0]
 1154              	.L64:
 1155              		.loc 1 144 0
 1156 0238 6268     		ldr	r2, [r4, #4]
 1157 023a 1268     		ldr	r2, [r2, #0]
 1158 023c 002A     		cmp	r2, #0
 1159 023e B2D0     		beq	.L73
 1160 0240 2046     		mov	r0, r4
 1161 0242 0221     		movs	r1, #2
 1162 0244 9047     		blx	r2
 1163              	.LVL121:
 1164 0246 94F84430 		ldrb	r3, [r4, #68]	@ zero_extendqisi2
 1165 024a ACE7     		b	.L73
 1166              	.L46:
 1167              		.loc 1 155 0
 1168 024c 94F84810 		ldrb	r1, [r4, #72]	@ zero_extendqisi2
 1169 0250 11F0800F 		tst	r1, #128
 1170              		.loc 1 156 0
 1171 0254 2046     		mov	r0, r4
 1172 0256 01F00F01 		and	r1, r1, #15
 1173              		.loc 1 155 0
 1174 025a 33D1     		bne	.L114
 1175              	.LVL122:
 1176              		.loc 1 168 0
 1177 025c FFF7FEFF 		bl	usb_lld_get_status_out
 1178              	.LVL123:
 1179 0260 0128     		cmp	r0, #1
 1180 0262 33D0     		beq	.L69
ARM GAS  /tmp/ccf1VJri.s 			page 22


 1181              	.L105:
 1182 0264 0228     		cmp	r0, #2
 1183 0266 7FF405AF 		bne	.L39
 1184              		.loc 1 173 0
 1185 026a 2B4B     		ldr	r3, .L116+4
 1186 026c E063     		str	r0, [r4, #60]
 1187 026e A363     		str	r3, [r4, #56]
 1188 0270 2764     		str	r7, [r4, #64]
 1189 0272 94F84430 		ldrb	r3, [r4, #68]	@ zero_extendqisi2
 1190 0276 0546     		mov	r5, r0
 1191 0278 D4E6     		b	.L81
 1192              	.L50:
 1193              		.loc 1 194 0
 1194 027a 94F84620 		ldrb	r2, [r4, #70]	@ zero_extendqisi2
 1195 027e 002A     		cmp	r2, #0
 1196 0280 7FF4F8AE 		bne	.L39
 1197              		.loc 1 197 0
 1198 0284 94F84820 		ldrb	r2, [r4, #72]	@ zero_extendqisi2
 1199 0288 12F00F01 		ands	r1, r2, #15
 1200 028c 8BD0     		beq	.L73
 1201              		.loc 1 198 0
 1202 028e 1306     		lsls	r3, r2, #24
 1203              		.loc 1 199 0
 1204 0290 2046     		mov	r0, r4
 1205              		.loc 1 198 0
 1206 0292 3AD4     		bmi	.L115
 1207              	.LVL124:
 1208              		.loc 1 201 0
 1209 0294 FFF7FEFF 		bl	usb_lld_stall_out
 1210              	.LVL125:
 1211 0298 94F84430 		ldrb	r3, [r4, #68]	@ zero_extendqisi2
 1212 029c 83E7     		b	.L73
 1213              	.L49:
 1214              		.loc 1 105 0
 1215 029e 94F84620 		ldrb	r2, [r4, #70]	@ zero_extendqisi2
 1216 02a2 012A     		cmp	r2, #1
 1217 02a4 7FF4E6AE 		bne	.L39
 1218              		.loc 1 106 0
 1219 02a8 B4F84C20 		ldrh	r2, [r4, #76]
 1220              		.loc 1 107 0
 1221 02ac A763     		str	r7, [r4, #56]
 1222              		.loc 1 106 0
 1223 02ae 42F00202 		orr	r2, r2, #2
 1224 02b2 A4F84C20 		strh	r2, [r4, #76]	@ movhi
 1225              		.loc 1 107 0
 1226 02b6 E763     		str	r7, [r4, #60]
 1227 02b8 2764     		str	r7, [r4, #64]
 1228 02ba 3D46     		mov	r5, r7
 1229 02bc B2E6     		b	.L81
 1230              	.L63:
 1231              		.loc 1 143 0
 1232 02be 0422     		movs	r2, #4
 1233 02c0 2270     		strb	r2, [r4, #0]
 1234 02c2 B9E7     		b	.L64
 1235              	.LVL126:
 1236              	.L114:
 1237              		.loc 1 156 0
ARM GAS  /tmp/ccf1VJri.s 			page 23


 1238 02c4 FFF7FEFF 		bl	usb_lld_get_status_in
 1239              	.LVL127:
 1240 02c8 0128     		cmp	r0, #1
 1241 02ca CBD1     		bne	.L105
 1242              	.L69:
 1243              		.loc 1 170 0
 1244 02cc 134B     		ldr	r3, .L116+8
 1245 02ce E663     		str	r6, [r4, #60]
 1246 02d0 A363     		str	r3, [r4, #56]
 1247 02d2 2764     		str	r7, [r4, #64]
 1248 02d4 94F84430 		ldrb	r3, [r4, #68]	@ zero_extendqisi2
 1249 02d8 3546     		mov	r5, r6
 1250 02da A3E6     		b	.L81
 1251              	.L113:
 1252              	.LVL128:
 1253              	.LBB23:
 1254              	.LBB24:
 1255              		.loc 1 64 0
 1256 02dc 94F84630 		ldrb	r3, [r4, #70]	@ zero_extendqisi2
 1257              		.loc 1 65 0
 1258 02e0 2046     		mov	r0, r4
 1259              		.loc 1 64 0
 1260 02e2 84F84E30 		strb	r3, [r4, #78]
 1261              		.loc 1 65 0
 1262 02e6 FFF7FEFF 		bl	usb_lld_set_address
 1263              	.LVL129:
 1264              		.loc 1 66 0
 1265 02ea 6368     		ldr	r3, [r4, #4]
 1266 02ec 1B68     		ldr	r3, [r3, #0]
 1267 02ee 13B1     		cbz	r3, .L62
 1268 02f0 2046     		mov	r0, r4
 1269 02f2 0121     		movs	r1, #1
 1270 02f4 9847     		blx	r3
 1271              	.LVL130:
 1272              	.L62:
 1273              		.loc 1 67 0
 1274 02f6 0322     		movs	r2, #3
 1275 02f8 94F84430 		ldrb	r3, [r4, #68]	@ zero_extendqisi2
 1276 02fc 2270     		strb	r2, [r4, #0]
 1277 02fe 52E7     		b	.L73
 1278              	.LVL131:
 1279              	.L112:
 1280              	.LBE24:
 1281              	.LBE23:
 1282              		.loc 1 186 0
 1283 0300 FFF7FEFF 		bl	usb_lld_clear_in
 1284              	.LVL132:
 1285 0304 94F84430 		ldrb	r3, [r4, #68]	@ zero_extendqisi2
 1286 0308 4DE7     		b	.L73
 1287              	.LVL133:
 1288              	.L115:
 1289              		.loc 1 199 0
 1290 030a FFF7FEFF 		bl	usb_lld_stall_in
 1291              	.LVL134:
 1292 030e 94F84430 		ldrb	r3, [r4, #68]	@ zero_extendqisi2
 1293 0312 48E7     		b	.L73
 1294              	.L117:
ARM GAS  /tmp/ccf1VJri.s 			page 24


 1295              		.align	2
 1296              	.L116:
 1297 0314 00000000 		.word	.LANCHOR0
 1298 0318 00000000 		.word	.LANCHOR2
 1299 031c 00000000 		.word	.LANCHOR1
 1300              	.LBE25:
 1301              	.LBE32:
 1302              		.cfi_endproc
 1303              	.LFE135:
 1304              		.size	_usb_ep0setup, .-_usb_ep0setup
 1305              		.section	.text._usb_ep0in,"ax",%progbits
 1306              		.align	2
 1307              		.p2align 4,,15
 1308              		.global	_usb_ep0in
 1309              		.thumb
 1310              		.thumb_func
 1311              		.type	_usb_ep0in, %function
 1312              	_usb_ep0in:
 1313              	.LFB136:
 1314              		.loc 1 690 0
 1315              		.cfi_startproc
 1316              		@ args = 0, pretend = 0, frame = 0
 1317              		@ frame_needed = 0, uses_anonymous_args = 0
 1318              	.LVL135:
 1319 0000 38B5     		push	{r3, r4, r5, lr}
 1320              	.LCFI14:
 1321              		.cfi_def_cfa_offset 16
 1322              		.cfi_offset 3, -16
 1323              		.cfi_offset 4, -12
 1324              		.cfi_offset 5, -8
 1325              		.cfi_offset 14, -4
 1326              		.loc 1 694 0
 1327 0002 90F83430 		ldrb	r3, [r0, #52]	@ zero_extendqisi2
 1328 0006 022B     		cmp	r3, #2
 1329              		.loc 1 690 0
 1330 0008 0446     		mov	r4, r0
 1331              		.loc 1 694 0
 1332 000a 24D0     		beq	.L121
 1333 000c 052B     		cmp	r3, #5
 1334 000e 36D0     		beq	.L122
 1335 0010 012B     		cmp	r3, #1
 1336 0012 10D0     		beq	.L136
 1337              		.loc 1 729 0
 1338 0014 0021     		movs	r1, #0
 1339              	.LVL136:
 1340 0016 FFF7FEFF 		bl	usb_lld_stall_in
 1341              	.LVL137:
 1342              		.loc 1 730 0
 1343 001a 2046     		mov	r0, r4
 1344 001c 0021     		movs	r1, #0
 1345 001e FFF7FEFF 		bl	usb_lld_stall_out
 1346              	.LVL138:
 1347              		.loc 1 731 0
 1348 0022 6368     		ldr	r3, [r4, #4]
 1349 0024 1B68     		ldr	r3, [r3, #0]
 1350 0026 13B1     		cbz	r3, .L125
 1351              		.loc 1 731 0 is_stmt 0 discriminator 1
ARM GAS  /tmp/ccf1VJri.s 			page 25


 1352 0028 2046     		mov	r0, r4
 1353 002a 0521     		movs	r1, #5
 1354 002c 9847     		blx	r3
 1355              	.LVL139:
 1356              	.L125:
 1357              		.loc 1 732 0 is_stmt 1
 1358 002e 0623     		movs	r3, #6
 1359 0030 84F83430 		strb	r3, [r4, #52]
 1360 0034 38BD     		pop	{r3, r4, r5, pc}
 1361              	.LVL140:
 1362              	.L136:
 1363              		.loc 1 696 0
 1364 0036 90F84B10 		ldrb	r1, [r0, #75]	@ zero_extendqisi2
 1365              	.LVL141:
 1366 003a 90F84A30 		ldrb	r3, [r0, #74]	@ zero_extendqisi2
 1367              		.loc 1 700 0
 1368 003e C26B     		ldr	r2, [r0, #60]
 1369              		.loc 1 696 0
 1370 0040 43EA0123 		orr	r3, r3, r1, lsl #8
 1371              		.loc 1 700 0
 1372 0044 9342     		cmp	r3, r2
 1373 0046 06D9     		bls	.L121
 1374              		.loc 1 700 0 is_stmt 0 discriminator 1
 1375 0048 C368     		ldr	r3, [r0, #12]
 1376 004a 1B8A     		ldrh	r3, [r3, #16]
 1377 004c B2FBF3F5 		udiv	r5, r2, r3
 1378 0050 03FB1525 		mls	r5, r3, r5, r2
 1379 0054 D5B1     		cbz	r5, .L137
 1380              	.LVL142:
 1381              	.L121:
 1382              		.loc 1 712 0 is_stmt 1
 1383 0056 0021     		movs	r1, #0
 1384              		.loc 1 711 0
 1385 0058 0322     		movs	r2, #3
 1386              		.loc 1 712 0
 1387 005a 0B46     		mov	r3, r1
 1388              		.loc 1 711 0
 1389 005c 84F83420 		strb	r2, [r4, #52]
 1390              		.loc 1 712 0
 1391 0060 2046     		mov	r0, r4
 1392              	.LVL143:
 1393 0062 0A46     		mov	r2, r1
 1394 0064 FFF7FEFF 		bl	usbPrepareReceive
 1395              	.LVL144:
 1396              	.LBB33:
 1397              		.loc 1 713 0
 1398 0068 2023     		movs	r3, #32
 1399              	.LVL145:
 1400              	@ 713 "/home/dpeter/devel/sources/ChibiOS-RT/os/hal/src/usb.c" 1
 1401 006a 83F31188 		msr     BASEPRI, r3
 1402              	@ 0 "" 2
 1403              	.LVL146:
 1404              		.thumb
 1405              	.LBE33:
 1406              		.loc 1 714 0
 1407 006e 0021     		movs	r1, #0
 1408 0070 2046     		mov	r0, r4
ARM GAS  /tmp/ccf1VJri.s 			page 26


 1409 0072 FFF7FEFF 		bl	usbStartReceiveI
 1410              	.LVL147:
 1411              	.LBB34:
 1412              		.loc 1 715 0
 1413 0076 0023     		movs	r3, #0
 1414              	.LVL148:
 1415              	@ 715 "/home/dpeter/devel/sources/ChibiOS-RT/os/hal/src/usb.c" 1
 1416 0078 83F31188 		msr     BASEPRI, r3
 1417              	@ 0 "" 2
 1418              	.LVL149:
 1419              		.thumb
 1420              	.LBE34:
 1421              		.loc 1 716 0
 1422 007c 38BD     		pop	{r3, r4, r5, pc}
 1423              	.LVL150:
 1424              	.L122:
 1425              		.loc 1 719 0
 1426 007e 036C     		ldr	r3, [r0, #64]
 1427 0080 03B1     		cbz	r3, .L124
 1428              		.loc 1 720 0
 1429 0082 9847     		blx	r3
 1430              	.LVL151:
 1431              	.L124:
 1432              		.loc 1 721 0
 1433 0084 0023     		movs	r3, #0
 1434 0086 84F83430 		strb	r3, [r4, #52]
 1435              		.loc 1 722 0
 1436 008a 38BD     		pop	{r3, r4, r5, pc}
 1437              	.LVL152:
 1438              	.L137:
 1439              		.loc 1 701 0
 1440 008c 2B46     		mov	r3, r5
 1441 008e 2946     		mov	r1, r5
 1442 0090 2A46     		mov	r2, r5
 1443 0092 FFF7FEFF 		bl	usbPrepareTransmit
 1444              	.LVL153:
 1445              	.LBB35:
 1446              		.loc 1 702 0
 1447 0096 2023     		movs	r3, #32
 1448              	.LVL154:
 1449              	@ 702 "/home/dpeter/devel/sources/ChibiOS-RT/os/hal/src/usb.c" 1
 1450 0098 83F31188 		msr     BASEPRI, r3
 1451              	@ 0 "" 2
 1452              	.LVL155:
 1453              		.thumb
 1454              	.LBE35:
 1455              		.loc 1 703 0
 1456 009c 2046     		mov	r0, r4
 1457 009e 2946     		mov	r1, r5
 1458 00a0 FFF7FEFF 		bl	usbStartTransmitI
 1459              	.LVL156:
 1460              	.LBB36:
 1461              		.loc 1 704 0
 1462 00a4 2B46     		mov	r3, r5
 1463              	.LVL157:
 1464              	@ 704 "/home/dpeter/devel/sources/ChibiOS-RT/os/hal/src/usb.c" 1
 1465 00a6 83F31188 		msr     BASEPRI, r3
ARM GAS  /tmp/ccf1VJri.s 			page 27


 1466              	@ 0 "" 2
 1467              	.LVL158:
 1468              		.thumb
 1469              	.LBE36:
 1470              		.loc 1 705 0
 1471 00aa 0223     		movs	r3, #2
 1472              	.LVL159:
 1473 00ac 84F83430 		strb	r3, [r4, #52]
 1474              		.loc 1 706 0
 1475 00b0 38BD     		pop	{r3, r4, r5, pc}
 1476              		.cfi_endproc
 1477              	.LFE136:
 1478              		.size	_usb_ep0in, .-_usb_ep0in
 1479 00b2 00BFAFF3 		.section	.text._usb_ep0out,"ax",%progbits
 1479      0080AFF3 
 1479      0080AFF3 
 1479      0080
 1480              		.align	2
 1481              		.p2align 4,,15
 1482              		.global	_usb_ep0out
 1483              		.thumb
 1484              		.thumb_func
 1485              		.type	_usb_ep0out, %function
 1486              	_usb_ep0out:
 1487              	.LFB137:
 1488              		.loc 1 745 0
 1489              		.cfi_startproc
 1490              		@ args = 0, pretend = 0, frame = 0
 1491              		@ frame_needed = 0, uses_anonymous_args = 0
 1492              	.LVL160:
 1493              		.loc 1 748 0
 1494 0000 90F83430 		ldrb	r3, [r0, #52]	@ zero_extendqisi2
 1495 0004 032B     		cmp	r3, #3
 1496              		.loc 1 745 0
 1497 0006 10B5     		push	{r4, lr}
 1498              	.LCFI15:
 1499              		.cfi_def_cfa_offset 8
 1500              		.cfi_offset 4, -8
 1501              		.cfi_offset 14, -4
 1502              		.loc 1 745 0
 1503 0008 0446     		mov	r4, r0
 1504              		.loc 1 748 0
 1505 000a 26D0     		beq	.L140
 1506 000c 042B     		cmp	r3, #4
 1507 000e 11D0     		beq	.L151
 1508              	.L139:
 1509              		.loc 1 772 0
 1510 0010 0021     		movs	r1, #0
 1511              	.LVL161:
 1512 0012 2046     		mov	r0, r4
 1513              	.LVL162:
 1514 0014 FFF7FEFF 		bl	usb_lld_stall_in
 1515              	.LVL163:
 1516              		.loc 1 773 0
 1517 0018 2046     		mov	r0, r4
 1518 001a 0021     		movs	r1, #0
 1519 001c FFF7FEFF 		bl	usb_lld_stall_out
ARM GAS  /tmp/ccf1VJri.s 			page 28


 1520              	.LVL164:
 1521              		.loc 1 774 0
 1522 0020 6368     		ldr	r3, [r4, #4]
 1523 0022 1B68     		ldr	r3, [r3, #0]
 1524 0024 13B1     		cbz	r3, .L144
 1525              		.loc 1 774 0 is_stmt 0 discriminator 1
 1526 0026 2046     		mov	r0, r4
 1527 0028 0521     		movs	r1, #5
 1528 002a 9847     		blx	r3
 1529              	.LVL165:
 1530              	.L144:
 1531              		.loc 1 775 0 is_stmt 1
 1532 002c 0623     		movs	r3, #6
 1533 002e 84F83430 		strb	r3, [r4, #52]
 1534 0032 10BD     		pop	{r4, pc}
 1535              	.LVL166:
 1536              	.L151:
 1537              		.loc 1 752 0
 1538 0034 0021     		movs	r1, #0
 1539              	.LVL167:
 1540              		.loc 1 751 0
 1541 0036 0522     		movs	r2, #5
 1542              		.loc 1 752 0
 1543 0038 0B46     		mov	r3, r1
 1544              		.loc 1 751 0
 1545 003a 80F83420 		strb	r2, [r0, #52]
 1546              		.loc 1 752 0
 1547 003e 0A46     		mov	r2, r1
 1548 0040 FFF7FEFF 		bl	usbPrepareTransmit
 1549              	.LVL168:
 1550              	.LBB37:
 1551              		.loc 1 753 0
 1552 0044 2023     		movs	r3, #32
 1553              	.LVL169:
 1554              	@ 753 "/home/dpeter/devel/sources/ChibiOS-RT/os/hal/src/usb.c" 1
 1555 0046 83F31188 		msr     BASEPRI, r3
 1556              	@ 0 "" 2
 1557              	.LVL170:
 1558              		.thumb
 1559              	.LBE37:
 1560              		.loc 1 754 0
 1561 004a 0021     		movs	r1, #0
 1562 004c 2046     		mov	r0, r4
 1563 004e FFF7FEFF 		bl	usbStartTransmitI
 1564              	.LVL171:
 1565              	.LBB38:
 1566              		.loc 1 755 0
 1567 0052 0023     		movs	r3, #0
 1568              	.LVL172:
 1569              	@ 755 "/home/dpeter/devel/sources/ChibiOS-RT/os/hal/src/usb.c" 1
 1570 0054 83F31188 		msr     BASEPRI, r3
 1571              	@ 0 "" 2
 1572              	.LVL173:
 1573              		.thumb
 1574              	.LBE38:
 1575              		.loc 1 756 0
 1576 0058 10BD     		pop	{r4, pc}
ARM GAS  /tmp/ccf1VJri.s 			page 29


 1577              	.LVL174:
 1578              	.L140:
 1579              		.loc 1 760 0
 1580 005a C368     		ldr	r3, [r0, #12]
 1581 005c 9B69     		ldr	r3, [r3, #24]
 1582 005e 9B68     		ldr	r3, [r3, #8]
 1583 0060 002B     		cmp	r3, #0
 1584 0062 D5D1     		bne	.L139
 1585              		.loc 1 762 0
 1586 0064 036C     		ldr	r3, [r0, #64]
 1587 0066 03B1     		cbz	r3, .L143
 1588              		.loc 1 763 0
 1589 0068 9847     		blx	r3
 1590              	.LVL175:
 1591              	.L143:
 1592              		.loc 1 764 0
 1593 006a 0023     		movs	r3, #0
 1594 006c 84F83430 		strb	r3, [r4, #52]
 1595              		.loc 1 765 0
 1596 0070 10BD     		pop	{r4, pc}
 1597              		.cfi_endproc
 1598              	.LFE137:
 1599              		.size	_usb_ep0out, .-_usb_ep0out
 1600 0072 00BFAFF3 		.section	.rodata.zero_status,"a",%progbits
 1600      0080AFF3 
 1600      0080AFF3 
 1600      0080
 1601              		.align	2
 1602              		.set	.LANCHOR0,. + 0
 1603              		.type	zero_status, %object
 1604              		.size	zero_status, 2
 1605              	zero_status:
 1606 0000 0000     		.space	2
 1607 0002 0000     		.section	.rodata.active_status,"a",%progbits
 1608              		.align	2
 1609              		.set	.LANCHOR2,. + 0
 1610              		.type	active_status, %object
 1611              		.size	active_status, 2
 1612              	active_status:
 1613 0000 0000     		.space	2
 1614 0002 0000     		.section	.rodata.halted_status,"a",%progbits
 1615              		.align	2
 1616              		.set	.LANCHOR1,. + 0
 1617              		.type	halted_status, %object
 1618              		.size	halted_status, 2
 1619              	halted_status:
 1620 0000 01       		.byte	1
 1621 0001 00       		.byte	0
 1622 0002 0000     		.text
 1623              	.Letext0:
 1624              		.file 2 "/home/dpeter/CodeSourcery/Sourcery_CodeBench_Lite_for_ARM_EABI/bin/../lib/gcc/arm-none-ea
 1625              		.file 3 "/home/dpeter/CodeSourcery/Sourcery_CodeBench_Lite_for_ARM_EABI/bin/../lib/gcc/arm-none-ea
 1626              		.file 4 "/home/dpeter/devel/sources/ChibiOS-RT/os/ports/GCC/ARMCMx/chtypes.h"
 1627              		.file 5 "/home/dpeter/devel/sources/ChibiOS-RT/os/kernel/include/chlists.h"
 1628              		.file 6 "/home/dpeter/devel/sources/ChibiOS-RT/os/kernel/include/chthreads.h"
 1629              		.file 7 "/home/dpeter/devel/sources/ChibiOS-RT/os/ports/GCC/ARMCMx/chcore_v7m.h"
 1630              		.file 8 "/home/dpeter/devel/sources/ChibiOS-RT/os/kernel/include/chmtx.h"
ARM GAS  /tmp/ccf1VJri.s 			page 30


 1631              		.file 9 "/home/dpeter/devel/sources/ChibiOS-RT/os/kernel/include/chqueues.h"
 1632              		.file 10 "/home/dpeter/devel/sources/ChibiOS-RT/os/hal/include/usb.h"
 1633              		.file 11 "/home/dpeter/devel/sources/ChibiOS-RT/os/hal/platforms/STM32/OTGv1/usb_lld.h"
 1634              		.file 12 "/home/dpeter/devel/sources/ChibiOS-RT/os/hal/platforms/STM32/OTGv1/stm32_otg.h"
 1635              		.file 13 "/home/dpeter/devel/sources/ChibiOS-RT/os/ports/common/ARMCMx/CMSIS/include/core_cm4.h"