ARM GAS  /tmp/ccl4JtoD.s 			page 1


   1              		.syntax unified
   2              		.cpu cortex-m4
   3              		.fpu softvfp
   4              		.eabi_attribute 20, 1
   5              		.eabi_attribute 21, 1
   6              		.eabi_attribute 23, 3
   7              		.eabi_attribute 24, 1
   8              		.eabi_attribute 25, 1
   9              		.eabi_attribute 26, 1
  10              		.eabi_attribute 30, 2
  11              		.eabi_attribute 34, 1
  12              		.eabi_attribute 18, 4
  13              		.thumb
  14              		.file	"usb_lld.c"
  15              		.text
  16              	.Ltext0:
  17              		.cfi_sections	.debug_frame
  18              		.section	.text.otg_disable_ep,"ax",%progbits
  19              		.align	2
  20              		.p2align 4,,15
  21              		.thumb
  22              		.thumb_func
  23              		.type	otg_disable_ep, %function
  24              	otg_disable_ep:
  25              	.LFB120:
  26              		.file 1 "/home/dpeter/devel/sources/ChibiOS-RT/os/hal/platforms/STM32/OTGv1/usb_lld.c"
  27              		.loc 1 145 0
  28              		.cfi_startproc
  29              		@ args = 0, pretend = 0, frame = 0
  30              		@ frame_needed = 0, uses_anonymous_args = 0
  31              		@ link register save eliminated.
  32              	.LVL0:
  33 0000 416D     		ldr	r1, [r0, #84]
  34              		.loc 1 146 0
  35 0002 036D     		ldr	r3, [r0, #80]
  36              	.LVL1:
  37              		.loc 1 149 0
  38 0004 0022     		movs	r2, #0
  39              		.loc 1 145 0
  40 0006 2DE9F001 		push	{r4, r5, r6, r7, r8}
  41              	.LCFI0:
  42              		.cfi_def_cfa_offset 20
  43              		.cfi_offset 4, -20
  44              		.cfi_offset 5, -16
  45              		.cfi_offset 6, -12
  46              		.cfi_offset 7, -8
  47              		.cfi_offset 8, -4
  48              		.loc 1 160 0
  49 000a 1046     		mov	r0, r2
  50              	.LVL2:
  51 000c 8F68     		ldr	r7, [r1, #8]
  52              		.loc 1 154 0
  53 000e 4FF0804C 		mov	ip, #1073741824
  54              		.loc 1 162 0
  55 0012 4FF0FF36 		mov	r6, #-1
  56 0016 17E0     		b	.L8
  57              	.LVL3:
ARM GAS  /tmp/ccl4JtoD.s 			page 2


  58              	.L2:
  59              		.loc 1 160 0
  60 0018 5850     		str	r0, [r3, r1]
  61 001a 5501     		lsls	r5, r2, #5
  62              	.L4:
  63              		.loc 1 161 0
  64 001c 5C19     		adds	r4, r3, r5
  65              		.loc 1 168 0
  66 001e 02F15801 		add	r1, r2, #88
  67 0022 4901     		lsls	r1, r1, #5
  68              		.loc 1 161 0
  69 0024 C4F81009 		str	r0, [r4, #2320]
  70              		.loc 1 162 0
  71 0028 C4F80869 		str	r6, [r4, #2312]
  72              		.loc 1 168 0
  73 002c 53F80180 		ldr	r8, [r3, r1]
  74 0030 B8F1000F 		cmp	r8, #0
  75 0034 17DB     		blt	.L19
  76              		.loc 1 175 0
  77 0036 5850     		str	r0, [r3, r1]
  78              	.L7:
  79              		.loc 1 176 0
  80 0038 5D19     		adds	r5, r3, r5
  81              		.loc 1 149 0
  82 003a 0132     		adds	r2, r2, #1
  83              	.LVL4:
  84 003c BA42     		cmp	r2, r7
  85              		.loc 1 176 0
  86 003e C5F8100B 		str	r0, [r5, #2832]
  87              		.loc 1 177 0
  88 0042 C5F8086B 		str	r6, [r5, #2824]
  89              		.loc 1 149 0
  90 0046 15D8     		bhi	.L20
  91              	.LVL5:
  92              	.L8:
  93              		.loc 1 153 0
  94 0048 02F14801 		add	r1, r2, #72
  95 004c 4901     		lsls	r1, r1, #5
  96 004e 5C58     		ldr	r4, [r3, r1]
  97 0050 002C     		cmp	r4, #0
  98 0052 E1DA     		bge	.L2
  99 0054 5501     		lsls	r5, r2, #5
 100              		.loc 1 154 0
 101 0056 43F801C0 		str	ip, [r3, r1]
 102              		.loc 1 156 0
 103 005a 5C19     		adds	r4, r3, r5
 104              	.L3:
 105              		.loc 1 156 0 is_stmt 0 discriminator 1
 106 005c D4F80819 		ldr	r1, [r4, #2312]
 107 0060 8907     		lsls	r1, r1, #30
 108 0062 FBD5     		bpl	.L3
 109 0064 DAE7     		b	.L4
 110              	.L19:
 111              		.loc 1 169 0 is_stmt 1
 112 0066 43F801C0 		str	ip, [r3, r1]
 113              	.L6:
 114              		.loc 1 171 0 discriminator 1
ARM GAS  /tmp/ccl4JtoD.s 			page 3


 115 006a D4F8081B 		ldr	r1, [r4, #2824]
 116 006e C906     		lsls	r1, r1, #27
 117 0070 FBD5     		bpl	.L6
 118 0072 E1E7     		b	.L7
 119              	.LVL6:
 120              	.L20:
 121              		.loc 1 179 0
 122 0074 4FF00112 		mov	r2, #65537
 123              	.LVL7:
 124 0078 C3F81C28 		str	r2, [r3, #2076]
 125              		.loc 1 180 0
 126 007c BDE8F001 		pop	{r4, r5, r6, r7, r8}
 127 0080 7047     		bx	lr
 128              		.cfi_endproc
 129              	.LFE120:
 130              		.size	otg_disable_ep, .-otg_disable_ep
 131 0082 00BFAFF3 		.section	.text.otg_epout_handler,"ax",%progbits
 131      0080AFF3 
 131      0080AFF3 
 131      0080
 132              		.align	2
 133              		.p2align 4,,15
 134              		.thumb
 135              		.thumb_func
 136              		.type	otg_epout_handler, %function
 137              	otg_epout_handler:
 138              	.LFB134:
 139              		.loc 1 580 0
 140              		.cfi_startproc
 141              		@ args = 0, pretend = 0, frame = 0
 142              		@ frame_needed = 0, uses_anonymous_args = 0
 143              	.LVL8:
 144 0000 F8B5     		push	{r3, r4, r5, r6, r7, lr}
 145              	.LCFI1:
 146              		.cfi_def_cfa_offset 24
 147              		.cfi_offset 3, -24
 148              		.cfi_offset 4, -20
 149              		.cfi_offset 5, -16
 150              		.cfi_offset 6, -12
 151              		.cfi_offset 7, -8
 152              		.cfi_offset 14, -4
 153              		.loc 1 581 0
 154 0002 046D     		ldr	r4, [r0, #80]
 155              	.LVL9:
 156              		.loc 1 582 0
 157 0004 04EB4113 		add	r3, r4, r1, lsl #5
 158              		.loc 1 585 0
 159 0008 4FF0FF32 		mov	r2, #-1
 160              		.loc 1 582 0
 161 000c D3F8086B 		ldr	r6, [r3, #2824]
 162              	.LVL10:
 163              		.loc 1 585 0
 164 0010 C3F8082B 		str	r2, [r3, #2824]
 165              		.loc 1 587 0
 166 0014 3307     		lsls	r3, r6, #28
 167              		.loc 1 580 0
 168 0016 0546     		mov	r5, r0
ARM GAS  /tmp/ccl4JtoD.s 			page 4


 169 0018 0F46     		mov	r7, r1
 170              		.loc 1 587 0
 171 001a 03D5     		bpl	.L22
 172              		.loc 1 587 0 is_stmt 0 discriminator 1
 173 001c D4F81438 		ldr	r3, [r4, #2068]
 174 0020 1A07     		lsls	r2, r3, #28
 175 0022 15D4     		bmi	.L36
 176              	.LVL11:
 177              	.L22:
 178              		.loc 1 593 0 is_stmt 1
 179 0024 F307     		lsls	r3, r6, #31
 180 0026 03D5     		bpl	.L21
 181              		.loc 1 593 0 is_stmt 0 discriminator 1
 182 0028 D4F81438 		ldr	r3, [r4, #2068]
 183 002c D807     		lsls	r0, r3, #31
 184 002e 00D4     		bmi	.L37
 185              	.L21:
 186 0030 F8BD     		pop	{r3, r4, r5, r6, r7, pc}
 187              	.L37:
 188              		.loc 1 595 0 is_stmt 1
 189 0032 05EB8703 		add	r3, r5, r7, lsl #2
 190 0036 6989     		ldrh	r1, [r5, #10]
 191 0038 DB68     		ldr	r3, [r3, #12]
 192 003a 0122     		movs	r2, #1
 193 003c 02FA07F2 		lsl	r2, r2, r7
 194 0040 21EA0202 		bic	r2, r1, r2
 195 0044 6A81     		strh	r2, [r5, #10]	@ movhi
 196 0046 DB68     		ldr	r3, [r3, #12]
 197 0048 2846     		mov	r0, r5
 198 004a 3946     		mov	r1, r7
 199 004c 9847     		blx	r3
 200              	.LVL12:
 201 004e F8BD     		pop	{r3, r4, r5, r6, r7, pc}
 202              	.LVL13:
 203              	.L36:
 204              		.loc 1 590 0
 205 0050 00EB8103 		add	r3, r0, r1, lsl #2
 206 0054 DB68     		ldr	r3, [r3, #12]
 207 0056 5B68     		ldr	r3, [r3, #4]
 208 0058 9847     		blx	r3
 209              	.LVL14:
 210 005a E3E7     		b	.L22
 211              		.cfi_endproc
 212              	.LFE134:
 213              		.size	otg_epout_handler, .-otg_epout_handler
 214 005c AFF30080 		.section	.text.otg_txfifo_flush,"ax",%progbits
 215              		.align	2
 216              		.p2align 4,,15
 217              		.thumb
 218              		.thumb_func
 219              		.type	otg_txfifo_flush, %function
 220              	otg_txfifo_flush:
 221              	.LFB122:
 222              		.loc 1 192 0
 223              		.cfi_startproc
 224              		@ args = 0, pretend = 0, frame = 0
 225              		@ frame_needed = 0, uses_anonymous_args = 0
ARM GAS  /tmp/ccl4JtoD.s 			page 5


 226              		@ link register save eliminated.
 227              	.LVL15:
 228              		.loc 1 193 0
 229 0000 026D     		ldr	r2, [r0, #80]
 230              	.LVL16:
 231              		.loc 1 195 0
 232 0002 8901     		lsls	r1, r1, #6
 233              	.LVL17:
 234 0004 41F02003 		orr	r3, r1, #32
 235 0008 1361     		str	r3, [r2, #16]
 236              	.L39:
 237              		.loc 1 196 0 discriminator 1
 238 000a 1369     		ldr	r3, [r2, #16]
 239 000c 9906     		lsls	r1, r3, #26
 240 000e FCD4     		bmi	.L39
 241              		.loc 1 199 0
 242 0010 0C20     		movs	r0, #12
 243              	.LVL18:
 244              		.loc 1 200 0
 245              		.loc 1 199 0
 246 0012 FFF7FEBF 		b	halPolledDelay
 247              	.LVL19:
 248              		.cfi_endproc
 249              	.LFE122:
 250              		.size	otg_txfifo_flush, .-otg_txfifo_flush
 251 0016 00BFAFF3 		.section	.text.usb_lld_pump,"ax",%progbits
 251      0080AFF3 
 251      0080
 252              		.align	2
 253              		.p2align 4,,15
 254              		.thumb
 255              		.thumb_func
 256              		.type	usb_lld_pump, %function
 257              	usb_lld_pump:
 258              	.LFB136:
 259              		.loc 1 679 0
 260              		.cfi_startproc
 261              		@ args = 0, pretend = 0, frame = 16
 262              		@ frame_needed = 0, uses_anonymous_args = 0
 263              	.LVL20:
 264 0000 2DE9F04F 		push	{r4, r5, r6, r7, r8, r9, sl, fp, lr}
 265              	.LCFI2:
 266              		.cfi_def_cfa_offset 36
 267              		.cfi_offset 4, -36
 268              		.cfi_offset 5, -32
 269              		.cfi_offset 6, -28
 270              		.cfi_offset 7, -24
 271              		.cfi_offset 8, -20
 272              		.cfi_offset 9, -16
 273              		.cfi_offset 10, -12
 274              		.cfi_offset 11, -8
 275              		.cfi_offset 14, -4
 276              		.loc 1 683 0
 277 0004 9E49     		ldr	r1, .L159
 278              		.loc 1 681 0
 279 0006 046D     		ldr	r4, [r0, #80]
 280              		.loc 1 683 0
ARM GAS  /tmp/ccl4JtoD.s 			page 6


 281 0008 8A69     		ldr	r2, [r1, #24]
 282 000a 9E49     		ldr	r1, .L159+4
 283              		.loc 1 679 0
 284 000c 85B0     		sub	sp, sp, #20
 285              	.LCFI3:
 286              		.cfi_def_cfa_offset 56
 287              		.loc 1 679 0
 288 000e 8046     		mov	r8, r0
 289              	.LVL21:
 290              	.LBB85:
 291              		.loc 1 684 0
 292 0010 2023     		movs	r3, #32
 293              	.LVL22:
 294              	.LBE85:
 295              		.loc 1 681 0
 296 0012 0094     		str	r4, [sp, #0]
 297              	.LVL23:
 298              		.loc 1 683 0
 299 0014 9161     		str	r1, [r2, #24]
 300              	.LBB86:
 301              		.loc 1 684 0
 302              	@ 684 "/home/dpeter/devel/sources/ChibiOS-RT/os/hal/platforms/STM32/OTGv1/usb_lld.c" 1
 303 0016 83F31188 		msr     BASEPRI, r3
 304              	@ 0 "" 2
 305              	.LVL24:
 306              		.thumb
 307              	.LBE86:
 308              	.LBB87:
 309              	.LBB88:
 310              		.loc 1 696 0
 311 001a 4FF00009 		mov	r9, #0
 312              	.LVL25:
 313              	.L99:
 314              	.LBE88:
 315              		.loc 1 690 0
 316 001e 98F80030 		ldrb	r3, [r8, #0]	@ zero_extendqisi2
 317              	.LVL26:
 318 0022 012B     		cmp	r3, #1
 319 0024 06D0     		beq	.L42
 320              		.loc 1 690 0 is_stmt 0 discriminator 1
 321 0026 D8F85C30 		ldr	r3, [r8, #92]
 322 002a 7BB9     		cbnz	r3, .L43
 323              		.loc 1 691 0 is_stmt 1
 324 002c 0099     		ldr	r1, [sp, #0]
 325 002e 4B69     		ldr	r3, [r1, #20]
 326 0030 D806     		lsls	r0, r3, #27
 327 0032 0BD4     		bmi	.L43
 328              	.L42:
 329              		.loc 1 692 0
 330 0034 009C     		ldr	r4, [sp, #0]
 331              		.loc 1 693 0
 332 0036 9249     		ldr	r1, .L159
 333              		.loc 1 692 0
 334 0038 A269     		ldr	r2, [r4, #24]
 335              		.loc 1 693 0
 336 003a 8B69     		ldr	r3, [r1, #24]
 337              		.loc 1 692 0
ARM GAS  /tmp/ccl4JtoD.s 			page 7


 338 003c 42F01002 		orr	r2, r2, #16
 339 0040 A261     		str	r2, [r4, #24]
 340              		.loc 1 694 0
 341 0042 0220     		movs	r0, #2
 342              		.loc 1 693 0
 343 0044 C8F86430 		str	r3, [r8, #100]
 344              		.loc 1 694 0
 345 0048 FFF7FEFF 		bl	chSchGoSleepS
 346              	.LVL27:
 347              	.L43:
 348              	.LBB89:
 349              		.loc 1 696 0
 350 004c 0023     		movs	r3, #0
 351              	.LVL28:
 352              	@ 696 "/home/dpeter/devel/sources/ChibiOS-RT/os/hal/platforms/STM32/OTGv1/usb_lld.c" 1
 353 004e 83F31188 		msr     BASEPRI, r3
 354              	@ 0 "" 2
 355              	.LVL29:
 356              		.loc 1 699 0
 357              		.thumb
 358 0052 9A46     		mov	sl, r3
 359              	.LVL30:
 360              	.L143:
 361              	.LBE89:
 362              		.loc 1 702 0 discriminator 1
 363 0054 009A     		ldr	r2, [sp, #0]
 364 0056 5369     		ldr	r3, [r2, #20]
 365 0058 13F01002 		ands	r2, r3, #16
 366 005c 24D0     		beq	.L155
 367              	.L67:
 368              	.LVL31:
 369              	.LBB90:
 370              	.LBB91:
 371              		.loc 1 452 0
 372 005e D8F85010 		ldr	r1, [r8, #80]
 373 0062 0D6A     		ldr	r5, [r1, #32]
 374              	.LVL32:
 375              		.loc 1 453 0
 376 0064 05F4F013 		and	r3, r5, #1966080
 377 0068 B3F5802F 		cmp	r3, #262144
 378 006c 31D0     		beq	.L46
 379 006e B3F5402F 		cmp	r3, #786432
 380 0072 EFD1     		bne	.L143
 381              	.LVL33:
 382              		.loc 1 458 0
 383 0074 05F00F02 		and	r2, r5, #15
 384              	.LVL34:
 385              		.loc 1 459 0
 386 0078 08EB8202 		add	r2, r8, r2, lsl #2
 387              	.LVL35:
 388              		.loc 1 457 0
 389 007c C5F30A13 		ubfx	r3, r5, #4, #11
 390              		.loc 1 459 0
 391 0080 D268     		ldr	r2, [r2, #12]
 392              	.LBB92:
 393              	.LBB93:
 394              		.loc 1 370 0
ARM GAS  /tmp/ccl4JtoD.s 			page 8


 395 0082 0333     		adds	r3, r3, #3
 396              		.loc 1 372 0
 397 0084 9B08     		lsrs	r3, r3, #2
 398              	.LBE93:
 399              	.LBE92:
 400              		.loc 1 459 0
 401 0086 146A     		ldr	r4, [r2, #32]
 402              	.LVL36:
 403              	.LBB96:
 404              	.LBB95:
 405              		.loc 1 372 0
 406 0088 E4D0     		beq	.L143
 407 008a 0222     		movs	r2, #2
 408 008c 01F58051 		add	r1, r1, #4096
 409              	.LVL37:
 410              	.L48:
 411              	.LBB94:
 412              		.loc 1 373 0
 413 0090 0868     		ldr	r0, [r1, #0]
 414              	.LVL38:
 415              		.loc 1 374 0
 416 0092 12B1     		cbz	r2, .L50
 417              		.loc 1 377 0
 418 0094 44F8040B 		str	r0, [r4], #4
 419              	.LVL39:
 420              		.loc 1 379 0
 421 0098 013A     		subs	r2, r2, #1
 422              	.LVL40:
 423              	.L50:
 424              	.LBE94:
 425              		.loc 1 372 0
 426 009a 013B     		subs	r3, r3, #1
 427              	.LVL41:
 428 009c F8D1     		bne	.L48
 429              	.LBE95:
 430              	.LBE96:
 431              	.LBE91:
 432              	.LBE90:
 433              		.loc 1 702 0
 434 009e 009A     		ldr	r2, [sp, #0]
 435              	.LVL42:
 436 00a0 5369     		ldr	r3, [r2, #20]
 437              	.LVL43:
 438 00a2 13F01002 		ands	r2, r3, #16
 439 00a6 DAD1     		bne	.L67
 440              	.LVL44:
 441              	.L155:
 442              		.loc 1 706 0
 443 00a8 0124     		movs	r4, #1
 444              		.loc 1 707 0
 445 00aa D8F85C30 		ldr	r3, [r8, #92]
 446              		.loc 1 706 0
 447 00ae 04FA0AF4 		lsl	r4, r4, sl
 448              		.loc 1 707 0
 449 00b2 1C42     		tst	r4, r3
 450              		.loc 1 706 0
 451 00b4 0294     		str	r4, [sp, #8]
ARM GAS  /tmp/ccl4JtoD.s 			page 9


 452              	.LVL45:
 453              		.loc 1 707 0
 454 00b6 70D1     		bne	.L146
 455 00b8 0AF1010A 		add	sl, sl, #1
 456              	.LVL46:
 457              	.L68:
 458              		.loc 1 699 0
 459 00bc D8F85430 		ldr	r3, [r8, #84]
 460              	.LVL47:
 461 00c0 9B68     		ldr	r3, [r3, #8]
 462 00c2 5FFA8AFA 		uxtb	sl, sl
 463              	.LVL48:
 464 00c6 9A45     		cmp	sl, r3
 465 00c8 C4D9     		bls	.L143
 466              	.LBB111:
 467              		.loc 1 731 0
 468 00ca 2023     		movs	r3, #32
 469              	@ 731 "/home/dpeter/devel/sources/ChibiOS-RT/os/hal/platforms/STM32/OTGv1/usb_lld.c" 1
 470 00cc 83F31188 		msr     BASEPRI, r3
 471              	@ 0 "" 2
 472              	.LVL49:
 473              		.thumb
 474              	.LBE111:
 475              	.LBE87:
 476              		.loc 1 732 0
 477 00d0 A5E7     		b	.L99
 478              	.LVL50:
 479              	.L46:
 480              	.LBB152:
 481              	.LBB112:
 482              	.LBB110:
 483              		.loc 1 464 0
 484 00d2 05F00F06 		and	r6, r5, #15
 485              		.loc 1 465 0
 486 00d6 0236     		adds	r6, r6, #2
 487 00d8 08EB8603 		add	r3, r8, r6, lsl #2
 488              		.loc 1 463 0
 489 00dc C5F30A15 		ubfx	r5, r5, #4, #11
 490              	.LVL51:
 491              		.loc 1 465 0
 492 00e0 5B68     		ldr	r3, [r3, #4]
 493 00e2 9C69     		ldr	r4, [r3, #24]
 494 00e4 2378     		ldrb	r3, [r4, #0]	@ zero_extendqisi2
 495 00e6 DBB9     		cbnz	r3, .L156
 496              		.loc 1 472 0
 497 00e8 221D     		adds	r2, r4, #4
 498 00ea 8CCA     		ldmia	r2, {r2, r3, r7}
 499              	.LVL52:
 500 00ec 0332     		adds	r2, r2, #3
 501              	.LVL53:
 502              	.LBB97:
 503              	.LBB98:
 504              		.loc 1 371 0
 505 00ee D21A     		subs	r2, r2, r3
 506              		.loc 1 370 0
 507 00f0 EB1C     		adds	r3, r5, #3
 508              	.LVL54:
ARM GAS  /tmp/ccl4JtoD.s 			page 10


 509              		.loc 1 371 0
 510 00f2 9208     		lsrs	r2, r2, #2
 511              	.LVL55:
 512              		.loc 1 372 0
 513 00f4 9B08     		lsrs	r3, r3, #2
 514 00f6 09D0     		beq	.L66
 515 00f8 BE46     		mov	lr, r7
 516 00fa 01F58051 		add	r1, r1, #4096
 517              	.LVL56:
 518              	.L65:
 519              	.LBB99:
 520              		.loc 1 373 0
 521 00fe 0868     		ldr	r0, [r1, #0]
 522              	.LVL57:
 523              		.loc 1 374 0
 524 0100 12B1     		cbz	r2, .L64
 525              		.loc 1 377 0
 526 0102 4EF8040B 		str	r0, [lr], #4
 527              	.LVL58:
 528              		.loc 1 379 0
 529 0106 013A     		subs	r2, r2, #1
 530              	.LVL59:
 531              	.L64:
 532              	.LBE99:
 533              		.loc 1 372 0
 534 0108 013B     		subs	r3, r3, #1
 535              	.LVL60:
 536 010a F8D1     		bne	.L65
 537              	.LVL61:
 538              	.L66:
 539              	.LBE98:
 540              	.LBE97:
 541              		.loc 1 477 0
 542 010c 7F19     		adds	r7, r7, r5
 543 010e E760     		str	r7, [r4, #12]
 544              	.LVL62:
 545              	.L60:
 546              		.loc 1 479 0
 547 0110 08EB8606 		add	r6, r8, r6, lsl #2
 548              	.LVL63:
 549 0114 7368     		ldr	r3, [r6, #4]
 550              	.LVL64:
 551 0116 9B69     		ldr	r3, [r3, #24]
 552 0118 9A68     		ldr	r2, [r3, #8]
 553 011a 5219     		adds	r2, r2, r5
 554 011c 9A60     		str	r2, [r3, #8]
 555 011e 99E7     		b	.L143
 556              	.LVL65:
 557              	.L156:
 558              		.loc 1 467 0
 559 0120 01F58057 		add	r7, r1, #4096
 560 0124 E468     		ldr	r4, [r4, #12]
 561              	.LVL66:
 562              	.LBB100:
 563              	.LBB101:
 564              		.loc 1 400 0
 565 0126 FDB1     		cbz	r5, .L53
ARM GAS  /tmp/ccl4JtoD.s 			page 11


 566 0128 2846     		mov	r0, r5
 567              	.LVL67:
 568              	.L145:
 569              	.LBB102:
 570              		.loc 1 404 0
 571 012a 0328     		cmp	r0, #3
 572              	.LBB103:
 573              		.loc 1 410 0
 574 012c 6369     		ldr	r3, [r4, #20]
 575              	.LBE103:
 576              		.loc 1 404 0
 577 012e 07D9     		bls	.L55
 578              	.LVL68:
 579              	.L144:
 580              	.LBB104:
 581              		.loc 1 410 0
 582 0130 2269     		ldr	r2, [r4, #16]
 583 0132 9342     		cmp	r3, r2
 584 0134 04D3     		bcc	.L55
 585              		.loc 1 411 0
 586 0136 E368     		ldr	r3, [r4, #12]
 587              	.LBE104:
 588              		.loc 1 404 0
 589 0138 0328     		cmp	r0, #3
 590              	.LBB105:
 591              		.loc 1 411 0
 592 013a 6361     		str	r3, [r4, #20]
 593              	.LVL69:
 594              		.loc 1 410 0
 595 013c 6369     		ldr	r3, [r4, #20]
 596              	.LBE105:
 597              		.loc 1 404 0
 598 013e F7D8     		bhi	.L144
 599              	.LVL70:
 600              	.L55:
 601              		.loc 1 422 0
 602 0140 D7F800E0 		ldr	lr, [r7, #0]
 603              	.LVL71:
 604 0144 0022     		movs	r2, #0
 605              	.LVL72:
 606              	.L58:
 607              		.loc 1 425 0
 608 0146 2EFA02F1 		lsr	r1, lr, r2
 609 014a 03F8011B 		strb	r1, [r3], #1
 610              		.loc 1 426 0
 611 014e 2169     		ldr	r1, [r4, #16]
 612              		.loc 1 425 0
 613 0150 6361     		str	r3, [r4, #20]
 614 0152 0832     		adds	r2, r2, #8
 615              		.loc 1 426 0
 616 0154 8B42     		cmp	r3, r1
 617              		.loc 1 427 0
 618 0156 24BF     		itt	cs
 619 0158 E368     		ldrcs	r3, [r4, #12]
 620 015a 6361     		strcs	r3, [r4, #20]
 621              		.loc 1 424 0
 622 015c 0138     		subs	r0, r0, #1
ARM GAS  /tmp/ccl4JtoD.s 			page 12


 623              	.LVL73:
 624 015e 03D0     		beq	.L53
 625 0160 202A     		cmp	r2, #32
 626 0162 E2D0     		beq	.L145
 627 0164 6369     		ldr	r3, [r4, #20]
 628 0166 EEE7     		b	.L58
 629              	.LVL74:
 630              	.L53:
 631              	.LBE102:
 632              	.LBB106:
 633              		.loc 1 434 0
 634 0168 2023     		movs	r3, #32
 635              	.LVL75:
 636              	@ 434 "/home/dpeter/devel/sources/ChibiOS-RT/os/hal/platforms/STM32/OTGv1/usb_lld.c" 1
 637 016a 83F31188 		msr     BASEPRI, r3
 638              	@ 0 "" 2
 639              	.LVL76:
 640              		.thumb
 641              	.LBE106:
 642              		.loc 1 435 0
 643 016e A368     		ldr	r3, [r4, #8]
 644              	.LVL77:
 645              		.loc 1 436 0
 646 0170 2068     		ldr	r0, [r4, #0]
 647              		.loc 1 435 0
 648 0172 5B19     		adds	r3, r3, r5
 649              		.loc 1 436 0
 650 0174 A042     		cmp	r0, r4
 651              		.loc 1 435 0
 652 0176 A360     		str	r3, [r4, #8]
 653              		.loc 1 436 0
 654 0178 09D0     		beq	.L62
 655              	.L124:
 656              	.LVL78:
 657              	.LBB107:
 658              	.LBB108:
 659              		.file 2 "/home/dpeter/devel/sources/ChibiOS-RT/os/kernel/include/chinline.h"
 660              		.loc 2 55 0
 661 017a 0368     		ldr	r3, [r0, #0]
 662 017c 2360     		str	r3, [r4, #0]
 663 017e 5C60     		str	r4, [r3, #4]
 664              	.LBE108:
 665              	.LBE107:
 666              		.loc 1 437 0
 667 0180 FFF7FEFF 		bl	chSchReadyI
 668              	.LVL79:
 669 0184 C0F82490 		str	r9, [r0, #36]
 670              		.loc 1 436 0
 671 0188 2068     		ldr	r0, [r4, #0]
 672 018a A042     		cmp	r0, r4
 673 018c F5D1     		bne	.L124
 674              	.LVL80:
 675              	.L62:
 676              		.loc 1 438 0
 677 018e FFF7FEFF 		bl	chSchRescheduleS
 678              	.LVL81:
 679              	.LBB109:
ARM GAS  /tmp/ccl4JtoD.s 			page 13


 680              		.loc 1 439 0
 681 0192 0023     		movs	r3, #0
 682              	@ 439 "/home/dpeter/devel/sources/ChibiOS-RT/os/hal/platforms/STM32/OTGv1/usb_lld.c" 1
 683 0194 83F31188 		msr     BASEPRI, r3
 684              	@ 0 "" 2
 685              	.LVL82:
 686              		.thumb
 687 0198 BAE7     		b	.L60
 688              	.LVL83:
 689              	.L146:
 690              	.LBE109:
 691              	.LBE101:
 692              	.LBE100:
 693              	.LBE110:
 694              	.LBE112:
 695              	.LBB113:
 696              	.LBB114:
 697              		.loc 1 710 0
 698 019a 2023     		movs	r3, #32
 699              	.LVL84:
 700              	@ 710 "/home/dpeter/devel/sources/ChibiOS-RT/os/hal/platforms/STM32/OTGv1/usb_lld.c" 1
 701 019c 83F31188 		msr     BASEPRI, r3
 702              	@ 0 "" 2
 703              	.LVL85:
 704              		.thumb
 705              	.LBE114:
 706              		.loc 1 718 0
 707 01a0 0099     		ldr	r1, [sp, #0]
 708              		.loc 1 719 0
 709 01a2 D8F85C30 		ldr	r3, [r8, #92]
 710              	.LVL86:
 711 01a6 029C     		ldr	r4, [sp, #8]
 712              	.LVL87:
 713              		.loc 1 718 0
 714 01a8 8868     		ldr	r0, [r1, #8]
 715              		.loc 1 719 0
 716 01aa 23EA0401 		bic	r1, r3, r4
 717              		.loc 1 718 0
 718 01ae 009C     		ldr	r4, [sp, #0]
 719 01b0 20F00100 		bic	r0, r0, #1
 720 01b4 A060     		str	r0, [r4, #8]
 721              	.LBB115:
 722              		.loc 1 720 0
 723 01b6 1346     		mov	r3, r2
 724              	.LVL88:
 725              	.LBE115:
 726              		.loc 1 719 0
 727 01b8 C8F85C10 		str	r1, [r8, #92]
 728              	.LBB116:
 729              		.loc 1 720 0
 730              	@ 720 "/home/dpeter/devel/sources/ChibiOS-RT/os/hal/platforms/STM32/OTGv1/usb_lld.c" 1
 731 01bc 83F31188 		msr     BASEPRI, r3
 732              	@ 0 "" 2
 733              	.LVL89:
 734              		.thumb
 735              	.LBE116:
 736              	.LBB117:
ARM GAS  /tmp/ccl4JtoD.s 			page 14


 737              	.LBB118:
 738              		.loc 1 503 0
 739 01c0 0AF10207 		add	r7, sl, #2
 740 01c4 08EB8707 		add	r7, r8, r7, lsl #2
 741 01c8 7C68     		ldr	r4, [r7, #4]
 742 01ca 6069     		ldr	r0, [r4, #20]
 743 01cc 8368     		ldr	r3, [r0, #8]
 744              	.LVL90:
 745 01ce 4168     		ldr	r1, [r0, #4]
 746 01d0 9942     		cmp	r1, r3
 747 01d2 40F2B680 		bls	.L157
 748              		.loc 1 513 0
 749 01d6 D8F85020 		ldr	r2, [r8, #80]
 750              		.loc 1 508 0
 751 01da 258A     		ldrh	r5, [r4, #16]
 752              		.loc 1 513 0
 753 01dc 4FEA4A16 		lsl	r6, sl, #5
 754 01e0 9419     		adds	r4, r2, r6
 755              		.loc 1 507 0
 756 01e2 C91A     		subs	r1, r1, r3
 757              	.LVL91:
 758              		.loc 1 513 0
 759 01e4 D4F81839 		ldr	r3, [r4, #2328]
 760 01e8 8D42     		cmp	r5, r1
 761 01ea 28BF     		it	cs
 762 01ec 0D46     		movcs	r5, r1
 763              	.LVL92:
 764 01ee 9BB2     		uxth	r3, r3
 765 01f0 B5EB830F 		cmp	r5, r3, lsl #2
 766 01f4 0AF1010A 		add	sl, sl, #1
 767              	.LVL93:
 768 01f8 2ED8     		bhi	.L72
 769              		.loc 1 528 0
 770 01fa 4FEA0A31 		lsl	r1, sl, #12
 771 01fe 0191     		str	r1, [sp, #4]
 772              	.L73:
 773              		.loc 1 520 0
 774 0200 0378     		ldrb	r3, [r0, #0]	@ zero_extendqisi2
 775 0202 002B     		cmp	r3, #0
 776 0204 40D1     		bne	.L158
 777              	.LBB119:
 778              	.LBB120:
 779              		.loc 1 269 0
 780 0206 EB1C     		adds	r3, r5, #3
 781              	.LBE120:
 782              	.LBE119:
 783              		.loc 1 528 0
 784 0208 0199     		ldr	r1, [sp, #4]
 785 020a C468     		ldr	r4, [r0, #12]
 786              	.LBB130:
 787              	.LBB127:
 788              	.LBB121:
 789              	.LBB122:
 790              		.loc 1 246 0
 791 020c 9B08     		lsrs	r3, r3, #2
 792              	.LBE122:
 793              	.LBE121:
ARM GAS  /tmp/ccl4JtoD.s 			page 15


 794              	.LBE127:
 795              	.LBE130:
 796              		.loc 1 528 0
 797 020e 02EB010E 		add	lr, r2, r1
 798              	.LVL94:
 799              	.LBB131:
 800              	.LBB128:
 801              	.LBB125:
 802              	.LBB123:
 803              		.loc 1 246 0
 804 0212 07D0     		beq	.L93
 805              	.LBE123:
 806              	.LBE125:
 807              	.LBE128:
 808              	.LBE131:
 809              		.loc 1 679 0
 810 0214 221D     		adds	r2, r4, #4
 811              	.LVL95:
 812              	.L92:
 813              	.LBB132:
 814              	.LBB129:
 815              	.LBB126:
 816              	.LBB124:
 817              		.loc 1 249 0
 818 0216 52F8041C 		ldr	r1, [r2, #-4]
 819 021a 0432     		adds	r2, r2, #4
 820              		.loc 1 246 0
 821 021c 013B     		subs	r3, r3, #1
 822              		.loc 1 249 0
 823 021e CEF80010 		str	r1, [lr, #0]
 824              		.loc 1 246 0
 825 0222 F8D1     		bne	.L92
 826              	.L93:
 827              	.LBE124:
 828              	.LBE126:
 829              	.LBE129:
 830              	.LBE132:
 831              		.loc 1 531 0
 832 0224 6419     		adds	r4, r4, r5
 833              	.LVL96:
 834 0226 C460     		str	r4, [r0, #12]
 835              	.LVL97:
 836              	.L89:
 837              		.loc 1 533 0
 838 0228 7C68     		ldr	r4, [r7, #4]
 839 022a 6069     		ldr	r0, [r4, #20]
 840 022c 8368     		ldr	r3, [r0, #8]
 841              	.LVL98:
 842              		.loc 1 503 0
 843 022e 4168     		ldr	r1, [r0, #4]
 844              		.loc 1 533 0
 845 0230 EB18     		adds	r3, r5, r3
 846              		.loc 1 503 0
 847 0232 9942     		cmp	r1, r3
 848              		.loc 1 533 0
 849 0234 8360     		str	r3, [r0, #8]
 850              		.loc 1 503 0
ARM GAS  /tmp/ccl4JtoD.s 			page 16


 851 0236 40F28680 		bls	.L94
 852              		.loc 1 513 0
 853 023a D8F85020 		ldr	r2, [r8, #80]
 854              		.loc 1 508 0
 855 023e 248A     		ldrh	r4, [r4, #16]
 856              		.loc 1 513 0
 857 0240 02EB060E 		add	lr, r2, r6
 858              		.loc 1 507 0
 859 0244 CD1A     		subs	r5, r1, r3
 860              	.LVL99:
 861              		.loc 1 513 0
 862 0246 DEF81839 		ldr	r3, [lr, #2328]
 863 024a A542     		cmp	r5, r4
 864 024c 28BF     		it	cs
 865 024e 2546     		movcs	r5, r4
 866              	.LVL100:
 867 0250 9BB2     		uxth	r3, r3
 868 0252 B5EB830F 		cmp	r5, r3, lsl #2
 869 0256 D3D9     		bls	.L73
 870              	.L72:
 871              	.LBB133:
 872              	.LBB134:
 873              	.LBB135:
 874              		.loc 1 514 0
 875 0258 0022     		movs	r2, #0
 876              	.LVL101:
 877              	.L70:
 878              	.LBE135:
 879              	.LBE134:
 880              	.LBE133:
 881              	.LBE118:
 882              	.LBE117:
 883              	.LBB149:
 884              		.loc 1 724 0
 885 025a 2023     		movs	r3, #32
 886              	.LVL102:
 887              	@ 724 "/home/dpeter/devel/sources/ChibiOS-RT/os/hal/platforms/STM32/OTGv1/usb_lld.c" 1
 888 025c 83F31188 		msr     BASEPRI, r3
 889              	@ 0 "" 2
 890              	.LVL103:
 891              		.thumb
 892              	.LBE149:
 893              		.loc 1 725 0
 894 0260 009C     		ldr	r4, [sp, #0]
 895 0262 A368     		ldr	r3, [r4, #8]
 896              	.LVL104:
 897 0264 43F00103 		orr	r3, r3, #1
 898 0268 A360     		str	r3, [r4, #8]
 899              		.loc 1 726 0
 900 026a 2AB9     		cbnz	r2, .L96
 901              		.loc 1 727 0
 902 026c D4F83438 		ldr	r3, [r4, #2100]
 903 0270 0299     		ldr	r1, [sp, #8]
 904 0272 0B43     		orrs	r3, r3, r1
 905 0274 C4F83438 		str	r3, [r4, #2100]
 906              	.L96:
 907              	.LBB150:
ARM GAS  /tmp/ccl4JtoD.s 			page 17


 908              		.loc 1 728 0
 909 0278 0023     		movs	r3, #0
 910              	@ 728 "/home/dpeter/devel/sources/ChibiOS-RT/os/hal/platforms/STM32/OTGv1/usb_lld.c" 1
 911 027a 83F31188 		msr     BASEPRI, r3
 912              	@ 0 "" 2
 913              	.LVL105:
 914              		.thumb
 915 027e 1DE7     		b	.L68
 916              	.L160:
 917              		.align	2
 918              	.L159:
 919 0280 00000000 		.word	rlist
 920 0284 00000000 		.word	.LC0
 921              	.LVL106:
 922              	.L158:
 923              	.LBE150:
 924              	.LBB151:
 925              	.LBB148:
 926              		.loc 1 522 0
 927 0288 019C     		ldr	r4, [sp, #4]
 928 028a 02EB040E 		add	lr, r2, r4
 929 028e C468     		ldr	r4, [r0, #12]
 930              	.LVL107:
 931              	.LBB147:
 932              	.LBB146:
 933              		.loc 1 287 0
 934 0290 25B3     		cbz	r5, .L84
 935 0292 D4F810C0 		ldr	ip, [r4, #16]
 936 0296 0395     		str	r5, [sp, #12]
 937 0298 2946     		mov	r1, r5
 938              	.LVL108:
 939              	.L88:
 940              	.LBB139:
 941              		.loc 1 291 0
 942 029a 8A08     		lsrs	r2, r1, #2
 943              	.LVL109:
 944 029c 39D0     		beq	.L78
 945              	.LBB136:
 946              		.loc 1 293 0
 947 029e A569     		ldr	r5, [r4, #24]
 948              	.LVL110:
 949 02a0 BCEB0503 		subs	r3, ip, r5
 950 02a4 48BF     		it	mi
 951 02a6 0333     		addmi	r3, r3, #3
 952 02a8 9B10     		asrs	r3, r3, #2
 953              		.loc 1 295 0
 954 02aa 9A42     		cmp	r2, r3
 955 02ac 38BF     		it	cc
 956 02ae 1346     		movcc	r3, r2
 957              	.LVL111:
 958 02b0 4FEA830B 		lsl	fp, r3, #2
 959 02b4 CBEB0101 		rsb	r1, fp, r1
 960              	.LVL112:
 961              	.LBB137:
 962              	.LBB138:
 963              		.loc 1 246 0
 964 02b8 43B1     		cbz	r3, .L80
ARM GAS  /tmp/ccl4JtoD.s 			page 18


 965              		.loc 1 679 0
 966 02ba 2A1D     		adds	r2, r5, #4
 967              	.LVL113:
 968              	.L81:
 969              		.loc 1 249 0
 970 02bc 52F8040C 		ldr	r0, [r2, #-4]
 971 02c0 0432     		adds	r2, r2, #4
 972              		.loc 1 246 0
 973 02c2 013B     		subs	r3, r3, #1
 974              		.loc 1 249 0
 975 02c4 CEF80000 		str	r0, [lr, #0]
 976              		.loc 1 246 0
 977 02c8 F8D1     		bne	.L81
 978 02ca 5D44     		add	r5, r5, fp
 979              	.LVL114:
 980              	.L80:
 981              	.LBE138:
 982              	.LBE137:
 983              		.loc 1 297 0
 984 02cc AC45     		cmp	ip, r5
 985              		.loc 1 296 0
 986 02ce A561     		str	r5, [r4, #24]
 987              		.loc 1 297 0
 988 02d0 1DD8     		bhi	.L82
 989              		.loc 1 298 0
 990 02d2 E368     		ldr	r3, [r4, #12]
 991 02d4 A361     		str	r3, [r4, #24]
 992              	.LBE136:
 993              	.LBE139:
 994              		.loc 1 287 0
 995 02d6 0029     		cmp	r1, #0
 996 02d8 DFD1     		bne	.L88
 997              	.LVL115:
 998              	.L154:
 999 02da 039D     		ldr	r5, [sp, #12]
 1000              	.LVL116:
 1001              	.L84:
 1002              	.LBB140:
 1003              		.loc 1 322 0
 1004 02dc 2023     		movs	r3, #32
 1005              	.LVL117:
 1006              	@ 322 "/home/dpeter/devel/sources/ChibiOS-RT/os/hal/platforms/STM32/OTGv1/usb_lld.c" 1
 1007 02de 83F31188 		msr     BASEPRI, r3
 1008              	@ 0 "" 2
 1009              	.LVL118:
 1010              		.thumb
 1011              	.LBE140:
 1012              		.loc 1 323 0
 1013 02e2 A368     		ldr	r3, [r4, #8]
 1014              	.LVL119:
 1015              		.loc 1 324 0
 1016 02e4 2068     		ldr	r0, [r4, #0]
 1017              		.loc 1 323 0
 1018 02e6 5B19     		adds	r3, r3, r5
 1019              		.loc 1 324 0
 1020 02e8 A042     		cmp	r0, r4
 1021              		.loc 1 323 0
ARM GAS  /tmp/ccl4JtoD.s 			page 19


 1022 02ea A360     		str	r3, [r4, #8]
 1023              		.loc 1 324 0
 1024 02ec 09D0     		beq	.L77
 1025              	.LVL120:
 1026              	.L125:
 1027              	.LBB141:
 1028              	.LBB142:
 1029              		.loc 2 55 0
 1030 02ee 0368     		ldr	r3, [r0, #0]
 1031 02f0 2360     		str	r3, [r4, #0]
 1032 02f2 5C60     		str	r4, [r3, #4]
 1033              	.LBE142:
 1034              	.LBE141:
 1035              		.loc 1 325 0
 1036 02f4 FFF7FEFF 		bl	chSchReadyI
 1037              	.LVL121:
 1038 02f8 C0F82490 		str	r9, [r0, #36]
 1039              		.loc 1 324 0
 1040 02fc 2068     		ldr	r0, [r4, #0]
 1041 02fe A042     		cmp	r0, r4
 1042 0300 F5D1     		bne	.L125
 1043              	.LVL122:
 1044              	.L77:
 1045              		.loc 1 326 0
 1046 0302 FFF7FEFF 		bl	chSchRescheduleS
 1047              	.LVL123:
 1048              	.LBB143:
 1049              		.loc 1 327 0
 1050 0306 0023     		movs	r3, #0
 1051              	@ 327 "/home/dpeter/devel/sources/ChibiOS-RT/os/hal/platforms/STM32/OTGv1/usb_lld.c" 1
 1052 0308 83F31188 		msr     BASEPRI, r3
 1053              	@ 0 "" 2
 1054              	.LVL124:
 1055              		.thumb
 1056 030c 8CE7     		b	.L89
 1057              	.LVL125:
 1058              	.L82:
 1059              	.LBE143:
 1060              	.LBB144:
 1061              		.loc 1 305 0
 1062 030e 0029     		cmp	r1, #0
 1063 0310 E3D0     		beq	.L154
 1064              	.LVL126:
 1065              	.L78:
 1066              		.loc 1 313 0
 1067 0312 0022     		movs	r2, #0
 1068 0314 1046     		mov	r0, r2
 1069              	.LVL127:
 1070              	.L87:
 1071              		.loc 1 312 0
 1072 0316 A369     		ldr	r3, [r4, #24]
 1073 0318 13F8015B 		ldrb	r5, [r3], #1	@ zero_extendqisi2
 1074 031c 05FA02F5 		lsl	r5, r5, r2
 1075 0320 0832     		adds	r2, r2, #8
 1076              		.loc 1 313 0
 1077 0322 6345     		cmp	r3, ip
 1078              		.loc 1 312 0
ARM GAS  /tmp/ccl4JtoD.s 			page 20


 1079 0324 A361     		str	r3, [r4, #24]
 1080              		.loc 1 314 0
 1081 0326 24BF     		itt	cs
 1082 0328 E368     		ldrcs	r3, [r4, #12]
 1083 032a A361     		strcs	r3, [r4, #24]
 1084              		.loc 1 311 0
 1085 032c 0139     		subs	r1, r1, #1
 1086              		.loc 1 312 0
 1087 032e 40EA0500 		orr	r0, r0, r5
 1088              	.LVL128:
 1089              		.loc 1 311 0
 1090 0332 01D0     		beq	.L86
 1091 0334 202A     		cmp	r2, #32
 1092 0336 EED1     		bne	.L87
 1093              	.L86:
 1094              		.loc 1 318 0
 1095 0338 CEF80000 		str	r0, [lr, #0]
 1096              	.LVL129:
 1097              	.LBE144:
 1098              		.loc 1 287 0
 1099 033c 0029     		cmp	r1, #0
 1100 033e ACD1     		bne	.L88
 1101 0340 CBE7     		b	.L154
 1102              	.LVL130:
 1103              	.L157:
 1104 0342 0AF1010A 		add	sl, sl, #1
 1105              	.LVL131:
 1106              	.L94:
 1107              	.LBB145:
 1108              		.loc 1 504 0
 1109 0346 0122     		movs	r2, #1
 1110 0348 87E7     		b	.L70
 1111              	.LBE145:
 1112              	.LBE146:
 1113              	.LBE147:
 1114              	.LBE148:
 1115              	.LBE151:
 1116              	.LBE113:
 1117              	.LBE152:
 1118              		.cfi_endproc
 1119              	.LFE136:
 1120              		.size	usb_lld_pump, .-usb_lld_pump
 1121 034a 00BFAFF3 		.section	.text.otg_epin_handler,"ax",%progbits
 1121      0080
 1122              		.align	2
 1123              		.p2align 4,,15
 1124              		.thumb
 1125              		.thumb_func
 1126              		.type	otg_epin_handler, %function
 1127              	otg_epin_handler:
 1128              	.LFB133:
 1129              		.loc 1 548 0
 1130              		.cfi_startproc
 1131              		@ args = 0, pretend = 0, frame = 0
 1132              		@ frame_needed = 0, uses_anonymous_args = 0
 1133              	.LVL132:
 1134 0000 F8B5     		push	{r3, r4, r5, r6, r7, lr}
ARM GAS  /tmp/ccl4JtoD.s 			page 21


 1135              	.LCFI4:
 1136              		.cfi_def_cfa_offset 24
 1137              		.cfi_offset 3, -24
 1138              		.cfi_offset 4, -20
 1139              		.cfi_offset 5, -16
 1140              		.cfi_offset 6, -12
 1141              		.cfi_offset 7, -8
 1142              		.cfi_offset 14, -4
 1143              		.loc 1 549 0
 1144 0002 046D     		ldr	r4, [r0, #80]
 1145              	.LVL133:
 1146              		.loc 1 550 0
 1147 0004 04EB4113 		add	r3, r4, r1, lsl #5
 1148              		.loc 1 552 0
 1149 0008 4FF0FF32 		mov	r2, #-1
 1150              		.loc 1 550 0
 1151 000c D3F80869 		ldr	r6, [r3, #2312]
 1152              	.LVL134:
 1153              		.loc 1 552 0
 1154 0010 C3F80829 		str	r2, [r3, #2312]
 1155              		.loc 1 557 0
 1156 0014 F307     		lsls	r3, r6, #31
 1157              		.loc 1 548 0
 1158 0016 0546     		mov	r5, r0
 1159 0018 0F46     		mov	r7, r1
 1160              		.loc 1 557 0
 1161 001a 03D5     		bpl	.L162
 1162              		.loc 1 557 0 is_stmt 0 discriminator 1
 1163 001c D4F81038 		ldr	r3, [r4, #2064]
 1164 0020 DA07     		lsls	r2, r3, #31
 1165 0022 1FD4     		bmi	.L180
 1166              	.LVL135:
 1167              	.L162:
 1168              		.loc 1 561 0 is_stmt 1
 1169 0024 3306     		lsls	r3, r6, #24
 1170 0026 06D5     		bpl	.L161
 1171              		.loc 1 562 0 discriminator 1
 1172 0028 0122     		movs	r2, #1
 1173 002a D4F83438 		ldr	r3, [r4, #2100]
 1174 002e 02FA07F7 		lsl	r7, r2, r7
 1175              		.loc 1 561 0 discriminator 1
 1176 0032 1F42     		tst	r7, r3
 1177 0034 00D1     		bne	.L181
 1178              	.L161:
 1179 0036 F8BD     		pop	{r3, r4, r5, r6, r7, pc}
 1180              	.L181:
 1181              	.LBB157:
 1182              		.loc 1 564 0
 1183 0038 2023     		movs	r3, #32
 1184              	.LVL136:
 1185              	@ 564 "/home/dpeter/devel/sources/ChibiOS-RT/os/hal/platforms/STM32/OTGv1/usb_lld.c" 1
 1186 003a 83F31188 		msr     BASEPRI, r3
 1187              	@ 0 "" 2
 1188              	.LVL137:
 1189              		.thumb
 1190              	.LBE157:
 1191              		.loc 1 565 0
ARM GAS  /tmp/ccl4JtoD.s 			page 22


 1192 003e EB6D     		ldr	r3, [r5, #92]
 1193              	.LVL138:
 1194              		.loc 1 566 0
 1195 0040 D4F83428 		ldr	r2, [r4, #2100]
 1196              	.LBB158:
 1197              	.LBB159:
 1198              		.loc 1 122 0
 1199 0044 686E     		ldr	r0, [r5, #100]
 1200              	.LBE159:
 1201              	.LBE158:
 1202              		.loc 1 565 0
 1203 0046 3B43     		orrs	r3, r3, r7
 1204              		.loc 1 566 0
 1205 0048 22EA0707 		bic	r7, r2, r7
 1206              		.loc 1 565 0
 1207 004c EB65     		str	r3, [r5, #92]
 1208              		.loc 1 566 0
 1209 004e C4F83478 		str	r7, [r4, #2100]
 1210              	.LVL139:
 1211              	.LBB161:
 1212              	.LBB160:
 1213              		.loc 1 122 0
 1214 0052 18B1     		cbz	r0, .L164
 1215              		.loc 1 123 0
 1216 0054 FFF7FEFF 		bl	chSchReadyI
 1217              	.LVL140:
 1218              		.loc 1 124 0
 1219 0058 0023     		movs	r3, #0
 1220 005a 6B66     		str	r3, [r5, #100]
 1221              	.L164:
 1222              	.LBE160:
 1223              	.LBE161:
 1224              	.LBB162:
 1225              		.loc 1 568 0
 1226 005c 0023     		movs	r3, #0
 1227              	.LVL141:
 1228              	@ 568 "/home/dpeter/devel/sources/ChibiOS-RT/os/hal/platforms/STM32/OTGv1/usb_lld.c" 1
 1229 005e 83F31188 		msr     BASEPRI, r3
 1230              	@ 0 "" 2
 1231              	.LVL142:
 1232              		.thumb
 1233 0062 F8BD     		pop	{r3, r4, r5, r6, r7, pc}
 1234              	.LVL143:
 1235              	.L180:
 1236              	.LBE162:
 1237              		.loc 1 559 0
 1238 0064 00EB8103 		add	r3, r0, r1, lsl #2
 1239 0068 B0F808E0 		ldrh	lr, [r0, #8]
 1240 006c DB68     		ldr	r3, [r3, #12]
 1241 006e 0122     		movs	r2, #1
 1242 0070 02FA01F2 		lsl	r2, r2, r1
 1243 0074 2EEA0202 		bic	r2, lr, r2
 1244 0078 0281     		strh	r2, [r0, #8]	@ movhi
 1245 007a 9B68     		ldr	r3, [r3, #8]
 1246 007c 9847     		blx	r3
 1247              	.LVL144:
 1248 007e D1E7     		b	.L162
ARM GAS  /tmp/ccl4JtoD.s 			page 23


 1249              		.cfi_endproc
 1250              	.LFE133:
 1251              		.size	otg_epin_handler, .-otg_epin_handler
 1252              		.section	.text.Vector14C,"ax",%progbits
 1253              		.align	2
 1254              		.p2align 4,,15
 1255              		.global	Vector14C
 1256              		.thumb
 1257              		.thumb_func
 1258              		.type	Vector14C, %function
 1259              	Vector14C:
 1260              	.LFB137:
 1261              		.loc 1 746 0
 1262              		.cfi_startproc
 1263              		@ args = 0, pretend = 0, frame = 0
 1264              		@ frame_needed = 0, uses_anonymous_args = 0
 1265              	.LVL145:
 1266 0000 70B5     		push	{r4, r5, r6, lr}
 1267              	.LCFI5:
 1268              		.cfi_def_cfa_offset 16
 1269              		.cfi_offset 4, -16
 1270              		.cfi_offset 5, -12
 1271              		.cfi_offset 6, -8
 1272              		.cfi_offset 14, -4
 1273              	.LBB169:
 1274              	.LBB170:
 1275              		.loc 1 607 0
 1276 0002 3E4E     		ldr	r6, .L254
 1277 0004 356D     		ldr	r5, [r6, #80]
 1278              	.LVL146:
 1279              		.loc 1 610 0
 1280 0006 6B69     		ldr	r3, [r5, #20]
 1281 0008 AC69     		ldr	r4, [r5, #24]
 1282 000a 1C40     		ands	r4, r4, r3
 1283              	.LVL147:
 1284              		.loc 1 614 0
 1285 000c E104     		lsls	r1, r4, #19
 1286              		.loc 1 611 0
 1287 000e 6C61     		str	r4, [r5, #20]
 1288              		.loc 1 614 0
 1289 0010 2BD4     		bmi	.L244
 1290              	.L184:
 1291              		.loc 1 620 0
 1292 0012 A204     		lsls	r2, r4, #18
 1293              		.loc 1 621 0
 1294 0014 48BF     		it	mi
 1295 0016 D5F80838 		ldrmi	r3, [r5, #2056]
 1296              		.loc 1 625 0
 1297 001a 2307     		lsls	r3, r4, #28
 1298 001c 04D5     		bpl	.L187
 1299              		.loc 1 626 0
 1300 001e 7368     		ldr	r3, [r6, #4]
 1301 0020 DB68     		ldr	r3, [r3, #12]
 1302 0022 0BB1     		cbz	r3, .L187
 1303 0024 3548     		ldr	r0, .L254
 1304 0026 9847     		blx	r3
 1305              	.LVL148:
ARM GAS  /tmp/ccl4JtoD.s 			page 24


 1306              	.L187:
 1307              		.loc 1 630 0
 1308 0028 E006     		lsls	r0, r4, #27
 1309 002a 29D4     		bmi	.L245
 1310              	.LVL149:
 1311              	.L188:
 1312              		.loc 1 641 0
 1313 002c 6103     		lsls	r1, r4, #13
 1314              		.loc 1 640 0
 1315 002e D5F81858 		ldr	r5, [r5, #2072]
 1316              	.LVL150:
 1317              		.loc 1 641 0
 1318 0032 07D5     		bpl	.L191
 1319              		.loc 1 642 0
 1320 0034 EA07     		lsls	r2, r5, #31
 1321 0036 49D4     		bmi	.L246
 1322              		.loc 1 644 0
 1323 0038 AB07     		lsls	r3, r5, #30
 1324              	.LVL151:
 1325 003a 4DD4     		bmi	.L247
 1326              	.L193:
 1327              		.loc 1 646 0
 1328 003c 6807     		lsls	r0, r5, #29
 1329 003e 51D4     		bmi	.L248
 1330              	.L194:
 1331              		.loc 1 648 0
 1332 0040 2907     		lsls	r1, r5, #28
 1333 0042 55D4     		bmi	.L249
 1334              	.LVL152:
 1335              	.L191:
 1336              		.loc 1 657 0
 1337 0044 2203     		lsls	r2, r4, #12
 1338 0046 07D5     		bpl	.L197
 1339              		.loc 1 658 0
 1340 0048 EB03     		lsls	r3, r5, #15
 1341              	.LVL153:
 1342 004a 32D4     		bmi	.L250
 1343              		.loc 1 660 0
 1344 004c A803     		lsls	r0, r5, #14
 1345 004e 36D4     		bmi	.L251
 1346              	.L199:
 1347              		.loc 1 662 0
 1348 0050 6903     		lsls	r1, r5, #13
 1349 0052 27D4     		bmi	.L252
 1350              	.L200:
 1351              		.loc 1 664 0
 1352 0054 2A03     		lsls	r2, r5, #12
 1353 0056 03D4     		bmi	.L253
 1354              	.LVL154:
 1355              	.L197:
 1356              	.LBE170:
 1357              	.LBE169:
 1358              		.loc 1 753 0
 1359 0058 BDE87040 		pop	{r4, r5, r6, lr}
 1360              		.loc 1 752 0
 1361 005c FFF7FEBF 		b	_port_irq_epilogue
 1362              	.LVL155:
ARM GAS  /tmp/ccl4JtoD.s 			page 25


 1363              	.L253:
 1364              	.LBB178:
 1365              	.LBB177:
 1366              		.loc 1 665 0
 1367 0060 2648     		ldr	r0, .L254
 1368 0062 0321     		movs	r1, #3
 1369 0064 FFF7FEFF 		bl	otg_epout_handler
 1370              	.LVL156:
 1371 0068 F6E7     		b	.L197
 1372              	.LVL157:
 1373              	.L244:
 1374              		.loc 1 615 0
 1375 006a 3046     		mov	r0, r6
 1376 006c FFF7FEFF 		bl	_usb_reset
 1377              	.LVL158:
 1378              		.loc 1 616 0
 1379 0070 7368     		ldr	r3, [r6, #4]
 1380 0072 1B68     		ldr	r3, [r3, #0]
 1381 0074 002B     		cmp	r3, #0
 1382 0076 CCD0     		beq	.L184
 1383 0078 3046     		mov	r0, r6
 1384 007a 0021     		movs	r1, #0
 1385 007c 9847     		blx	r3
 1386              	.LVL159:
 1387 007e C8E7     		b	.L184
 1388              	.L245:
 1389              	.LBB171:
 1390              		.loc 1 633 0
 1391 0080 2023     		movs	r3, #32
 1392              	.LVL160:
 1393              	@ 633 "/home/dpeter/devel/sources/ChibiOS-RT/os/hal/platforms/STM32/OTGv1/usb_lld.c" 1
 1394 0082 83F31188 		msr     BASEPRI, r3
 1395              	@ 0 "" 2
 1396              	.LVL161:
 1397              		.thumb
 1398              	.LBE171:
 1399              		.loc 1 634 0
 1400 0086 AB69     		ldr	r3, [r5, #24]
 1401              	.LVL162:
 1402              	.LBB172:
 1403              	.LBB173:
 1404              		.loc 1 122 0
 1405 0088 706E     		ldr	r0, [r6, #100]
 1406              	.LBE173:
 1407              	.LBE172:
 1408              		.loc 1 634 0
 1409 008a 23F01003 		bic	r3, r3, #16
 1410 008e AB61     		str	r3, [r5, #24]
 1411              	.LVL163:
 1412              	.LBB175:
 1413              	.LBB174:
 1414              		.loc 1 122 0
 1415 0090 20B1     		cbz	r0, .L189
 1416              		.loc 1 123 0
 1417 0092 FFF7FEFF 		bl	chSchReadyI
 1418              	.LVL164:
 1419              		.loc 1 124 0
ARM GAS  /tmp/ccl4JtoD.s 			page 26


 1420 0096 194B     		ldr	r3, .L254
 1421 0098 0022     		movs	r2, #0
 1422 009a 5A66     		str	r2, [r3, #100]
 1423              	.L189:
 1424              	.LBE174:
 1425              	.LBE175:
 1426              	.LBB176:
 1427              		.loc 1 636 0
 1428 009c 0023     		movs	r3, #0
 1429              	@ 636 "/home/dpeter/devel/sources/ChibiOS-RT/os/hal/platforms/STM32/OTGv1/usb_lld.c" 1
 1430 009e 83F31188 		msr     BASEPRI, r3
 1431              	@ 0 "" 2
 1432              	.LVL165:
 1433              		.thumb
 1434 00a2 C3E7     		b	.L188
 1435              	.LVL166:
 1436              	.L252:
 1437              	.LBE176:
 1438              		.loc 1 663 0
 1439 00a4 0221     		movs	r1, #2
 1440 00a6 1548     		ldr	r0, .L254
 1441 00a8 FFF7FEFF 		bl	otg_epout_handler
 1442              	.LVL167:
 1443              		.loc 1 664 0
 1444 00ac 2A03     		lsls	r2, r5, #12
 1445 00ae D3D5     		bpl	.L197
 1446 00b0 D6E7     		b	.L253
 1447              	.L250:
 1448              		.loc 1 659 0
 1449 00b2 1248     		ldr	r0, .L254
 1450 00b4 0021     		movs	r1, #0
 1451 00b6 FFF7FEFF 		bl	otg_epout_handler
 1452              	.LVL168:
 1453              		.loc 1 660 0
 1454 00ba A803     		lsls	r0, r5, #14
 1455 00bc C8D5     		bpl	.L199
 1456              	.L251:
 1457              		.loc 1 661 0
 1458 00be 0121     		movs	r1, #1
 1459 00c0 0E48     		ldr	r0, .L254
 1460 00c2 FFF7FEFF 		bl	otg_epout_handler
 1461              	.LVL169:
 1462              		.loc 1 662 0
 1463 00c6 6903     		lsls	r1, r5, #13
 1464 00c8 C4D5     		bpl	.L200
 1465 00ca EBE7     		b	.L252
 1466              	.LVL170:
 1467              	.L246:
 1468              		.loc 1 643 0
 1469 00cc 0021     		movs	r1, #0
 1470 00ce 0B48     		ldr	r0, .L254
 1471 00d0 FFF7FEFF 		bl	otg_epin_handler
 1472              	.LVL171:
 1473              		.loc 1 644 0
 1474 00d4 AB07     		lsls	r3, r5, #30
 1475 00d6 B1D5     		bpl	.L193
 1476              	.L247:
ARM GAS  /tmp/ccl4JtoD.s 			page 27


 1477              		.loc 1 645 0
 1478 00d8 0848     		ldr	r0, .L254
 1479 00da 0121     		movs	r1, #1
 1480 00dc FFF7FEFF 		bl	otg_epin_handler
 1481              	.LVL172:
 1482              		.loc 1 646 0
 1483 00e0 6807     		lsls	r0, r5, #29
 1484 00e2 ADD5     		bpl	.L194
 1485              	.L248:
 1486              		.loc 1 647 0
 1487 00e4 0221     		movs	r1, #2
 1488 00e6 0548     		ldr	r0, .L254
 1489 00e8 FFF7FEFF 		bl	otg_epin_handler
 1490              	.LVL173:
 1491              		.loc 1 648 0
 1492 00ec 2907     		lsls	r1, r5, #28
 1493 00ee A9D5     		bpl	.L191
 1494              	.L249:
 1495              		.loc 1 649 0
 1496 00f0 0248     		ldr	r0, .L254
 1497 00f2 0321     		movs	r1, #3
 1498 00f4 FFF7FEFF 		bl	otg_epin_handler
 1499              	.LVL174:
 1500 00f8 A4E7     		b	.L191
 1501              	.L255:
 1502 00fa 00BF     		.align	2
 1503              	.L254:
 1504 00fc 00000000 		.word	.LANCHOR0
 1505              	.LBE177:
 1506              	.LBE178:
 1507              		.cfi_endproc
 1508              	.LFE137:
 1509              		.size	Vector14C, .-Vector14C
 1510              		.section	.text.usb_lld_init,"ax",%progbits
 1511              		.align	2
 1512              		.p2align 4,,15
 1513              		.global	usb_lld_init
 1514              		.thumb
 1515              		.thumb_func
 1516              		.type	usb_lld_init, %function
 1517              	usb_lld_init:
 1518              	.LFB138:
 1519              		.loc 1 784 0
 1520              		.cfi_startproc
 1521              		@ args = 0, pretend = 0, frame = 0
 1522              		@ frame_needed = 0, uses_anonymous_args = 0
 1523 0000 10B5     		push	{r4, lr}
 1524              	.LCFI6:
 1525              		.cfi_def_cfa_offset 8
 1526              		.cfi_offset 4, -8
 1527              		.cfi_offset 14, -4
 1528              		.loc 1 788 0
 1529 0002 064C     		ldr	r4, .L257
 1530 0004 2046     		mov	r0, r4
 1531 0006 FFF7FEFF 		bl	usbObjectInit
 1532              	.LVL175:
 1533              		.loc 1 789 0
ARM GAS  /tmp/ccl4JtoD.s 			page 28


 1534 000a 0023     		movs	r3, #0
 1535 000c 2366     		str	r3, [r4, #96]
 1536              		.loc 1 790 0
 1537 000e 6366     		str	r3, [r4, #100]
 1538              		.loc 1 791 0
 1539 0010 4FF0A043 		mov	r3, #1342177280
 1540 0014 2365     		str	r3, [r4, #80]
 1541              		.loc 1 792 0
 1542 0016 024B     		ldr	r3, .L257+4
 1543 0018 6365     		str	r3, [r4, #84]
 1544 001a 10BD     		pop	{r4, pc}
 1545              	.L258:
 1546              		.align	2
 1547              	.L257:
 1548 001c 00000000 		.word	.LANCHOR0
 1549 0020 00000000 		.word	.LANCHOR1
 1550              		.cfi_endproc
 1551              	.LFE138:
 1552              		.size	usb_lld_init, .-usb_lld_init
 1553 0024 AFF30080 		.section	.text.usb_lld_start,"ax",%progbits
 1553      AFF30080 
 1553      AFF30080 
 1554              		.align	2
 1555              		.p2align 4,,15
 1556              		.global	usb_lld_start
 1557              		.thumb
 1558              		.thumb_func
 1559              		.type	usb_lld_start, %function
 1560              	usb_lld_start:
 1561              	.LFB139:
 1562              		.loc 1 842 0
 1563              		.cfi_startproc
 1564              		@ args = 0, pretend = 0, frame = 0
 1565              		@ frame_needed = 0, uses_anonymous_args = 0
 1566              	.LVL176:
 1567 0000 70B5     		push	{r4, r5, r6, lr}
 1568              	.LCFI7:
 1569              		.cfi_def_cfa_offset 16
 1570              		.cfi_offset 4, -16
 1571              		.cfi_offset 5, -12
 1572              		.cfi_offset 6, -8
 1573              		.cfi_offset 14, -4
 1574              		.loc 1 845 0
 1575 0002 0378     		ldrb	r3, [r0, #0]	@ zero_extendqisi2
 1576              		.loc 1 843 0
 1577 0004 056D     		ldr	r5, [r0, #80]
 1578              	.LVL177:
 1579              		.loc 1 845 0
 1580 0006 012B     		cmp	r3, #1
 1581              		.loc 1 842 0
 1582 0008 82B0     		sub	sp, sp, #8
 1583              	.LCFI8:
 1584              		.cfi_def_cfa_offset 24
 1585              		.loc 1 842 0
 1586 000a 0646     		mov	r6, r0
 1587              		.loc 1 845 0
 1588 000c 01D0     		beq	.L269
ARM GAS  /tmp/ccl4JtoD.s 			page 29


 1589              	.LVL178:
 1590              	.L259:
 1591              		.loc 1 919 0
 1592 000e 02B0     		add	sp, sp, #8
 1593 0010 70BD     		pop	{r4, r5, r6, pc}
 1594              	.LVL179:
 1595              	.L269:
 1596              		.loc 1 848 0
 1597 0012 2D4B     		ldr	r3, .L273
 1598 0014 9842     		cmp	r0, r3
 1599 0016 47D0     		beq	.L270
 1600              	.LVL180:
 1601              	.L261:
 1602              		.loc 1 873 0
 1603 0018 336E     		ldr	r3, [r6, #96]
 1604              		.loc 1 872 0
 1605 001a 0022     		movs	r2, #0
 1606 001c F265     		str	r2, [r6, #92]
 1607              		.loc 1 873 0
 1608 001e 002B     		cmp	r3, #0
 1609 0020 36D0     		beq	.L271
 1610              	.L262:
 1611              		.loc 1 883 0
 1612 0022 2A4B     		ldr	r3, .L273+4
 1613              	.LBB181:
 1614              	.LBB182:
 1615              		.loc 1 129 0
 1616 0024 346D     		ldr	r4, [r6, #80]
 1617              	.LBE182:
 1618              	.LBE181:
 1619              		.loc 1 883 0
 1620 0026 EB60     		str	r3, [r5, #12]
 1621              		.loc 1 886 0
 1622 0028 294B     		ldr	r3, .L273+8
 1623 002a C5F80038 		str	r3, [r5, #2048]
 1624              		.loc 1 889 0
 1625 002e 0023     		movs	r3, #0
 1626 0030 C5F8003E 		str	r3, [r5, #3584]
 1627              		.loc 1 892 0
 1628 0034 4FF45023 		mov	r3, #851968
 1629 0038 AB63     		str	r3, [r5, #56]
 1630              	.LVL181:
 1631              	.LBB184:
 1632              	.LBB183:
 1633              		.loc 1 131 0
 1634 003a 2020     		movs	r0, #32
 1635 003c FFF7FEFF 		bl	halPolledDelay
 1636              	.LVL182:
 1637              		.loc 1 134 0
 1638 0040 0123     		movs	r3, #1
 1639 0042 2361     		str	r3, [r4, #16]
 1640              	.L263:
 1641              		.loc 1 135 0
 1642 0044 2369     		ldr	r3, [r4, #16]
 1643 0046 D807     		lsls	r0, r3, #31
 1644 0048 FCD4     		bmi	.L263
 1645              		.loc 1 138 0
ARM GAS  /tmp/ccl4JtoD.s 			page 30


 1646 004a 0C20     		movs	r0, #12
 1647 004c FFF7FEFF 		bl	halPolledDelay
 1648              	.LVL183:
 1649              	.L264:
 1650              		.loc 1 141 0
 1651 0050 2369     		ldr	r3, [r4, #16]
 1652 0052 002B     		cmp	r3, #0
 1653 0054 FCDA     		bge	.L264
 1654              	.LBE183:
 1655              	.LBE184:
 1656              		.loc 1 898 0
 1657 0056 0024     		movs	r4, #0
 1658              	.LVL184:
 1659 0058 AC60     		str	r4, [r5, #8]
 1660              		.loc 1 901 0
 1661 005a 3046     		mov	r0, r6
 1662 005c FFF7FEFF 		bl	otg_disable_ep
 1663              	.LVL185:
 1664              		.loc 1 908 0
 1665 0060 7368     		ldr	r3, [r6, #4]
 1666              		.loc 1 905 0
 1667 0062 C5F81048 		str	r4, [r5, #2064]
 1668              		.loc 1 908 0
 1669 0066 DB68     		ldr	r3, [r3, #12]
 1670              		.loc 1 906 0
 1671 0068 C5F81448 		str	r4, [r5, #2068]
 1672              		.loc 1 907 0
 1673 006c C5F81C48 		str	r4, [r5, #2076]
 1674              		.loc 1 908 0
 1675 0070 53B1     		cbz	r3, .L272
 1676              		.loc 1 912 0
 1677 0072 43F20803 		movw	r3, #12296
 1678 0076 AB61     		str	r3, [r5, #24]
 1679              	.L266:
 1680              		.loc 1 914 0
 1681 0078 4FF0FF33 		mov	r3, #-1
 1682 007c 6B61     		str	r3, [r5, #20]
 1683              		.loc 1 917 0
 1684 007e AB68     		ldr	r3, [r5, #8]
 1685 0080 43F00103 		orr	r3, r3, #1
 1686 0084 AB60     		str	r3, [r5, #8]
 1687 0086 C2E7     		b	.L259
 1688              	.L272:
 1689              		.loc 1 909 0
 1690 0088 4FF44053 		mov	r3, #12288
 1691 008c AB61     		str	r3, [r5, #24]
 1692 008e F3E7     		b	.L266
 1693              	.LVL186:
 1694              	.L271:
 1695              		.loc 1 874 0
 1696 0090 0096     		str	r6, [sp, #0]
 1697 0092 06F16800 		add	r0, r6, #104
 1698 0096 4FF49871 		mov	r1, #304
 1699 009a 0222     		movs	r2, #2
 1700 009c 0D4B     		ldr	r3, .L273+12
 1701 009e FFF7FEFF 		bl	chThdCreateI
 1702              	.LVL187:
ARM GAS  /tmp/ccl4JtoD.s 			page 31


 1703 00a2 7066     		str	r0, [r6, #100]
 1704 00a4 3066     		str	r0, [r6, #96]
 1705 00a6 BCE7     		b	.L262
 1706              	.LVL188:
 1707              	.L270:
 1708              		.loc 1 850 0
 1709 00a8 0B4B     		ldr	r3, .L273+16
 1710 00aa 5A6B     		ldr	r2, [r3, #52]
 1711 00ac 42F08002 		orr	r2, r2, #128
 1712 00b0 5A63     		str	r2, [r3, #52]
 1713              		.loc 1 851 0
 1714 00b2 5A69     		ldr	r2, [r3, #20]
 1715 00b4 42F08002 		orr	r2, r2, #128
 1716 00b8 5A61     		str	r2, [r3, #20]
 1717 00ba 0022     		movs	r2, #0
 1718              		.loc 1 854 0
 1719 00bc 4320     		movs	r0, #67
 1720              	.LVL189:
 1721 00be E021     		movs	r1, #224
 1722              		.loc 1 851 0
 1723 00c0 5A61     		str	r2, [r3, #20]
 1724              		.loc 1 854 0
 1725 00c2 FFF7FEFF 		bl	nvicEnableVector
 1726              	.LVL190:
 1727 00c6 A7E7     		b	.L261
 1728              	.L274:
 1729              		.align	2
 1730              	.L273:
 1731 00c8 00000000 		.word	.LANCHOR0
 1732 00cc 40140040 		.word	1073747008
 1733 00d0 03002002 		.word	35651587
 1734 00d4 00000000 		.word	usb_lld_pump
 1735 00d8 00380240 		.word	1073887232
 1736              		.cfi_endproc
 1737              	.LFE139:
 1738              		.size	usb_lld_start, .-usb_lld_start
 1739 00dc AFF30080 		.section	.text.usb_lld_stop,"ax",%progbits
 1740              		.align	2
 1741              		.p2align 4,,15
 1742              		.global	usb_lld_stop
 1743              		.thumb
 1744              		.thumb_func
 1745              		.type	usb_lld_stop, %function
 1746              	usb_lld_stop:
 1747              	.LFB140:
 1748              		.loc 1 928 0
 1749              		.cfi_startproc
 1750              		@ args = 0, pretend = 0, frame = 0
 1751              		@ frame_needed = 0, uses_anonymous_args = 0
 1752              	.LVL191:
 1753 0000 38B5     		push	{r3, r4, r5, lr}
 1754              	.LCFI9:
 1755              		.cfi_def_cfa_offset 16
 1756              		.cfi_offset 3, -16
 1757              		.cfi_offset 4, -12
 1758              		.cfi_offset 5, -8
 1759              		.cfi_offset 14, -4
ARM GAS  /tmp/ccl4JtoD.s 			page 32


 1760              		.loc 1 932 0
 1761 0002 0378     		ldrb	r3, [r0, #0]	@ zero_extendqisi2
 1762              		.loc 1 929 0
 1763 0004 056D     		ldr	r5, [r0, #80]
 1764              	.LVL192:
 1765              		.loc 1 932 0
 1766 0006 012B     		cmp	r3, #1
 1767              		.loc 1 928 0
 1768 0008 0446     		mov	r4, r0
 1769              		.loc 1 932 0
 1770 000a 07D0     		beq	.L275
 1771              		.loc 1 936 0
 1772 000c FFF7FEFF 		bl	otg_disable_ep
 1773              	.LVL193:
 1774              		.loc 1 938 0
 1775 0010 0023     		movs	r3, #0
 1776 0012 E365     		str	r3, [r4, #92]
 1777              		.loc 1 940 0
 1778 0014 C5F81C38 		str	r3, [r5, #2076]
 1779              		.loc 1 941 0
 1780 0018 AB60     		str	r3, [r5, #8]
 1781              		.loc 1 942 0
 1782 001a AB63     		str	r3, [r5, #56]
 1783              	.L275:
 1784 001c 38BD     		pop	{r3, r4, r5, pc}
 1785              		.cfi_endproc
 1786              	.LFE140:
 1787              		.size	usb_lld_stop, .-usb_lld_stop
 1788 001e 00BF     		.section	.text.usb_lld_reset,"ax",%progbits
 1789              		.align	2
 1790              		.p2align 4,,15
 1791              		.global	usb_lld_reset
 1792              		.thumb
 1793              		.thumb_func
 1794              		.type	usb_lld_reset, %function
 1795              	usb_lld_reset:
 1796              	.LFB141:
 1797              		.loc 1 967 0
 1798              		.cfi_startproc
 1799              		@ args = 0, pretend = 0, frame = 0
 1800              		@ frame_needed = 0, uses_anonymous_args = 0
 1801              	.LVL194:
 1802 0000 2DE9F041 		push	{r4, r5, r6, r7, r8, lr}
 1803              	.LCFI10:
 1804              		.cfi_def_cfa_offset 24
 1805              		.cfi_offset 4, -24
 1806              		.cfi_offset 5, -20
 1807              		.cfi_offset 6, -16
 1808              		.cfi_offset 7, -12
 1809              		.cfi_offset 8, -8
 1810              		.cfi_offset 14, -4
 1811              		.loc 1 967 0
 1812 0004 8046     		mov	r8, r0
 1813              		.loc 1 972 0
 1814 0006 0021     		movs	r1, #0
 1815              		.loc 1 969 0
 1816 0008 046D     		ldr	r4, [r0, #80]
ARM GAS  /tmp/ccl4JtoD.s 			page 33


 1817              	.LVL195:
 1818              		.loc 1 972 0
 1819 000a FFF7FEFF 		bl	otg_txfifo_flush
 1820              	.LVL196:
 1821 000e D8F854E0 		ldr	lr, [r8, #84]
 1822 0012 DEF80800 		ldr	r0, [lr, #8]
 1823              		.loc 1 975 0
 1824 0016 0023     		movs	r3, #0
 1825              		.loc 1 976 0
 1826 0018 4FF00065 		mov	r5, #134217728
 1827              		.loc 1 978 0
 1828 001c FF21     		movs	r1, #255
 1829              	.LVL197:
 1830              	.L281:
 1831              		.loc 1 976 0 discriminator 2
 1832 001e 03F14807 		add	r7, r3, #72
 1833              		.loc 1 977 0 discriminator 2
 1834 0022 03F15806 		add	r6, r3, #88
 1835              		.loc 1 978 0 discriminator 2
 1836 0026 04EB4312 		add	r2, r4, r3, lsl #5
 1837              		.loc 1 976 0 discriminator 2
 1838 002a 7F01     		lsls	r7, r7, #5
 1839              		.loc 1 977 0 discriminator 2
 1840 002c 7601     		lsls	r6, r6, #5
 1841              		.loc 1 975 0 discriminator 2
 1842 002e 0133     		adds	r3, r3, #1
 1843              	.LVL198:
 1844 0030 8342     		cmp	r3, r0
 1845              		.loc 1 976 0 discriminator 2
 1846 0032 E551     		str	r5, [r4, r7]
 1847              		.loc 1 977 0 discriminator 2
 1848 0034 A551     		str	r5, [r4, r6]
 1849              		.loc 1 978 0 discriminator 2
 1850 0036 C2F80819 		str	r1, [r2, #2312]
 1851              		.loc 1 979 0 discriminator 2
 1852 003a C2F8081B 		str	r1, [r2, #2824]
 1853              		.loc 1 975 0 discriminator 2
 1854 003e EED9     		bls	.L281
 1855              	.LBB191:
 1856              	.LBB192:
 1857              		.loc 1 211 0
 1858 0040 DEF80030 		ldr	r3, [lr, #0]
 1859              	.LVL199:
 1860              	.LBE192:
 1861              	.LBE191:
 1862              	.LBB194:
 1863              	.LBB195:
 1864              		.loc 1 183 0
 1865 0044 D8F85020 		ldr	r2, [r8, #80]
 1866              	.LBE195:
 1867              	.LBE194:
 1868              		.loc 1 983 0
 1869 0048 4FF0FF31 		mov	r1, #-1
 1870 004c C4F81818 		str	r1, [r4, #2072]
 1871              		.loc 1 984 0
 1872 0050 4FF00111 		mov	r1, #65537
 1873 0054 C4F81C18 		str	r1, [r4, #2076]
ARM GAS  /tmp/ccl4JtoD.s 			page 34


 1874              	.LVL200:
 1875              	.LBB197:
 1876              	.LBB193:
 1877              		.loc 1 211 0
 1878 0058 C8F85830 		str	r3, [r8, #88]
 1879              	.LBE193:
 1880              	.LBE197:
 1881              		.loc 1 990 0
 1882 005c 6362     		str	r3, [r4, #36]
 1883              	.LVL201:
 1884              	.LBB198:
 1885              	.LBB196:
 1886              		.loc 1 185 0
 1887 005e 1023     		movs	r3, #16
 1888 0060 1361     		str	r3, [r2, #16]
 1889              	.L282:
 1890              		.loc 1 186 0
 1891 0062 1369     		ldr	r3, [r2, #16]
 1892 0064 13F01005 		ands	r5, r3, #16
 1893 0068 FBD1     		bne	.L282
 1894              		.loc 1 189 0
 1895 006a 0C20     		movs	r0, #12
 1896 006c FFF7FEFF 		bl	halPolledDelay
 1897              	.LVL202:
 1898              	.LBE196:
 1899              	.LBE198:
 1900              		.loc 1 994 0
 1901 0070 D4F80028 		ldr	r2, [r4, #2048]
 1902              	.LBB199:
 1903              	.LBB200:
 1904              		.loc 1 225 0
 1905 0074 D8F85810 		ldr	r1, [r8, #88]
 1906              	.LBE200:
 1907              	.LBE199:
 1908              		.loc 1 1004 0
 1909 0078 114B     		ldr	r3, .L285
 1910              		.loc 1 994 0
 1911 007a 22F4FE62 		bic	r2, r2, #2032
 1912 007e C4F80028 		str	r2, [r4, #2048]
 1913              		.loc 1 997 0
 1914 0082 A669     		ldr	r6, [r4, #24]
 1915 0084 46F44026 		orr	r6, r6, #786432
 1916              		.loc 1 998 0
 1917 0088 0922     		movs	r2, #9
 1918              		.loc 1 997 0
 1919 008a 46F01006 		orr	r6, r6, #16
 1920 008e A661     		str	r6, [r4, #24]
 1921              		.loc 1 998 0
 1922 0090 C4F81028 		str	r2, [r4, #2064]
 1923              		.loc 1 999 0
 1924 0094 C4F81428 		str	r2, [r4, #2068]
 1925              		.loc 1 1002 0
 1926 0098 0A4A     		ldr	r2, .L285+4
 1927              	.LBB203:
 1928              	.LBB201:
 1929              		.loc 1 226 0
 1930 009a 01F11000 		add	r0, r1, #16
ARM GAS  /tmp/ccl4JtoD.s 			page 35


 1931              	.LBE201:
 1932              	.LBE203:
 1933              		.loc 1 1009 0
 1934 009e 41F48011 		orr	r1, r1, #1048576
 1935              		.loc 1 1002 0
 1936 00a2 C8F80C20 		str	r2, [r8, #12]
 1937              		.loc 1 1003 0
 1938 00a6 C4F8105B 		str	r5, [r4, #2832]
 1939              		.loc 1 1004 0
 1940 00aa C4F8003B 		str	r3, [r4, #2816]
 1941              		.loc 1 1006 0
 1942 00ae C4F81059 		str	r5, [r4, #2320]
 1943              		.loc 1 1007 0
 1944 00b2 C4F80039 		str	r3, [r4, #2304]
 1945              	.LVL203:
 1946              	.LBB204:
 1947              	.LBB202:
 1948              		.loc 1 226 0
 1949 00b6 C8F85800 		str	r0, [r8, #88]
 1950              	.LBE202:
 1951              	.LBE204:
 1952              		.loc 1 1009 0
 1953 00ba A162     		str	r1, [r4, #40]
 1954 00bc BDE8F081 		pop	{r4, r5, r6, r7, r8, pc}
 1955              	.L286:
 1956              		.align	2
 1957              	.L285:
 1958 00c0 40800010 		.word	268468288
 1959 00c4 00000000 		.word	.LANCHOR2
 1960              		.cfi_endproc
 1961              	.LFE141:
 1962              		.size	usb_lld_reset, .-usb_lld_reset
 1963 00c8 AFF30080 		.section	.text.usb_lld_set_address,"ax",%progbits
 1963      AFF30080 
 1964              		.align	2
 1965              		.p2align 4,,15
 1966              		.global	usb_lld_set_address
 1967              		.thumb
 1968              		.thumb_func
 1969              		.type	usb_lld_set_address, %function
 1970              	usb_lld_set_address:
 1971              	.LFB142:
 1972              		.loc 1 1021 0
 1973              		.cfi_startproc
 1974              		@ args = 0, pretend = 0, frame = 0
 1975              		@ frame_needed = 0, uses_anonymous_args = 0
 1976              		@ link register save eliminated.
 1977              	.LVL204:
 1978              		.loc 1 1022 0
 1979 0000 036D     		ldr	r3, [r0, #80]
 1980              	.LVL205:
 1981              		.loc 1 1024 0
 1982 0002 90F84E10 		ldrb	r1, [r0, #78]	@ zero_extendqisi2
 1983 0006 D3F80028 		ldr	r2, [r3, #2048]
 1984 000a 22F4FE62 		bic	r2, r2, #2032
 1985 000e 42EA0112 		orr	r2, r2, r1, lsl #4
 1986 0012 C3F80028 		str	r2, [r3, #2048]
ARM GAS  /tmp/ccl4JtoD.s 			page 36


 1987 0016 7047     		bx	lr
 1988              		.cfi_endproc
 1989              	.LFE142:
 1990              		.size	usb_lld_set_address, .-usb_lld_set_address
 1991 0018 AFF30080 		.section	.text.usb_lld_init_endpoint,"ax",%progbits
 1991      AFF30080 
 1992              		.align	2
 1993              		.p2align 4,,15
 1994              		.global	usb_lld_init_endpoint
 1995              		.thumb
 1996              		.thumb_func
 1997              		.type	usb_lld_init_endpoint, %function
 1998              	usb_lld_init_endpoint:
 1999              	.LFB143:
 2000              		.loc 1 1035 0
 2001              		.cfi_startproc
 2002              		@ args = 0, pretend = 0, frame = 0
 2003              		@ frame_needed = 0, uses_anonymous_args = 0
 2004              	.LVL206:
 2005 0000 2DE9F041 		push	{r4, r5, r6, r7, r8, lr}
 2006              	.LCFI11:
 2007              		.cfi_def_cfa_offset 24
 2008              		.cfi_offset 4, -24
 2009              		.cfi_offset 5, -20
 2010              		.cfi_offset 6, -16
 2011              		.cfi_offset 7, -12
 2012              		.cfi_offset 8, -8
 2013              		.cfi_offset 14, -4
 2014              		.loc 1 1040 0
 2015 0004 8F1C     		adds	r7, r1, #2
 2016 0006 00EB8703 		add	r3, r0, r7, lsl #2
 2017              		.loc 1 1035 0
 2018 000a 0D46     		mov	r5, r1
 2019              		.loc 1 1040 0
 2020 000c 5B68     		ldr	r3, [r3, #4]
 2021              		.loc 1 1037 0
 2022 000e 046D     		ldr	r4, [r0, #80]
 2023              	.LVL207:
 2024              		.loc 1 1040 0
 2025 0010 1A68     		ldr	r2, [r3, #0]
 2026 0012 02F00302 		and	r2, r2, #3
 2027 0016 022A     		cmp	r2, #2
 2028              		.loc 1 1035 0
 2029 0018 0646     		mov	r6, r0
 2030              		.loc 1 1040 0
 2031 001a 52D0     		beq	.L291
 2032 001c 032A     		cmp	r2, #3
 2033 001e 53D0     		beq	.L292
 2034              		.loc 1 1042 0
 2035 0020 4349     		ldr	r1, .L299
 2036              	.LVL208:
 2037 0022 4448     		ldr	r0, .L299+4
 2038              	.LVL209:
 2039 0024 012A     		cmp	r2, #1
 2040 0026 0CBF     		ite	eq
 2041 0028 8046     		moveq	r8, r0
 2042 002a 8846     		movne	r8, r1
ARM GAS  /tmp/ccl4JtoD.s 			page 37


 2043              	.L290:
 2044              	.LVL210:
 2045              		.loc 1 1058 0
 2046 002c 6901     		lsls	r1, r5, #5
 2047 002e 6018     		adds	r0, r4, r1
 2048 0030 0022     		movs	r2, #0
 2049 0032 C0F8102B 		str	r2, [r0, #2832]
 2050              		.loc 1 1059 0
 2051 0036 DA68     		ldr	r2, [r3, #12]
 2052 0038 002A     		cmp	r2, #0
 2053 003a 48D0     		beq	.L293
 2054              		.loc 1 1060 0
 2055 003c 588A     		ldrh	r0, [r3, #18]
 2056 003e 05F15802 		add	r2, r5, #88
 2057 0042 5201     		lsls	r2, r2, #5
 2058 0044 48EA0000 		orr	r0, r8, r0
 2059 0048 A050     		str	r0, [r4, r2]
 2060              		.loc 1 1061 0
 2061 004a 4FF0010E 		mov	lr, #1
 2062 004e D4F81C08 		ldr	r0, [r4, #2076]
 2063 0052 05F11002 		add	r2, r5, #16
 2064 0056 0EFA02F2 		lsl	r2, lr, r2
 2065 005a 0243     		orrs	r2, r2, r0
 2066 005c C4F81C28 		str	r2, [r4, #2076]
 2067              	.L294:
 2068              		.loc 1 1069 0
 2069 0060 6118     		adds	r1, r4, r1
 2070              		.loc 1 1070 0
 2071 0062 9A68     		ldr	r2, [r3, #8]
 2072              		.loc 1 1069 0
 2073 0064 0020     		movs	r0, #0
 2074 0066 C1F81009 		str	r0, [r1, #2320]
 2075              		.loc 1 1070 0
 2076 006a 002A     		cmp	r2, #0
 2077 006c 43D0     		beq	.L295
 2078              		.loc 1 1073 0
 2079 006e 9A8B     		ldrh	r2, [r3, #28]
 2080              		.loc 1 1072 0
 2081 0070 198A     		ldrh	r1, [r3, #16]
 2082 0072 8B08     		lsrs	r3, r1, #2
 2083              	.LVL211:
 2084              		.loc 1 1073 0
 2085 0074 012A     		cmp	r2, #1
 2086              		.loc 1 1074 0
 2087 0076 88BF     		it	hi
 2088 0078 5343     		mulhi	r3, r2, r3
 2089              	.LVL212:
 2090              	.LBB205:
 2091              	.LBB206:
 2092              		.loc 1 225 0
 2093 007a B26D     		ldr	r2, [r6, #88]
 2094              	.LVL213:
 2095              	.LBE206:
 2096              	.LBE205:
 2097              		.loc 1 1075 0
 2098 007c 05F13F01 		add	r1, r5, #63
 2099              	.LBB209:
ARM GAS  /tmp/ccl4JtoD.s 			page 38


 2100              	.LBB207:
 2101              		.loc 1 226 0
 2102 0080 9818     		adds	r0, r3, r2
 2103              	.LBE207:
 2104              	.LBE209:
 2105              		.loc 1 1075 0
 2106 0082 04EB8101 		add	r1, r4, r1, lsl #2
 2107 0086 42EA0343 		orr	r3, r2, r3, lsl #16
 2108              	.LVL214:
 2109              	.LBB210:
 2110              	.LBB208:
 2111              		.loc 1 226 0
 2112 008a B065     		str	r0, [r6, #88]
 2113              	.LBE208:
 2114              	.LBE210:
 2115              		.loc 1 1077 0
 2116 008c 3046     		mov	r0, r6
 2117              		.loc 1 1081 0
 2118 008e 06EB8706 		add	r6, r6, r7, lsl #2
 2119              	.LVL215:
 2120              		.loc 1 1075 0
 2121 0092 4B60     		str	r3, [r1, #4]
 2122              		.loc 1 1077 0
 2123 0094 2946     		mov	r1, r5
 2124 0096 FFF7FEFF 		bl	otg_txfifo_flush
 2125              	.LVL216:
 2126              		.loc 1 1081 0
 2127 009a 7268     		ldr	r2, [r6, #4]
 2128              		.loc 1 1080 0
 2129 009c 128A     		ldrh	r2, [r2, #16]
 2130              		.loc 1 1079 0
 2131 009e 05F14803 		add	r3, r5, #72
 2132 00a2 5B01     		lsls	r3, r3, #5
 2133 00a4 42EA8552 		orr	r2, r2, r5, lsl #22
 2134              		.loc 1 1080 0
 2135 00a8 42EA0802 		orr	r2, r2, r8
 2136              		.loc 1 1079 0
 2137 00ac E250     		str	r2, [r4, r3]
 2138              		.loc 1 1082 0
 2139 00ae 0122     		movs	r2, #1
 2140 00b0 D4F81C38 		ldr	r3, [r4, #2076]
 2141 00b4 02FA05F5 		lsl	r5, r2, r5
 2142 00b8 1D43     		orrs	r5, r5, r3
 2143 00ba C4F81C58 		str	r5, [r4, #2076]
 2144 00be BDE8F081 		pop	{r4, r5, r6, r7, r8, pc}
 2145              	.LVL217:
 2146              	.L291:
 2147              		.loc 1 1048 0
 2148 00c2 DFF87880 		ldr	r8, .L299+12
 2149              		.loc 1 1049 0
 2150 00c6 B1E7     		b	.L290
 2151              	.LVL218:
 2152              	.L292:
 2153              		.loc 1 1051 0
 2154 00c8 DFF87480 		ldr	r8, .L299+16
 2155              		.loc 1 1052 0
 2156 00cc AEE7     		b	.L290
ARM GAS  /tmp/ccl4JtoD.s 			page 39


 2157              	.LVL219:
 2158              	.L293:
 2159              		.loc 1 1064 0
 2160 00ce 05F15802 		add	r2, r5, #88
 2161 00d2 5201     		lsls	r2, r2, #5
 2162              		.loc 1 1065 0
 2163 00d4 05F1100C 		add	ip, r5, #16
 2164              		.loc 1 1064 0
 2165 00d8 A058     		ldr	r0, [r4, r2]
 2166 00da 20F40040 		bic	r0, r0, #32768
 2167 00de A050     		str	r0, [r4, r2]
 2168              		.loc 1 1065 0
 2169 00e0 4FF0010E 		mov	lr, #1
 2170 00e4 D4F81C08 		ldr	r0, [r4, #2076]
 2171 00e8 0EFA0CF2 		lsl	r2, lr, ip
 2172 00ec 20EA0202 		bic	r2, r0, r2
 2173 00f0 C4F81C28 		str	r2, [r4, #2076]
 2174 00f4 B4E7     		b	.L294
 2175              	.L295:
 2176              		.loc 1 1085 0
 2177 00f6 05F13F03 		add	r3, r5, #63
 2178 00fa 04EB8303 		add	r3, r4, r3, lsl #2
 2179 00fe 0E4A     		ldr	r2, .L299+8
 2180              		.loc 1 1086 0
 2181 0100 2946     		mov	r1, r5
 2182              		.loc 1 1085 0
 2183 0102 5A60     		str	r2, [r3, #4]
 2184              		.loc 1 1086 0
 2185 0104 3046     		mov	r0, r6
 2186 0106 FFF7FEFF 		bl	otg_txfifo_flush
 2187              	.LVL220:
 2188              		.loc 1 1087 0
 2189 010a 05F14803 		add	r3, r5, #72
 2190 010e 5B01     		lsls	r3, r3, #5
 2191 0110 E258     		ldr	r2, [r4, r3]
 2192 0112 22F40042 		bic	r2, r2, #32768
 2193 0116 E250     		str	r2, [r4, r3]
 2194              		.loc 1 1088 0
 2195 0118 0122     		movs	r2, #1
 2196 011a D4F81C38 		ldr	r3, [r4, #2076]
 2197 011e 02FA05F5 		lsl	r5, r2, r5
 2198 0122 23EA0505 		bic	r5, r3, r5
 2199 0126 C4F81C58 		str	r5, [r4, #2076]
 2200 012a BDE8F081 		pop	{r4, r5, r6, r7, r8, pc}
 2201              	.L300:
 2202 012e 00BF     		.align	2
 2203              	.L299:
 2204 0130 00800010 		.word	268468224
 2205 0134 00800410 		.word	268730368
 2206 0138 00040002 		.word	33555456
 2207 013c 00800810 		.word	268992512
 2208 0140 00800C10 		.word	269254656
 2209              		.cfi_endproc
 2210              	.LFE143:
 2211              		.size	usb_lld_init_endpoint, .-usb_lld_init_endpoint
 2212 0144 AFF30080 		.section	.text.usb_lld_disable_endpoints,"ax",%progbits
 2212      AFF30080 
ARM GAS  /tmp/ccl4JtoD.s 			page 40


 2212      AFF30080 
 2213              		.align	2
 2214              		.p2align 4,,15
 2215              		.global	usb_lld_disable_endpoints
 2216              		.thumb
 2217              		.thumb_func
 2218              		.type	usb_lld_disable_endpoints, %function
 2219              	usb_lld_disable_endpoints:
 2220              	.LFB144:
 2221              		.loc 1 1099 0
 2222              		.cfi_startproc
 2223              		@ args = 0, pretend = 0, frame = 0
 2224              		@ frame_needed = 0, uses_anonymous_args = 0
 2225              		@ link register save eliminated.
 2226              	.LVL221:
 2227              	.LBB211:
 2228              	.LBB212:
 2229              		.loc 1 211 0
 2230 0000 426D     		ldr	r2, [r0, #84]
 2231 0002 1268     		ldr	r2, [r2, #0]
 2232 0004 8265     		str	r2, [r0, #88]
 2233              	.LBE212:
 2234              	.LBE211:
 2235              		.loc 1 1106 0
 2236              		.loc 1 1105 0
 2237 0006 FFF7FEBF 		b	otg_disable_ep
 2238              	.LVL222:
 2239              		.cfi_endproc
 2240              	.LFE144:
 2241              		.size	usb_lld_disable_endpoints, .-usb_lld_disable_endpoints
 2242 000a 00BFAFF3 		.section	.text.usb_lld_get_status_out,"ax",%progbits
 2242      0080
 2243              		.align	2
 2244              		.p2align 4,,15
 2245              		.global	usb_lld_get_status_out
 2246              		.thumb
 2247              		.thumb_func
 2248              		.type	usb_lld_get_status_out, %function
 2249              	usb_lld_get_status_out:
 2250              	.LFB145:
 2251              		.loc 1 1120 0
 2252              		.cfi_startproc
 2253              		@ args = 0, pretend = 0, frame = 0
 2254              		@ frame_needed = 0, uses_anonymous_args = 0
 2255              		@ link register save eliminated.
 2256              	.LVL223:
 2257              		.loc 1 1125 0
 2258 0000 5831     		adds	r1, r1, #88
 2259              	.LVL224:
 2260 0002 036D     		ldr	r3, [r0, #80]
 2261 0004 4901     		lsls	r1, r1, #5
 2262 0006 5B58     		ldr	r3, [r3, r1]
 2263              	.LVL225:
 2264              		.loc 1 1126 0
 2265 0008 13F40040 		ands	r0, r3, #32768
 2266              	.LVL226:
 2267 000c 04D0     		beq	.L303
ARM GAS  /tmp/ccl4JtoD.s 			page 41


 2268              		.loc 1 1128 0
 2269 000e 13F4001F 		tst	r3, #2097152
 2270              		.loc 1 1129 0
 2271 0012 0CBF     		ite	eq
 2272 0014 0220     		moveq	r0, #2
 2273 0016 0120     		movne	r0, #1
 2274              	.L303:
 2275              		.loc 1 1131 0
 2276 0018 7047     		bx	lr
 2277              		.cfi_endproc
 2278              	.LFE145:
 2279              		.size	usb_lld_get_status_out, .-usb_lld_get_status_out
 2280 001a 00BFAFF3 		.section	.text.usb_lld_get_status_in,"ax",%progbits
 2280      0080
 2281              		.align	2
 2282              		.p2align 4,,15
 2283              		.global	usb_lld_get_status_in
 2284              		.thumb
 2285              		.thumb_func
 2286              		.type	usb_lld_get_status_in, %function
 2287              	usb_lld_get_status_in:
 2288              	.LFB146:
 2289              		.loc 1 1145 0
 2290              		.cfi_startproc
 2291              		@ args = 0, pretend = 0, frame = 0
 2292              		@ frame_needed = 0, uses_anonymous_args = 0
 2293              		@ link register save eliminated.
 2294              	.LVL227:
 2295              		.loc 1 1150 0
 2296 0000 4831     		adds	r1, r1, #72
 2297              	.LVL228:
 2298 0002 036D     		ldr	r3, [r0, #80]
 2299 0004 4901     		lsls	r1, r1, #5
 2300 0006 5B58     		ldr	r3, [r3, r1]
 2301              	.LVL229:
 2302              		.loc 1 1151 0
 2303 0008 13F40040 		ands	r0, r3, #32768
 2304              	.LVL230:
 2305 000c 04D0     		beq	.L307
 2306              		.loc 1 1153 0
 2307 000e 13F4001F 		tst	r3, #2097152
 2308              		.loc 1 1154 0
 2309 0012 0CBF     		ite	eq
 2310 0014 0220     		moveq	r0, #2
 2311 0016 0120     		movne	r0, #1
 2312              	.L307:
 2313              		.loc 1 1156 0
 2314 0018 7047     		bx	lr
 2315              		.cfi_endproc
 2316              	.LFE146:
 2317              		.size	usb_lld_get_status_in, .-usb_lld_get_status_in
 2318 001a 00BFAFF3 		.section	.text.usb_lld_read_setup,"ax",%progbits
 2318      0080
 2319              		.align	2
 2320              		.p2align 4,,15
 2321              		.global	usb_lld_read_setup
 2322              		.thumb
ARM GAS  /tmp/ccl4JtoD.s 			page 42


 2323              		.thumb_func
 2324              		.type	usb_lld_read_setup, %function
 2325              	usb_lld_read_setup:
 2326              	.LFB147:
 2327              		.loc 1 1172 0
 2328              		.cfi_startproc
 2329              		@ args = 0, pretend = 0, frame = 0
 2330              		@ frame_needed = 0, uses_anonymous_args = 0
 2331              		@ link register save eliminated.
 2332              	.LVL231:
 2333              		.loc 1 1174 0
 2334 0000 00EB8101 		add	r1, r0, r1, lsl #2
 2335              	.LVL232:
 2336 0004 CB68     		ldr	r3, [r1, #12]
 2337 0006 1B6A     		ldr	r3, [r3, #32]
 2338 0008 1968     		ldr	r1, [r3, #0]	@ unaligned
 2339 000a 5B68     		ldr	r3, [r3, #4]	@ unaligned
 2340 000c 1160     		str	r1, [r2, #0]	@ unaligned
 2341 000e 5360     		str	r3, [r2, #4]	@ unaligned
 2342 0010 7047     		bx	lr
 2343              		.cfi_endproc
 2344              	.LFE147:
 2345              		.size	usb_lld_read_setup, .-usb_lld_read_setup
 2346 0012 00BFAFF3 		.section	.text.usb_lld_prepare_receive,"ax",%progbits
 2346      0080AFF3 
 2346      0080AFF3 
 2346      0080
 2347              		.align	2
 2348              		.p2align 4,,15
 2349              		.global	usb_lld_prepare_receive
 2350              		.thumb
 2351              		.thumb_func
 2352              		.type	usb_lld_prepare_receive, %function
 2353              	usb_lld_prepare_receive:
 2354              	.LFB148:
 2355              		.loc 1 1185 0
 2356              		.cfi_startproc
 2357              		@ args = 0, pretend = 0, frame = 0
 2358              		@ frame_needed = 0, uses_anonymous_args = 0
 2359              		@ link register save eliminated.
 2360              	.LVL233:
 2361              		.loc 1 1187 0
 2362 0000 00EB8103 		add	r3, r0, r1, lsl #2
 2363              		.loc 1 1185 0
 2364 0004 10B4     		push	{r4}
 2365              	.LCFI12:
 2366              		.cfi_def_cfa_offset 4
 2367              		.cfi_offset 4, -4
 2368              		.loc 1 1187 0
 2369 0006 DB68     		ldr	r3, [r3, #12]
 2370              	.LVL234:
 2371              		.loc 1 1192 0
 2372 0008 006D     		ldr	r0, [r0, #80]
 2373              	.LVL235:
 2374              		.loc 1 1190 0
 2375 000a 9A69     		ldr	r2, [r3, #24]
 2376 000c 5B8A     		ldrh	r3, [r3, #18]
ARM GAS  /tmp/ccl4JtoD.s 			page 43


 2377              	.LVL236:
 2378 000e 5468     		ldr	r4, [r2, #4]
 2379 0010 013C     		subs	r4, r4, #1
 2380 0012 E418     		adds	r4, r4, r3
 2381              		.loc 1 1192 0
 2382 0014 43F0C042 		orr	r2, r3, #1610612736
 2383              	.LVL237:
 2384 0018 00EB4111 		add	r1, r0, r1, lsl #5
 2385              	.LVL238:
 2386              		.loc 1 1190 0
 2387 001c B4FBF3F3 		udiv	r3, r4, r3
 2388              		.loc 1 1192 0
 2389 0020 42EAC343 		orr	r3, r2, r3, lsl #19
 2390 0024 C1F8103B 		str	r3, [r1, #2832]
 2391              		.loc 1 1195 0
 2392 0028 10BC     		pop	{r4}
 2393 002a 7047     		bx	lr
 2394              		.cfi_endproc
 2395              	.LFE148:
 2396              		.size	usb_lld_prepare_receive, .-usb_lld_prepare_receive
 2397 002c AFF30080 		.section	.text.usb_lld_prepare_transmit,"ax",%progbits
 2398              		.align	2
 2399              		.p2align 4,,15
 2400              		.global	usb_lld_prepare_transmit
 2401              		.thumb
 2402              		.thumb_func
 2403              		.type	usb_lld_prepare_transmit, %function
 2404              	usb_lld_prepare_transmit:
 2405              	.LFB149:
 2406              		.loc 1 1205 0
 2407              		.cfi_startproc
 2408              		@ args = 0, pretend = 0, frame = 0
 2409              		@ frame_needed = 0, uses_anonymous_args = 0
 2410              		@ link register save eliminated.
 2411              	.LVL239:
 2412              		.loc 1 1206 0
 2413 0000 00EB8103 		add	r3, r0, r1, lsl #2
 2414              		.loc 1 1205 0
 2415 0004 10B4     		push	{r4}
 2416              	.LCFI13:
 2417              		.cfi_def_cfa_offset 4
 2418              		.cfi_offset 4, -4
 2419              		.loc 1 1206 0
 2420 0006 DA68     		ldr	r2, [r3, #12]
 2421              	.LVL240:
 2422              		.loc 1 1209 0
 2423 0008 5369     		ldr	r3, [r2, #20]
 2424 000a 5B68     		ldr	r3, [r3, #4]
 2425 000c 6BB1     		cbz	r3, .L315
 2426              	.LBB213:
 2427              		.loc 1 1215 0
 2428 000e 128A     		ldrh	r2, [r2, #16]
 2429              	.LVL241:
 2430              		.loc 1 1217 0
 2431 0010 006D     		ldr	r0, [r0, #80]
 2432              	.LVL242:
 2433              		.loc 1 1215 0
ARM GAS  /tmp/ccl4JtoD.s 			page 44


 2434 0012 5C1E     		subs	r4, r3, #1
 2435 0014 A418     		adds	r4, r4, r2
 2436 0016 B4FBF2F2 		udiv	r2, r4, r2
 2437              	.LVL243:
 2438              		.loc 1 1217 0
 2439 001a 00EB4111 		add	r1, r0, r1, lsl #5
 2440              	.LVL244:
 2441 001e 43EAC243 		orr	r3, r3, r2, lsl #19
 2442 0022 C1F81039 		str	r3, [r1, #2320]
 2443              	.L312:
 2444              	.LBE213:
 2445              		.loc 1 1221 0
 2446 0026 10BC     		pop	{r4}
 2447 0028 7047     		bx	lr
 2448              	.LVL245:
 2449              	.L315:
 2450              		.loc 1 1211 0
 2451 002a 036D     		ldr	r3, [r0, #80]
 2452 002c 03EB4111 		add	r1, r3, r1, lsl #5
 2453              	.LVL246:
 2454 0030 4FF40023 		mov	r3, #524288
 2455 0034 C1F81039 		str	r3, [r1, #2320]
 2456 0038 F5E7     		b	.L312
 2457              		.cfi_endproc
 2458              	.LFE149:
 2459              		.size	usb_lld_prepare_transmit, .-usb_lld_prepare_transmit
 2460 003a 00BFAFF3 		.section	.text.usb_lld_start_out,"ax",%progbits
 2460      0080
 2461              		.align	2
 2462              		.p2align 4,,15
 2463              		.global	usb_lld_start_out
 2464              		.thumb
 2465              		.thumb_func
 2466              		.type	usb_lld_start_out, %function
 2467              	usb_lld_start_out:
 2468              	.LFB150:
 2469              		.loc 1 1231 0
 2470              		.cfi_startproc
 2471              		@ args = 0, pretend = 0, frame = 0
 2472              		@ frame_needed = 0, uses_anonymous_args = 0
 2473              		@ link register save eliminated.
 2474              	.LVL247:
 2475              		.loc 1 1233 0
 2476 0000 5831     		adds	r1, r1, #88
 2477              	.LVL248:
 2478 0002 036D     		ldr	r3, [r0, #80]
 2479 0004 4901     		lsls	r1, r1, #5
 2480 0006 5A58     		ldr	r2, [r3, r1]
 2481 0008 42F08062 		orr	r2, r2, #67108864
 2482 000c 5A50     		str	r2, [r3, r1]
 2483 000e 7047     		bx	lr
 2484              		.cfi_endproc
 2485              	.LFE150:
 2486              		.size	usb_lld_start_out, .-usb_lld_start_out
 2487              		.section	.text.usb_lld_start_in,"ax",%progbits
 2488              		.align	2
 2489              		.p2align 4,,15
ARM GAS  /tmp/ccl4JtoD.s 			page 45


 2490              		.global	usb_lld_start_in
 2491              		.thumb
 2492              		.thumb_func
 2493              		.type	usb_lld_start_in, %function
 2494              	usb_lld_start_in:
 2495              	.LFB151:
 2496              		.loc 1 1244 0
 2497              		.cfi_startproc
 2498              		@ args = 0, pretend = 0, frame = 0
 2499              		@ frame_needed = 0, uses_anonymous_args = 0
 2500              		@ link register save eliminated.
 2501              	.LVL249:
 2502              		.loc 1 1246 0
 2503 0000 01F14802 		add	r2, r1, #72
 2504 0004 036D     		ldr	r3, [r0, #80]
 2505 0006 5201     		lsls	r2, r2, #5
 2506 0008 9858     		ldr	r0, [r3, r2]
 2507              	.LVL250:
 2508 000a 40F00440 		orr	r0, r0, #-2080374784
 2509 000e 9850     		str	r0, [r3, r2]
 2510              		.loc 1 1247 0
 2511 0010 0120     		movs	r0, #1
 2512 0012 D3F83428 		ldr	r2, [r3, #2100]
 2513 0016 00FA01F1 		lsl	r1, r0, r1
 2514              	.LVL251:
 2515 001a 1143     		orrs	r1, r1, r2
 2516 001c C3F83418 		str	r1, [r3, #2100]
 2517 0020 7047     		bx	lr
 2518              		.cfi_endproc
 2519              	.LFE151:
 2520              		.size	usb_lld_start_in, .-usb_lld_start_in
 2521 0022 00BFAFF3 		.section	.text.usb_lld_stall_out,"ax",%progbits
 2521      0080AFF3 
 2521      0080AFF3 
 2521      0080
 2522              		.align	2
 2523              		.p2align 4,,15
 2524              		.global	usb_lld_stall_out
 2525              		.thumb
 2526              		.thumb_func
 2527              		.type	usb_lld_stall_out, %function
 2528              	usb_lld_stall_out:
 2529              	.LFB152:
 2530              		.loc 1 1258 0
 2531              		.cfi_startproc
 2532              		@ args = 0, pretend = 0, frame = 0
 2533              		@ frame_needed = 0, uses_anonymous_args = 0
 2534              		@ link register save eliminated.
 2535              	.LVL252:
 2536              		.loc 1 1260 0
 2537 0000 5831     		adds	r1, r1, #88
 2538              	.LVL253:
 2539 0002 036D     		ldr	r3, [r0, #80]
 2540 0004 4901     		lsls	r1, r1, #5
 2541 0006 5A58     		ldr	r2, [r3, r1]
 2542 0008 42F40012 		orr	r2, r2, #2097152
 2543 000c 5A50     		str	r2, [r3, r1]
ARM GAS  /tmp/ccl4JtoD.s 			page 46


 2544 000e 7047     		bx	lr
 2545              		.cfi_endproc
 2546              	.LFE152:
 2547              		.size	usb_lld_stall_out, .-usb_lld_stall_out
 2548              		.section	.text.usb_lld_stall_in,"ax",%progbits
 2549              		.align	2
 2550              		.p2align 4,,15
 2551              		.global	usb_lld_stall_in
 2552              		.thumb
 2553              		.thumb_func
 2554              		.type	usb_lld_stall_in, %function
 2555              	usb_lld_stall_in:
 2556              	.LFB153:
 2557              		.loc 1 1271 0
 2558              		.cfi_startproc
 2559              		@ args = 0, pretend = 0, frame = 0
 2560              		@ frame_needed = 0, uses_anonymous_args = 0
 2561              		@ link register save eliminated.
 2562              	.LVL254:
 2563              		.loc 1 1273 0
 2564 0000 4831     		adds	r1, r1, #72
 2565              	.LVL255:
 2566 0002 036D     		ldr	r3, [r0, #80]
 2567 0004 4901     		lsls	r1, r1, #5
 2568 0006 5A58     		ldr	r2, [r3, r1]
 2569 0008 42F40012 		orr	r2, r2, #2097152
 2570 000c 5A50     		str	r2, [r3, r1]
 2571 000e 7047     		bx	lr
 2572              		.cfi_endproc
 2573              	.LFE153:
 2574              		.size	usb_lld_stall_in, .-usb_lld_stall_in
 2575              		.section	.text.usb_lld_clear_out,"ax",%progbits
 2576              		.align	2
 2577              		.p2align 4,,15
 2578              		.global	usb_lld_clear_out
 2579              		.thumb
 2580              		.thumb_func
 2581              		.type	usb_lld_clear_out, %function
 2582              	usb_lld_clear_out:
 2583              	.LFB154:
 2584              		.loc 1 1284 0
 2585              		.cfi_startproc
 2586              		@ args = 0, pretend = 0, frame = 0
 2587              		@ frame_needed = 0, uses_anonymous_args = 0
 2588              		@ link register save eliminated.
 2589              	.LVL256:
 2590              		.loc 1 1286 0
 2591 0000 5831     		adds	r1, r1, #88
 2592              	.LVL257:
 2593 0002 036D     		ldr	r3, [r0, #80]
 2594 0004 4901     		lsls	r1, r1, #5
 2595 0006 5A58     		ldr	r2, [r3, r1]
 2596 0008 22F40012 		bic	r2, r2, #2097152
 2597 000c 5A50     		str	r2, [r3, r1]
 2598 000e 7047     		bx	lr
 2599              		.cfi_endproc
 2600              	.LFE154:
ARM GAS  /tmp/ccl4JtoD.s 			page 47


 2601              		.size	usb_lld_clear_out, .-usb_lld_clear_out
 2602              		.section	.text.usb_lld_clear_in,"ax",%progbits
 2603              		.align	2
 2604              		.p2align 4,,15
 2605              		.global	usb_lld_clear_in
 2606              		.thumb
 2607              		.thumb_func
 2608              		.type	usb_lld_clear_in, %function
 2609              	usb_lld_clear_in:
 2610              	.LFB155:
 2611              		.loc 1 1297 0
 2612              		.cfi_startproc
 2613              		@ args = 0, pretend = 0, frame = 0
 2614              		@ frame_needed = 0, uses_anonymous_args = 0
 2615              		@ link register save eliminated.
 2616              	.LVL258:
 2617              		.loc 1 1299 0
 2618 0000 4831     		adds	r1, r1, #72
 2619              	.LVL259:
 2620 0002 036D     		ldr	r3, [r0, #80]
 2621 0004 4901     		lsls	r1, r1, #5
 2622 0006 5A58     		ldr	r2, [r3, r1]
 2623 0008 22F40012 		bic	r2, r2, #2097152
 2624 000c 5A50     		str	r2, [r3, r1]
 2625 000e 7047     		bx	lr
 2626              		.cfi_endproc
 2627              	.LFE155:
 2628              		.size	usb_lld_clear_in, .-usb_lld_clear_in
 2629              		.global	USBD1
 2630              		.section	.rodata.fsparams,"a",%progbits
 2631              		.align	2
 2632              		.set	.LANCHOR1,. + 0
 2633              		.type	fsparams, %object
 2634              		.size	fsparams, 12
 2635              	fsparams:
 2636 0000 80000000 		.word	128
 2637 0004 80010000 		.word	384
 2638 0008 03000000 		.word	3
 2639              		.section	.bss.USBD1,"aw",%nobits
 2640              		.align	3
 2641              		.set	.LANCHOR0,. + 0
 2642              		.type	USBD1, %object
 2643              		.size	USBD1, 408
 2644              	USBD1:
 2645 0000 00000000 		.space	408
 2645      00000000 
 2645      00000000 
 2645      00000000 
 2645      00000000 
 2646              		.section	.rodata.str1.4,"aMS",%progbits,1
 2647              		.align	2
 2648              	.LC0:
 2649 0000 7573625F 		.ascii	"usb_lld_pump\000"
 2649      6C6C645F 
 2649      70756D70 
 2649      00
 2650 000d 000000   		.section	.rodata.ep0config,"a",%progbits
ARM GAS  /tmp/ccl4JtoD.s 			page 48


 2651              		.align	2
 2652              		.set	.LANCHOR2,. + 0
 2653              		.type	ep0config, %object
 2654              		.size	ep0config, 36
 2655              	ep0config:
 2656 0000 00000000 		.word	0
 2657 0004 00000000 		.word	_usb_ep0setup
 2658 0008 00000000 		.word	_usb_ep0in
 2659 000c 00000000 		.word	_usb_ep0out
 2660 0010 4000     		.short	64
 2661 0012 4000     		.short	64
 2662 0014 00000000 		.word	ep0_state
 2663 0018 00000000 		.word	ep0_state
 2664 001c 0100     		.short	1
 2665 001e 0000     		.space	2
 2666 0020 00000000 		.word	ep0setup_buffer
 2667              		.section	.bss.ep0_state,"aw",%nobits
 2668              		.align	2
 2669              		.type	ep0_state, %object
 2670              		.size	ep0_state, 16
 2671              	ep0_state:
 2672 0000 00000000 		.space	16
 2672      00000000 
 2672      00000000 
 2672      00000000 
 2673              		.section	.bss.ep0setup_buffer,"aw",%nobits
 2674              		.align	2
 2675              		.type	ep0setup_buffer, %object
 2676              		.size	ep0setup_buffer, 8
 2677              	ep0setup_buffer:
 2678 0000 00000000 		.space	8
 2678      00000000 
 2679              		.text
 2680              	.Letext0:
 2681              		.file 3 "/home/dpeter/CodeSourcery/Sourcery_CodeBench_Lite_for_ARM_EABI/bin/../lib/gcc/arm-none-ea
 2682              		.file 4 "/home/dpeter/CodeSourcery/Sourcery_CodeBench_Lite_for_ARM_EABI/bin/../lib/gcc/arm-none-ea
 2683              		.file 5 "/home/dpeter/devel/sources/ChibiOS-RT/os/ports/GCC/ARMCMx/chtypes.h"
 2684              		.file 6 "/home/dpeter/devel/sources/ChibiOS-RT/os/kernel/include/chlists.h"
 2685              		.file 7 "/home/dpeter/devel/sources/ChibiOS-RT/os/kernel/include/chthreads.h"
 2686              		.file 8 "/home/dpeter/devel/sources/ChibiOS-RT/os/ports/GCC/ARMCMx/chcore_v7m.h"
 2687              		.file 9 "/home/dpeter/devel/sources/ChibiOS-RT/os/kernel/include/chschd.h"
 2688              		.file 10 "/home/dpeter/devel/sources/ChibiOS-RT/os/kernel/include/chmtx.h"
 2689              		.file 11 "/home/dpeter/devel/sources/ChibiOS-RT/os/kernel/include/chqueues.h"
 2690              		.file 12 "/home/dpeter/devel/sources/ChibiOS-RT/os/hal/platforms/STM32F4xx/stm32f4xx.h"
 2691              		.file 13 "/home/dpeter/devel/sources/ChibiOS-RT/os/hal/platforms/STM32F4xx/hal_lld.h"
 2692              		.file 14 "/home/dpeter/devel/sources/ChibiOS-RT/os/hal/include/usb.h"
 2693              		.file 15 "/home/dpeter/devel/sources/ChibiOS-RT/os/hal/platforms/STM32/OTGv1/usb_lld.h"
 2694              		.file 16 "/home/dpeter/devel/sources/ChibiOS-RT/os/hal/platforms/STM32/OTGv1/stm32_otg.h"
 2695              		.file 17 "/home/dpeter/devel/sources/ChibiOS-RT/os/ports/common/ARMCMx/CMSIS/include/core_cm4.h"
 2696              		.file 18 "/home/dpeter/devel/sources/ChibiOS-RT/os/hal/include/hal.h"
 2697              		.file 19 "/home/dpeter/devel/sources/ChibiOS-RT/os/ports/common/ARMCMx/nvic.h"